


ARM Macro Assembler    Page 1 


    1 00000000         ;******************** (C) COPYRIGHT 2020 MindMotion ****
                       ****************
    2 00000000         ; Amount of memory (in bytes) allocated for Stack
    3 00000000         ; Tailor this value to your application needs
    4 00000000         ; <h> Stack Configuration
    5 00000000         ;   <o> Stack Size (in Bytes) <0x0-0xFFFFFFFF:8>
    6 00000000         ; </h>
    7 00000000         
    8 00000000 00000400 
                       Stack_Size
                               EQU              0x00000400
    9 00000000         
   10 00000000                 AREA             STACK, NOINIT, READWRITE, ALIGN
=3
   11 00000000         Stack_Mem
                               SPACE            Stack_Size
   12 00000400         __initial_sp
   13 00000400         
   14 00000400         
   15 00000400         ; <h> Heap Configuration
   16 00000400         ;   <o>  Heap Size (in Bytes) <0x0-0xFFFFFFFF:8>
   17 00000400         ; </h>
   18 00000400         
   19 00000400 00000200 
                       Heap_Size
                               EQU              0x00000200
   20 00000400         
   21 00000400                 AREA             HEAP, NOINIT, READWRITE, ALIGN=
3
   22 00000000         __heap_base
   23 00000000         Heap_Mem
                               SPACE            Heap_Size
   24 00000200         __heap_limit
   25 00000200         
   26 00000200                 PRESERVE8
   27 00000200                 THUMB
   28 00000200         
   29 00000200         
   30 00000200         ; Vector Table Mapped to Address 0 at Reset
   31 00000200                 AREA             RESET, DATA, READONLY
   32 00000000                 EXPORT           __Vectors
   33 00000000                 EXPORT           __Vectors_End
   34 00000000                 EXPORT           __Vectors_Size
   35 00000000         
   36 00000000 00000000 
                       __Vectors
                               DCD              __initial_sp ; Top of Stack
   37 00000004 00000000        DCD              Reset_Handler ; Reset Handler
   38 00000008 00000000        DCD              NMI_Handler ; NMI Handler
   39 0000000C 00000000        DCD              HardFault_Handler ; Hard Fault 
                                                            Handler
   40 00000010 00000000        DCD              0           ; Reserved
   41 00000014 00000000        DCD              0           ; Reserved
   42 00000018 00000000        DCD              0           ; Reserved
   43 0000001C 00000000        DCD              0           ; Reserved
   44 00000020 00000000        DCD              0           ; Reserved
   45 00000024 00000000        DCD              0           ; Reserved
   46 00000028 00000000        DCD              0           ; Reserved
   47 0000002C 00000000        DCD              SVC_Handler ; SVCall Handler



ARM Macro Assembler    Page 2 


   48 00000030 00000000        DCD              0           ; Reserved
   49 00000034 00000000        DCD              0           ; Reserved
   50 00000038 00000000        DCD              PendSV_Handler ; PendSV Handler
                                                            
   51 0000003C 00000000        DCD              SysTick_Handler 
                                                            ; SysTick Handler
   52 00000040         
   53 00000040         ; External Interrupts                           
   54 00000040 00000000        DCD              WWDG_IRQHandler 
                                                            ; Window Watchdog
   55 00000044 00000000        DCD              PVD_IRQHandler ; PVD through EX
                                                            TI Line detect
   56 00000048 00000000        DCD              RTC_BKP_IRQHandler ; RTC throug
                                                            h EXTI Line & Tampe
                                                            r
   57 0000004C 00000000        DCD              FLASH_IRQHandler ; FLASH
   58 00000050 00000000        DCD              RCC_CRS_IRQHandler ; RCC & CRS
   59 00000054 00000000        DCD              EXTI0_1_IRQHandler 
                                                            ; EXTI Line 0 and 1
                                                            
   60 00000058 00000000        DCD              EXTI2_3_IRQHandler 
                                                            ; EXTI Line 2 and 3
                                                            
   61 0000005C 00000000        DCD              EXTI4_15_IRQHandler 
                                                            ; EXTI Line 4 to 15
                                                            
   62 00000060 00000000        DCD              HWDIV_IRQHandler ; HWDIV
   63 00000064 00000000        DCD              DMA1_Channel1_IRQHandler 
                                                            ; DMA1 Channel 1
   64 00000068 00000000        DCD              DMA1_Channel2_3_IRQHandler ; DM
                                                            A1 Channel 2 and Ch
                                                            annel 3
   65 0000006C 00000000        DCD              DMA1_Channel4_5_IRQHandler ; DM
                                                            A1 Channel 4 and Ch
                                                            annel 5
   66 00000070 00000000        DCD              ADC1_COMP_IRQHandler 
                                                            ; ADC1 & COMP
   67 00000074 00000000        DCD              TIM1_BRK_UP_TRG_COM_IRQHandler 
                                                            ; TIM1 Break, Updat
                                                            e, Trigger and Comm
                                                            utation
   68 00000078 00000000        DCD              TIM1_CC_IRQHandler ; TIM1 Captu
                                                            re Compare
   69 0000007C 00000000        DCD              TIM2_IRQHandler ; TIM2
   70 00000080 00000000        DCD              TIM3_IRQHandler ; TIM3
   71 00000084 00000000        DCD              0           ; Reserved
   72 00000088 00000000        DCD              0           ; Reserved
   73 0000008C 00000000        DCD              TIM14_IRQHandler ; TIM14
   74 00000090 00000000        DCD              0           ; Reserved
   75 00000094 00000000        DCD              TIM16_IRQHandler ; TIM16
   76 00000098 00000000        DCD              TIM17_IRQHandler ; TIM17
   77 0000009C 00000000        DCD              I2C1_IRQHandler ; I2C1
   78 000000A0 00000000        DCD              0           ; Reserved
   79 000000A4 00000000        DCD              SPI1_IRQHandler ; SPI1
   80 000000A8 00000000        DCD              SPI2_IRQHandler ; SPI2
   81 000000AC 00000000        DCD              UART1_IRQHandler ; UART1
   82 000000B0 00000000        DCD              UART2_IRQHandler ; UART2
   83 000000B4 00000000        DCD              0           ; Reserved
   84 000000B8 00000000        DCD              CAN_IRQHandler ; CAN



ARM Macro Assembler    Page 3 


   85 000000BC 00000000        DCD              0           ; Reserved
   86 000000C0         
   87 000000C0         
   88 000000C0         __Vectors_End
   89 000000C0         ;data2xyz        FILL    1024,0xBF00,2 ; defines 1024 by
                       tes containing 0xBF00
   90 000000C0 000000C0 
                       __Vectors_Size
                               EQU              __Vectors_End - __Vectors
   91 000000C0         
   92 000000C0                 AREA             |.text|, CODE, READONLY
   93 00000000         
   94 00000000         ; Reset handler routine
   95 00000000         Reset_Handler
                               PROC
   96 00000000                 EXPORT           Reset_Handler                  
[WEAK]
   97 00000000                 IMPORT           __main
   98 00000000                 IMPORT           SystemInit
   99 00000000         
  100 00000000         
  101 00000000 4810            LDR              R0, =__initial_sp ; set stack p
                                                            ointer 
  102 00000002 F380 8808       MSR              MSP, R0
  103 00000006         
  104 00000006         ;; RP enable
  105 00000006 4810            LDR              R0,=0x40022060
  106 00000008 4910            LDR              R1,=0x00000001
  107 0000000A 6001            STR              R1, [R0]
  108 0000000C         
  109 0000000C         ;;Check if boot space corresponds to test memory 
  110 0000000C         
  111 0000000C 4810            LDR              R0,=0x00000004
  112 0000000E 6801            LDR              R1, [R0]
  113 00000010 0E09            LSRS             R1, R1, #24
  114 00000012 4A10            LDR              R2,=0x1F
  115 00000014 4291            CMP              R1, R2
  116 00000016         
  117 00000016 D105            BNE              ApplicationStart
  118 00000018         
  119 00000018         ;; SYSCFG clock enable    
  120 00000018         
  121 00000018 480F            LDR              R0,=0x40021018
  122 0000001A 490C            LDR              R1,=0x00000001
  123 0000001C 6001            STR              R1, [R0]
  124 0000001E         
  125 0000001E         ;; Set CFGR1 register with flash memory remap at address
                        0
  126 0000001E         
  127 0000001E 480F            LDR              R0,=0x40010000
  128 00000020 490F            LDR              R1,=0x00000000
  129 00000022 6001            STR              R1, [R0]
  130 00000024         ApplicationStart
  131 00000024 480F            LDR              R0, =SystemInit
  132 00000026 4780            BLX              R0
  133 00000028 480F            LDR              R0, =__main
  134 0000002A 4700            BX               R0
  135 0000002C                 ENDP
  136 0000002C         



ARM Macro Assembler    Page 4 


  137 0000002C         ; Dummy Exception Handlers (infinite loops which can be 
                       modified)
  138 0000002C         
  139 0000002C         NMI_Handler
                               PROC
  140 0000002C                 EXPORT           NMI_Handler                    
[WEAK]
  141 0000002C E7FE            B                .
  142 0000002E                 ENDP
  144 0000002E         HardFault_Handler
                               PROC
  145 0000002E                 EXPORT           HardFault_Handler              
[WEAK]
  146 0000002E E7FE            B                .
  147 00000030                 ENDP
  148 00000030         SVC_Handler
                               PROC
  149 00000030                 EXPORT           SVC_Handler                    
[WEAK]
  150 00000030 E7FE            B                .
  151 00000032                 ENDP
  152 00000032         PendSV_Handler
                               PROC
  153 00000032                 EXPORT           PendSV_Handler                 
[WEAK]
  154 00000032 E7FE            B                .
  155 00000034                 ENDP
  156 00000034         SysTick_Handler
                               PROC
  157 00000034                 EXPORT           SysTick_Handler                
[WEAK]
  158 00000034 E7FE            B                .
  159 00000036                 ENDP
  160 00000036         
  161 00000036         Default_Handler
                               PROC
  162 00000036         
  163 00000036                 EXPORT           WWDG_IRQHandler                
[WEAK]
  164 00000036                 EXPORT           PVD_IRQHandler                 
[WEAK]
  165 00000036                 EXPORT           RTC_BKP_IRQHandler             
[WEAK]
  166 00000036                 EXPORT           FLASH_IRQHandler               
[WEAK]
  167 00000036                 EXPORT           RCC_CRS_IRQHandler             
[WEAK]
  168 00000036                 EXPORT           EXTI0_1_IRQHandler             
[WEAK]
  169 00000036                 EXPORT           EXTI2_3_IRQHandler             
[WEAK]
  170 00000036                 EXPORT           EXTI4_15_IRQHandler            
[WEAK]
  171 00000036                 EXPORT           HWDIV_IRQHandler               
[WEAK]
  172 00000036                 EXPORT           DMA1_Channel1_IRQHandler       
[WEAK]
  173 00000036                 EXPORT           DMA1_Channel2_3_IRQHandler     
[WEAK]



ARM Macro Assembler    Page 5 


  174 00000036                 EXPORT           DMA1_Channel4_5_IRQHandler     
[WEAK]
  175 00000036                 EXPORT           ADC1_COMP_IRQHandler           
[WEAK]
  176 00000036                 EXPORT           TIM1_BRK_UP_TRG_COM_IRQHandler 
[WEAK]
  177 00000036                 EXPORT           TIM1_CC_IRQHandler             
[WEAK]
  178 00000036                 EXPORT           TIM2_IRQHandler                
[WEAK]
  179 00000036                 EXPORT           TIM3_IRQHandler                
[WEAK]
  180 00000036                 EXPORT           TIM14_IRQHandler               
[WEAK]
  181 00000036                 EXPORT           TIM16_IRQHandler               
[WEAK]
  182 00000036                 EXPORT           TIM17_IRQHandler               
[WEAK]
  183 00000036                 EXPORT           I2C1_IRQHandler                
[WEAK]
  184 00000036                 EXPORT           SPI1_IRQHandler                
[WEAK]
  185 00000036                 EXPORT           SPI2_IRQHandler                
[WEAK]
  186 00000036                 EXPORT           UART1_IRQHandler               
[WEAK]
  187 00000036                 EXPORT           UART2_IRQHandler               
[WEAK]
  188 00000036                 EXPORT           CAN_IRQHandler                 
[WEAK]
  189 00000036         
  190 00000036         
  191 00000036         
  192 00000036         WWDG_IRQHandler
  193 00000036         PVD_IRQHandler
  194 00000036         RTC_BKP_IRQHandler
  195 00000036         FLASH_IRQHandler
  196 00000036         RCC_CRS_IRQHandler
  197 00000036         EXTI0_1_IRQHandler
  198 00000036         EXTI2_3_IRQHandler
  199 00000036         EXTI4_15_IRQHandler
  200 00000036         HWDIV_IRQHandler
  201 00000036         DMA1_Channel1_IRQHandler
  202 00000036         DMA1_Channel2_3_IRQHandler
  203 00000036         DMA1_Channel4_5_IRQHandler
  204 00000036         ADC1_COMP_IRQHandler
  205 00000036         TIM1_BRK_UP_TRG_COM_IRQHandler
  206 00000036         TIM1_CC_IRQHandler
  207 00000036         TIM2_IRQHandler
  208 00000036         TIM3_IRQHandler
  209 00000036         TIM14_IRQHandler
  210 00000036         TIM16_IRQHandler
  211 00000036         TIM17_IRQHandler
  212 00000036         I2C1_IRQHandler
  213 00000036         SPI1_IRQHandler
  214 00000036         SPI2_IRQHandler
  215 00000036         UART1_IRQHandler
  216 00000036         UART2_IRQHandler
  217 00000036         CAN_IRQHandler



ARM Macro Assembler    Page 6 


  218 00000036         
  219 00000036 E7FE            B                .
  220 00000038         
  221 00000038                 ENDP
  222 00000038         
  223 00000038                 ALIGN
  224 00000038         
  225 00000038         ;*******************************************************
                       ************************
  226 00000038         ; User Stack and Heap initialization
  227 00000038         ;*******************************************************
                       ************************
  228 00000038                 IF               :DEF:__MICROLIB
  235 00000038         
  236 00000038                 IMPORT           __use_two_region_memory
  237 00000038                 EXPORT           __user_initial_stackheap
  238 00000038         
  239 00000038         __user_initial_stackheap
  240 00000038         
  241 00000038 480C            LDR              R0, =  Heap_Mem
  242 0000003A 490D            LDR              R1, =(Stack_Mem + Stack_Size)
  243 0000003C 4A0D            LDR              R2, = (Heap_Mem +  Heap_Size)
  244 0000003E 4B0E            LDR              R3, = Stack_Mem
  245 00000040 4770            BX               LR
  246 00000042         
  247 00000042 00 00           ALIGN
  248 00000044         
  249 00000044                 ENDIF
  250 00000044         
  251 00000044                 END
              00000000 
              40022060 
              00000001 
              00000004 
              0000001F 
              40021018 
              40010000 
              00000000 
              00000000 
              00000000 
              00000000 
              00000400 
              00000200 
              00000000 
Command Line: --xref --diag_suppress=9931,A1950W --cpu=Cortex-M0 --depend=.\obj
ects\startup_mm32spin06xx_s_keil.d -o.\objects\startup_mm32spin06xx_s_keil.o -I
.\RTE\_MM32SPIN05 -IC:\Users\Admin\AppData\Local\Arm\Packs\ARM\CMSIS\5.9.0\CMSI
S\Core\Include -IC:\Users\Admin\AppData\Local\Arm\Packs\MindMotion\MM32SPIN0x_D
FP\1.0.8\Device\MM32SPIN06xx_s\Include --predefine="__EVAL SETA 1" --predefine=
"__UVISION_VERSION SETA 539" --predefine="_RTE_ SETA 1" --predefine="MM32SPIN05
PF SETA 1" --predefine="_RTE_ SETA 1" --list=.\listings\startup_mm32spin06xx_s_
keil.lst RTE/Device/MM32SPIN05PF/startup_mm32spin06xx_s_keil.s



ARM Macro Assembler    Page 1 Alphabetic symbol ordering
Relocatable symbols

STACK 00000000

Symbol: STACK
   Definitions
      At line 10 in file RTE/Device/MM32SPIN05PF/startup_mm32spin06xx_s_keil.s
   Uses
      None
Comment: STACK unused
Stack_Mem 00000000

Symbol: Stack_Mem
   Definitions
      At line 11 in file RTE/Device/MM32SPIN05PF/startup_mm32spin06xx_s_keil.s
   Uses
      At line 242 in file RTE/Device/MM32SPIN05PF/startup_mm32spin06xx_s_keil.s
      At line 244 in file RTE/Device/MM32SPIN05PF/startup_mm32spin06xx_s_keil.s

__initial_sp 00000400

Symbol: __initial_sp
   Definitions
      At line 12 in file RTE/Device/MM32SPIN05PF/startup_mm32spin06xx_s_keil.s
   Uses
      At line 36 in file RTE/Device/MM32SPIN05PF/startup_mm32spin06xx_s_keil.s
      At line 101 in file RTE/Device/MM32SPIN05PF/startup_mm32spin06xx_s_keil.s

3 symbols



ARM Macro Assembler    Page 1 Alphabetic symbol ordering
Relocatable symbols

HEAP 00000000

Symbol: HEAP
   Definitions
      At line 21 in file RTE/Device/MM32SPIN05PF/startup_mm32spin06xx_s_keil.s
   Uses
      None
Comment: HEAP unused
Heap_Mem 00000000

Symbol: Heap_Mem
   Definitions
      At line 23 in file RTE/Device/MM32SPIN05PF/startup_mm32spin06xx_s_keil.s
   Uses
      At line 241 in file RTE/Device/MM32SPIN05PF/startup_mm32spin06xx_s_keil.s
      At line 243 in file RTE/Device/MM32SPIN05PF/startup_mm32spin06xx_s_keil.s

__heap_base 00000000

Symbol: __heap_base
   Definitions
      At line 22 in file RTE/Device/MM32SPIN05PF/startup_mm32spin06xx_s_keil.s
   Uses
      None
Comment: __heap_base unused
__heap_limit 00000200

Symbol: __heap_limit
   Definitions
      At line 24 in file RTE/Device/MM32SPIN05PF/startup_mm32spin06xx_s_keil.s
   Uses
      None
Comment: __heap_limit unused
4 symbols



ARM Macro Assembler    Page 1 Alphabetic symbol ordering
Relocatable symbols

RESET 00000000

Symbol: RESET
   Definitions
      At line 31 in file RTE/Device/MM32SPIN05PF/startup_mm32spin06xx_s_keil.s
   Uses
      None
Comment: RESET unused
__Vectors 00000000

Symbol: __Vectors
   Definitions
      At line 36 in file RTE/Device/MM32SPIN05PF/startup_mm32spin06xx_s_keil.s
   Uses
      At line 32 in file RTE/Device/MM32SPIN05PF/startup_mm32spin06xx_s_keil.s
      At line 90 in file RTE/Device/MM32SPIN05PF/startup_mm32spin06xx_s_keil.s

__Vectors_End 000000C0

Symbol: __Vectors_End
   Definitions
      At line 88 in file RTE/Device/MM32SPIN05PF/startup_mm32spin06xx_s_keil.s
   Uses
      At line 33 in file RTE/Device/MM32SPIN05PF/startup_mm32spin06xx_s_keil.s
      At line 90 in file RTE/Device/MM32SPIN05PF/startup_mm32spin06xx_s_keil.s

3 symbols



ARM Macro Assembler    Page 1 Alphabetic symbol ordering
Relocatable symbols

.text 00000000

Symbol: .text
   Definitions
      At line 92 in file RTE/Device/MM32SPIN05PF/startup_mm32spin06xx_s_keil.s
   Uses
      None
Comment: .text unused
ADC1_COMP_IRQHandler 00000036

Symbol: ADC1_COMP_IRQHandler
   Definitions
      At line 204 in file RTE/Device/MM32SPIN05PF/startup_mm32spin06xx_s_keil.s
   Uses
      At line 66 in file RTE/Device/MM32SPIN05PF/startup_mm32spin06xx_s_keil.s
      At line 175 in file RTE/Device/MM32SPIN05PF/startup_mm32spin06xx_s_keil.s

ApplicationStart 00000024

Symbol: ApplicationStart
   Definitions
      At line 130 in file RTE/Device/MM32SPIN05PF/startup_mm32spin06xx_s_keil.s
   Uses
      At line 117 in file RTE/Device/MM32SPIN05PF/startup_mm32spin06xx_s_keil.s
Comment: ApplicationStart used once
CAN_IRQHandler 00000036

Symbol: CAN_IRQHandler
   Definitions
      At line 217 in file RTE/Device/MM32SPIN05PF/startup_mm32spin06xx_s_keil.s
   Uses
      At line 84 in file RTE/Device/MM32SPIN05PF/startup_mm32spin06xx_s_keil.s
      At line 188 in file RTE/Device/MM32SPIN05PF/startup_mm32spin06xx_s_keil.s

DMA1_Channel1_IRQHandler 00000036

Symbol: DMA1_Channel1_IRQHandler
   Definitions
      At line 201 in file RTE/Device/MM32SPIN05PF/startup_mm32spin06xx_s_keil.s
   Uses
      At line 63 in file RTE/Device/MM32SPIN05PF/startup_mm32spin06xx_s_keil.s
      At line 172 in file RTE/Device/MM32SPIN05PF/startup_mm32spin06xx_s_keil.s

DMA1_Channel2_3_IRQHandler 00000036

Symbol: DMA1_Channel2_3_IRQHandler
   Definitions
      At line 202 in file RTE/Device/MM32SPIN05PF/startup_mm32spin06xx_s_keil.s
   Uses
      At line 64 in file RTE/Device/MM32SPIN05PF/startup_mm32spin06xx_s_keil.s
      At line 173 in file RTE/Device/MM32SPIN05PF/startup_mm32spin06xx_s_keil.s

DMA1_Channel4_5_IRQHandler 00000036

Symbol: DMA1_Channel4_5_IRQHandler
   Definitions
      At line 203 in file RTE/Device/MM32SPIN05PF/startup_mm32spin06xx_s_keil.s
   Uses
      At line 65 in file RTE/Device/MM32SPIN05PF/startup_mm32spin06xx_s_keil.s



ARM Macro Assembler    Page 2 Alphabetic symbol ordering
Relocatable symbols

      At line 174 in file RTE/Device/MM32SPIN05PF/startup_mm32spin06xx_s_keil.s

Default_Handler 00000036

Symbol: Default_Handler
   Definitions
      At line 161 in file RTE/Device/MM32SPIN05PF/startup_mm32spin06xx_s_keil.s
   Uses
      None
Comment: Default_Handler unused
EXTI0_1_IRQHandler 00000036

Symbol: EXTI0_1_IRQHandler
   Definitions
      At line 197 in file RTE/Device/MM32SPIN05PF/startup_mm32spin06xx_s_keil.s
   Uses
      At line 59 in file RTE/Device/MM32SPIN05PF/startup_mm32spin06xx_s_keil.s
      At line 168 in file RTE/Device/MM32SPIN05PF/startup_mm32spin06xx_s_keil.s

EXTI2_3_IRQHandler 00000036

Symbol: EXTI2_3_IRQHandler
   Definitions
      At line 198 in file RTE/Device/MM32SPIN05PF/startup_mm32spin06xx_s_keil.s
   Uses
      At line 60 in file RTE/Device/MM32SPIN05PF/startup_mm32spin06xx_s_keil.s
      At line 169 in file RTE/Device/MM32SPIN05PF/startup_mm32spin06xx_s_keil.s

EXTI4_15_IRQHandler 00000036

Symbol: EXTI4_15_IRQHandler
   Definitions
      At line 199 in file RTE/Device/MM32SPIN05PF/startup_mm32spin06xx_s_keil.s
   Uses
      At line 61 in file RTE/Device/MM32SPIN05PF/startup_mm32spin06xx_s_keil.s
      At line 170 in file RTE/Device/MM32SPIN05PF/startup_mm32spin06xx_s_keil.s

FLASH_IRQHandler 00000036

Symbol: FLASH_IRQHandler
   Definitions
      At line 195 in file RTE/Device/MM32SPIN05PF/startup_mm32spin06xx_s_keil.s
   Uses
      At line 57 in file RTE/Device/MM32SPIN05PF/startup_mm32spin06xx_s_keil.s
      At line 166 in file RTE/Device/MM32SPIN05PF/startup_mm32spin06xx_s_keil.s

HWDIV_IRQHandler 00000036

Symbol: HWDIV_IRQHandler
   Definitions
      At line 200 in file RTE/Device/MM32SPIN05PF/startup_mm32spin06xx_s_keil.s
   Uses
      At line 62 in file RTE/Device/MM32SPIN05PF/startup_mm32spin06xx_s_keil.s
      At line 171 in file RTE/Device/MM32SPIN05PF/startup_mm32spin06xx_s_keil.s

HardFault_Handler 0000002E

Symbol: HardFault_Handler
   Definitions



ARM Macro Assembler    Page 3 Alphabetic symbol ordering
Relocatable symbols

      At line 144 in file RTE/Device/MM32SPIN05PF/startup_mm32spin06xx_s_keil.s
   Uses
      At line 39 in file RTE/Device/MM32SPIN05PF/startup_mm32spin06xx_s_keil.s
      At line 145 in file RTE/Device/MM32SPIN05PF/startup_mm32spin06xx_s_keil.s

I2C1_IRQHandler 00000036

Symbol: I2C1_IRQHandler
   Definitions
      At line 212 in file RTE/Device/MM32SPIN05PF/startup_mm32spin06xx_s_keil.s
   Uses
      At line 77 in file RTE/Device/MM32SPIN05PF/startup_mm32spin06xx_s_keil.s
      At line 183 in file RTE/Device/MM32SPIN05PF/startup_mm32spin06xx_s_keil.s

NMI_Handler 0000002C

Symbol: NMI_Handler
   Definitions
      At line 139 in file RTE/Device/MM32SPIN05PF/startup_mm32spin06xx_s_keil.s
   Uses
      At line 38 in file RTE/Device/MM32SPIN05PF/startup_mm32spin06xx_s_keil.s
      At line 140 in file RTE/Device/MM32SPIN05PF/startup_mm32spin06xx_s_keil.s

PVD_IRQHandler 00000036

Symbol: PVD_IRQHandler
   Definitions
      At line 193 in file RTE/Device/MM32SPIN05PF/startup_mm32spin06xx_s_keil.s
   Uses
      At line 55 in file RTE/Device/MM32SPIN05PF/startup_mm32spin06xx_s_keil.s
      At line 164 in file RTE/Device/MM32SPIN05PF/startup_mm32spin06xx_s_keil.s

PendSV_Handler 00000032

Symbol: PendSV_Handler
   Definitions
      At line 152 in file RTE/Device/MM32SPIN05PF/startup_mm32spin06xx_s_keil.s
   Uses
      At line 50 in file RTE/Device/MM32SPIN05PF/startup_mm32spin06xx_s_keil.s
      At line 153 in file RTE/Device/MM32SPIN05PF/startup_mm32spin06xx_s_keil.s

RCC_CRS_IRQHandler 00000036

Symbol: RCC_CRS_IRQHandler
   Definitions
      At line 196 in file RTE/Device/MM32SPIN05PF/startup_mm32spin06xx_s_keil.s
   Uses
      At line 58 in file RTE/Device/MM32SPIN05PF/startup_mm32spin06xx_s_keil.s
      At line 167 in file RTE/Device/MM32SPIN05PF/startup_mm32spin06xx_s_keil.s

RTC_BKP_IRQHandler 00000036

Symbol: RTC_BKP_IRQHandler
   Definitions
      At line 194 in file RTE/Device/MM32SPIN05PF/startup_mm32spin06xx_s_keil.s
   Uses
      At line 56 in file RTE/Device/MM32SPIN05PF/startup_mm32spin06xx_s_keil.s
      At line 165 in file RTE/Device/MM32SPIN05PF/startup_mm32spin06xx_s_keil.s




ARM Macro Assembler    Page 4 Alphabetic symbol ordering
Relocatable symbols

Reset_Handler 00000000

Symbol: Reset_Handler
   Definitions
      At line 95 in file RTE/Device/MM32SPIN05PF/startup_mm32spin06xx_s_keil.s
   Uses
      At line 37 in file RTE/Device/MM32SPIN05PF/startup_mm32spin06xx_s_keil.s
      At line 96 in file RTE/Device/MM32SPIN05PF/startup_mm32spin06xx_s_keil.s

SPI1_IRQHandler 00000036

Symbol: SPI1_IRQHandler
   Definitions
      At line 213 in file RTE/Device/MM32SPIN05PF/startup_mm32spin06xx_s_keil.s
   Uses
      At line 79 in file RTE/Device/MM32SPIN05PF/startup_mm32spin06xx_s_keil.s
      At line 184 in file RTE/Device/MM32SPIN05PF/startup_mm32spin06xx_s_keil.s

SPI2_IRQHandler 00000036

Symbol: SPI2_IRQHandler
   Definitions
      At line 214 in file RTE/Device/MM32SPIN05PF/startup_mm32spin06xx_s_keil.s
   Uses
      At line 80 in file RTE/Device/MM32SPIN05PF/startup_mm32spin06xx_s_keil.s
      At line 185 in file RTE/Device/MM32SPIN05PF/startup_mm32spin06xx_s_keil.s

SVC_Handler 00000030

Symbol: SVC_Handler
   Definitions
      At line 148 in file RTE/Device/MM32SPIN05PF/startup_mm32spin06xx_s_keil.s
   Uses
      At line 47 in file RTE/Device/MM32SPIN05PF/startup_mm32spin06xx_s_keil.s
      At line 149 in file RTE/Device/MM32SPIN05PF/startup_mm32spin06xx_s_keil.s

SysTick_Handler 00000034

Symbol: SysTick_Handler
   Definitions
      At line 156 in file RTE/Device/MM32SPIN05PF/startup_mm32spin06xx_s_keil.s
   Uses
      At line 51 in file RTE/Device/MM32SPIN05PF/startup_mm32spin06xx_s_keil.s
      At line 157 in file RTE/Device/MM32SPIN05PF/startup_mm32spin06xx_s_keil.s

TIM14_IRQHandler 00000036

Symbol: TIM14_IRQHandler
   Definitions
      At line 209 in file RTE/Device/MM32SPIN05PF/startup_mm32spin06xx_s_keil.s
   Uses
      At line 73 in file RTE/Device/MM32SPIN05PF/startup_mm32spin06xx_s_keil.s
      At line 180 in file RTE/Device/MM32SPIN05PF/startup_mm32spin06xx_s_keil.s

TIM16_IRQHandler 00000036

Symbol: TIM16_IRQHandler
   Definitions
      At line 210 in file RTE/Device/MM32SPIN05PF/startup_mm32spin06xx_s_keil.s



ARM Macro Assembler    Page 5 Alphabetic symbol ordering
Relocatable symbols

   Uses
      At line 75 in file RTE/Device/MM32SPIN05PF/startup_mm32spin06xx_s_keil.s
      At line 181 in file RTE/Device/MM32SPIN05PF/startup_mm32spin06xx_s_keil.s

TIM17_IRQHandler 00000036

Symbol: TIM17_IRQHandler
   Definitions
      At line 211 in file RTE/Device/MM32SPIN05PF/startup_mm32spin06xx_s_keil.s
   Uses
      At line 76 in file RTE/Device/MM32SPIN05PF/startup_mm32spin06xx_s_keil.s
      At line 182 in file RTE/Device/MM32SPIN05PF/startup_mm32spin06xx_s_keil.s

TIM1_BRK_UP_TRG_COM_IRQHandler 00000036

Symbol: TIM1_BRK_UP_TRG_COM_IRQHandler
   Definitions
      At line 205 in file RTE/Device/MM32SPIN05PF/startup_mm32spin06xx_s_keil.s
   Uses
      At line 67 in file RTE/Device/MM32SPIN05PF/startup_mm32spin06xx_s_keil.s
      At line 176 in file RTE/Device/MM32SPIN05PF/startup_mm32spin06xx_s_keil.s

TIM1_CC_IRQHandler 00000036

Symbol: TIM1_CC_IRQHandler
   Definitions
      At line 206 in file RTE/Device/MM32SPIN05PF/startup_mm32spin06xx_s_keil.s
   Uses
      At line 68 in file RTE/Device/MM32SPIN05PF/startup_mm32spin06xx_s_keil.s
      At line 177 in file RTE/Device/MM32SPIN05PF/startup_mm32spin06xx_s_keil.s

TIM2_IRQHandler 00000036

Symbol: TIM2_IRQHandler
   Definitions
      At line 207 in file RTE/Device/MM32SPIN05PF/startup_mm32spin06xx_s_keil.s
   Uses
      At line 69 in file RTE/Device/MM32SPIN05PF/startup_mm32spin06xx_s_keil.s
      At line 178 in file RTE/Device/MM32SPIN05PF/startup_mm32spin06xx_s_keil.s

TIM3_IRQHandler 00000036

Symbol: TIM3_IRQHandler
   Definitions
      At line 208 in file RTE/Device/MM32SPIN05PF/startup_mm32spin06xx_s_keil.s
   Uses
      At line 70 in file RTE/Device/MM32SPIN05PF/startup_mm32spin06xx_s_keil.s
      At line 179 in file RTE/Device/MM32SPIN05PF/startup_mm32spin06xx_s_keil.s

UART1_IRQHandler 00000036

Symbol: UART1_IRQHandler
   Definitions
      At line 215 in file RTE/Device/MM32SPIN05PF/startup_mm32spin06xx_s_keil.s
   Uses
      At line 81 in file RTE/Device/MM32SPIN05PF/startup_mm32spin06xx_s_keil.s
      At line 186 in file RTE/Device/MM32SPIN05PF/startup_mm32spin06xx_s_keil.s

UART2_IRQHandler 00000036



ARM Macro Assembler    Page 6 Alphabetic symbol ordering
Relocatable symbols


Symbol: UART2_IRQHandler
   Definitions
      At line 216 in file RTE/Device/MM32SPIN05PF/startup_mm32spin06xx_s_keil.s
   Uses
      At line 82 in file RTE/Device/MM32SPIN05PF/startup_mm32spin06xx_s_keil.s
      At line 187 in file RTE/Device/MM32SPIN05PF/startup_mm32spin06xx_s_keil.s

WWDG_IRQHandler 00000036

Symbol: WWDG_IRQHandler
   Definitions
      At line 192 in file RTE/Device/MM32SPIN05PF/startup_mm32spin06xx_s_keil.s
   Uses
      At line 54 in file RTE/Device/MM32SPIN05PF/startup_mm32spin06xx_s_keil.s
      At line 163 in file RTE/Device/MM32SPIN05PF/startup_mm32spin06xx_s_keil.s

__user_initial_stackheap 00000038

Symbol: __user_initial_stackheap
   Definitions
      At line 239 in file RTE/Device/MM32SPIN05PF/startup_mm32spin06xx_s_keil.s
   Uses
      At line 237 in file RTE/Device/MM32SPIN05PF/startup_mm32spin06xx_s_keil.s
Comment: __user_initial_stackheap used once
36 symbols



ARM Macro Assembler    Page 1 Alphabetic symbol ordering
Absolute symbols

Heap_Size 00000200

Symbol: Heap_Size
   Definitions
      At line 19 in file RTE/Device/MM32SPIN05PF/startup_mm32spin06xx_s_keil.s
   Uses
      At line 23 in file RTE/Device/MM32SPIN05PF/startup_mm32spin06xx_s_keil.s
      At line 243 in file RTE/Device/MM32SPIN05PF/startup_mm32spin06xx_s_keil.s

Stack_Size 00000400

Symbol: Stack_Size
   Definitions
      At line 8 in file RTE/Device/MM32SPIN05PF/startup_mm32spin06xx_s_keil.s
   Uses
      At line 11 in file RTE/Device/MM32SPIN05PF/startup_mm32spin06xx_s_keil.s
      At line 242 in file RTE/Device/MM32SPIN05PF/startup_mm32spin06xx_s_keil.s

__Vectors_Size 000000C0

Symbol: __Vectors_Size
   Definitions
      At line 90 in file RTE/Device/MM32SPIN05PF/startup_mm32spin06xx_s_keil.s
   Uses
      At line 34 in file RTE/Device/MM32SPIN05PF/startup_mm32spin06xx_s_keil.s
Comment: __Vectors_Size used once
3 symbols



ARM Macro Assembler    Page 1 Alphabetic symbol ordering
External symbols

SystemInit 00000000

Symbol: SystemInit
   Definitions
      At line 98 in file RTE/Device/MM32SPIN05PF/startup_mm32spin06xx_s_keil.s
   Uses
      At line 131 in file RTE/Device/MM32SPIN05PF/startup_mm32spin06xx_s_keil.s
Comment: SystemInit used once
__main 00000000

Symbol: __main
   Definitions
      At line 97 in file RTE/Device/MM32SPIN05PF/startup_mm32spin06xx_s_keil.s
   Uses
      At line 133 in file RTE/Device/MM32SPIN05PF/startup_mm32spin06xx_s_keil.s
Comment: __main used once
__use_two_region_memory 00000000

Symbol: __use_two_region_memory
   Definitions
      At line 236 in file RTE/Device/MM32SPIN05PF/startup_mm32spin06xx_s_keil.s
   Uses
      None
Comment: __use_two_region_memory unused
3 symbols
390 symbols in table
