Component: Arm Compiler for Embedded 6.19 Tool: armlink [5e73cb00]

==============================================================================

Section Cross References

    main.o(.text.main) refers to delay.o(.text.DELAY_Init) for DELAY_Init
    main.o(.text.main) refers to sim_eeprom.o(.text.restorecfg) for restorecfg
    main.o(.text.main) refers to initialize.o(.text.io_init) for io_init
    main.o(.text.main) refers to initialize.o(.text.HALL_Init) for HALL_Init
    main.o(.text.main) refers to aeabi_sdivfast.o(.text_divfast) for __aeabi_uidiv
    main.o(.text.main) refers to initialize.o(.text.HALLTIM_Init) for HALLTIM_Init
    main.o(.text.main) refers to initialize.o(.text.BLDC_init) for BLDC_init
    main.o(.text.main) refers to initialize.o(.text.TIM1_init) for TIM1_init
    main.o(.text.main) refers to initialize.o(.text.NVIC_Configure) for NVIC_Configure
    main.o(.text.main) refers to initialize.o(.text.adc_Init) for adc_Init
    main.o(.text.main) refers to initialize.o(.text.UART_GPIO_Init) for UART_GPIO_Init
    main.o(.text.main) refers to initialize.o(.text.UARTX_Init) for UARTX_Init
    main.o(.text.main) refers to initialize.o(.text.DMA_NVIC_Config) for DMA_NVIC_Config
    main.o(.text.main) refers to hal_rcc.o(.text.RCC_AHBPeriphClockCmd) for RCC_AHBPeriphClockCmd
    main.o(.text.main) refers to delay.o(.text.DELAY_Ms) for DELAY_Ms
    main.o(.text.main) refers to hardware.o(.text.pinMode) for pinMode
    main.o(.text.main) refers to hardware.o(.text.digitalWrite) for digitalWrite
    main.o(.text.main) refers to hardware.o(.text.digitalRead) for digitalRead
    main.o(.text.main) refers to hal_iwdg.o(.text.IWDG_ReloadCounter) for IWDG_ReloadCounter
    main.o(.text.main) refers to hal_adc.o(.text.ADC_SoftwareStartConvCmd) for ADC_SoftwareStartConvCmd
    main.o(.text.main) refers to uart.o(.text.UART_SendString) for UART_SendString
    main.o(.text.main) refers to pwm_gen.o(.text.PWM_GEN_init) for PWM_GEN_init
    main.o(.text.main) refers to foc_math.o(.text.InitNormalization) for InitNormalization
    main.o(.text.main) refers to hallhandle.o(.text.HALLModuleInit) for HALLModuleInit
    main.o(.text.main) refers to pid.o(.text.InitPI) for InitPI
    main.o(.text.main) refers to foc_math.o(.text.MovingAvgInit) for MovingAvgInit
    main.o(.text.main) refers to bldc.o(.text.speedupdate) for speedupdate
    main.o(.text.main) refers to system_mm32spin06xx_s.o(.data.SystemCoreClock) for SystemCoreClock
    main.o(.text.main) refers to main.o(.data.pinstorage) for pinstorage
    main.o(.text.main) refers to main.o(.data.uarten) for uarten
    main.o(.text.main) refers to main.o(.bss.sRxBuffer) for sRxBuffer
    main.o(.text.main) refers to pwm_gen.o(.bss.pwm_gen) for pwm_gen
    main.o(.text.main) refers to foc_math.o(.bss.RP) for RP
    main.o(.text.main) refers to hallhandle.o(.bss.HALL1) for HALL1
    main.o(.text.main) refers to foc_math.o(.bss.IDData) for IDData
    main.o(.text.main) refers to foc_math.o(.bss.IQData) for IQData
    main.o(.text.main) refers to foc_math.o(.bss.SpeedFdk) for SpeedFdk
    main.o(.text.main) refers to main.o(.bss.lastupdate) for lastupdate
    main.o(.text.main) refers to main.o(.bss.millis) for millis
    main.o(.text.main) refers to main.o(.bss.lastflicker) for lastflicker
    main.o(.text.main) refers to main.o(.bss.flicker) for flicker
    main.o(.ARM.exidx.text.main) refers to main.o(.text.main) for [Anonymous Symbol]
    delay.o(.text.DELAY_Init) refers to aeabi_sdivfast.o(.text_divfast) for __aeabi_uidiv
    delay.o(.text.DELAY_Init) refers to system_mm32spin06xx_s.o(.data.SystemCoreClock) for SystemCoreClock
    delay.o(.ARM.exidx.text.DELAY_Init) refers to delay.o(.text.DELAY_Init) for [Anonymous Symbol]
    delay.o(.text.SysTick_Handler) refers to delay.o(.bss.sTimingDelay) for [Anonymous Symbol]
    delay.o(.text.SysTick_Handler) refers to main.o(.bss.millis) for millis
    delay.o(.ARM.exidx.text.SysTick_Handler) refers to delay.o(.text.SysTick_Handler) for [Anonymous Symbol]
    delay.o(.text.DELAY_Ms) refers to delay.o(.bss.sTimingDelay) for [Anonymous Symbol]
    delay.o(.ARM.exidx.text.DELAY_Ms) refers to delay.o(.text.DELAY_Ms) for [Anonymous Symbol]
    bldc.o(.text.hallpos) refers to hardware.o(.text.digitalRead) for digitalRead
    bldc.o(.text.hallpos) refers to main.o(.data.pinstorage) for pinstorage
    bldc.o(.ARM.exidx.text.hallpos) refers to bldc.o(.text.hallpos) for [Anonymous Symbol]
    bldc.o(.text.commutate) refers to hal_tim.o(.text.TIM_CCxCmd) for TIM_CCxCmd
    bldc.o(.text.commutate) refers to hal_tim.o(.text.TIM_CCxNCmd) for TIM_CCxNCmd
    bldc.o(.text.commutate) refers to hal_tim.o(.text.TIM_SelectOCxM) for TIM_SelectOCxM
    bldc.o(.text.commutate) refers to hal_tim.o(.text.TIM_GenerateEvent) for TIM_GenerateEvent
    bldc.o(.text.commutate) refers to bldc.o(.bss.abspwm) for abspwm
    bldc.o(.text.commutate) refers to main.o(.data.step) for step
    bldc.o(.ARM.exidx.text.commutate) refers to bldc.o(.text.commutate) for [Anonymous Symbol]
    bldc.o(.text.speedupdate) refers to remoteuartbus.o(.text.RemoteUpdate) for RemoteUpdate
    bldc.o(.text.speedupdate) refers to calculation.o(.text.avgspeed) for avgspeed
    bldc.o(.text.speedupdate) refers to dflti.o(.text) for __aeabi_i2d
    bldc.o(.text.speedupdate) refers to dfixi.o(.text) for __aeabi_d2iz
    bldc.o(.text.speedupdate) refers to interrupt.o(.bss.poweron) for poweron
    bldc.o(.text.speedupdate) refers to bldc.o(.bss.lastcommutate) for lastcommutate
    bldc.o(.text.speedupdate) refers to main.o(.bss.millis) for millis
    bldc.o(.text.speedupdate) refers to main.o(.bss.frealspeed) for frealspeed
    bldc.o(.text.speedupdate) refers to main.o(.bss.realspeed) for realspeed
    bldc.o(.text.speedupdate) refers to main.o(.bss.speed) for speed
    bldc.o(.text.speedupdate) refers to main.o(.bss.pwm) for pwm
    bldc.o(.text.speedupdate) refers to main.o(.data.dir) for dir
    bldc.o(.text.speedupdate) refers to bldc.o(.bss.abspwm) for abspwm
    bldc.o(.ARM.exidx.text.speedupdate) refers to bldc.o(.text.speedupdate) for [Anonymous Symbol]
    initialize.o(.text.io_init) refers to hal_rcc.o(.text.RCC_AHBPeriphClockCmd) for RCC_AHBPeriphClockCmd
    initialize.o(.text.io_init) refers to hardware.o(.text.pinMode) for pinMode
    initialize.o(.text.io_init) refers to main.o(.data.pinstorage) for pinstorage
    initialize.o(.ARM.exidx.text.io_init) refers to initialize.o(.text.io_init) for [Anonymous Symbol]
    initialize.o(.text.HALL_Init) refers to hardware.o(.text.pinMode) for pinMode
    initialize.o(.text.HALL_Init) refers to main.o(.data.pinstorage) for pinstorage
    initialize.o(.ARM.exidx.text.HALL_Init) refers to initialize.o(.text.HALL_Init) for [Anonymous Symbol]
    initialize.o(.text.HALLTIM_Init) refers to hardware.o(.text.pinModeAF) for pinModeAF
    initialize.o(.text.HALLTIM_Init) refers to hal_rcc.o(.text.RCC_APB1PeriphClockCmd) for RCC_APB1PeriphClockCmd
    initialize.o(.text.HALLTIM_Init) refers to hal_tim.o(.text.TIM_TimeBaseStructInit) for TIM_TimeBaseStructInit
    initialize.o(.text.HALLTIM_Init) refers to hal_tim.o(.text.TIM_TimeBaseInit) for TIM_TimeBaseInit
    initialize.o(.text.HALLTIM_Init) refers to hal_tim.o(.text.TIM_ICStructInit) for TIM_ICStructInit
    initialize.o(.text.HALLTIM_Init) refers to hal_tim.o(.text.TIM_ICInit) for TIM_ICInit
    initialize.o(.text.HALLTIM_Init) refers to hal_tim.o(.text.TIM_ITConfig) for TIM_ITConfig
    initialize.o(.text.HALLTIM_Init) refers to hal_tim.o(.text.TIM_SelectHallSensor) for TIM_SelectHallSensor
    initialize.o(.text.HALLTIM_Init) refers to hal_tim.o(.text.TIM_UpdateRequestConfig) for TIM_UpdateRequestConfig
    initialize.o(.text.HALLTIM_Init) refers to hal_tim.o(.text.TIM_SelectInputTrigger) for TIM_SelectInputTrigger
    initialize.o(.text.HALLTIM_Init) refers to hal_tim.o(.text.TIM_SelectSlaveMode) for TIM_SelectSlaveMode
    initialize.o(.text.HALLTIM_Init) refers to hal_tim.o(.text.TIM_SelectMasterSlaveMode) for TIM_SelectMasterSlaveMode
    initialize.o(.text.HALLTIM_Init) refers to hal_tim.o(.text.TIM_Cmd) for TIM_Cmd
    initialize.o(.text.HALLTIM_Init) refers to hal_misc.o(.text.NVIC_Init) for NVIC_Init
    initialize.o(.text.HALLTIM_Init) refers to hardware.o(.rodata.halltims) for halltims
    initialize.o(.text.HALLTIM_Init) refers to main.o(.data.pinstorage) for pinstorage
    initialize.o(.ARM.exidx.text.HALLTIM_Init) refers to initialize.o(.text.HALLTIM_Init) for [Anonymous Symbol]
    initialize.o(.text.NVIC_Configure) refers to hal_misc.o(.text.NVIC_Init) for NVIC_Init
    initialize.o(.ARM.exidx.text.NVIC_Configure) refers to initialize.o(.text.NVIC_Configure) for [Anonymous Symbol]
    initialize.o(.text.BLDC_init) refers to hal_gpio.o(.text.GPIO_PinAFConfig) for GPIO_PinAFConfig
    initialize.o(.text.BLDC_init) refers to hal_gpio.o(.text.GPIO_StructInit) for GPIO_StructInit
    initialize.o(.text.BLDC_init) refers to hal_gpio.o(.text.GPIO_Init) for GPIO_Init
    initialize.o(.ARM.exidx.text.BLDC_init) refers to initialize.o(.text.BLDC_init) for [Anonymous Symbol]
    initialize.o(.text.TIM1_init) refers to hal_rcc.o(.text.RCC_APB2PeriphClockCmd) for RCC_APB2PeriphClockCmd
    initialize.o(.text.TIM1_init) refers to hal_tim.o(.text.TIM_TimeBaseStructInit) for TIM_TimeBaseStructInit
    initialize.o(.text.TIM1_init) refers to hal_tim.o(.text.TIM_TimeBaseInit) for TIM_TimeBaseInit
    initialize.o(.text.TIM1_init) refers to hal_tim.o(.text.TIM_OCStructInit) for TIM_OCStructInit
    initialize.o(.text.TIM1_init) refers to hal_tim.o(.text.TIM_OC1Init) for TIM_OC1Init
    initialize.o(.text.TIM1_init) refers to hal_tim.o(.text.TIM_OC2Init) for TIM_OC2Init
    initialize.o(.text.TIM1_init) refers to hal_tim.o(.text.TIM_OC3Init) for TIM_OC3Init
    initialize.o(.text.TIM1_init) refers to hal_tim.o(.text.TIM_OC4Init) for TIM_OC4Init
    initialize.o(.text.TIM1_init) refers to hal_tim.o(.text.TIM_CCPreloadControl) for TIM_CCPreloadControl
    initialize.o(.text.TIM1_init) refers to hal_tim.o(.text.TIM_ITConfig) for TIM_ITConfig
    initialize.o(.text.TIM1_init) refers to hal_tim.o(.text.TIM_CtrlPWMOutputs) for TIM_CtrlPWMOutputs
    initialize.o(.text.TIM1_init) refers to hal_tim.o(.text.TIM_BDTRStructInit) for TIM_BDTRStructInit
    initialize.o(.text.TIM1_init) refers to hal_tim.o(.text.TIM_BDTRConfig) for TIM_BDTRConfig
    initialize.o(.text.TIM1_init) refers to hardware.o(.text.pinMode) for pinMode
    initialize.o(.text.TIM1_init) refers to hardware.o(.text.pinModeAF) for pinModeAF
    initialize.o(.text.TIM1_init) refers to hal_tim.o(.text.TIM_Cmd) for TIM_Cmd
    initialize.o(.text.TIM1_init) refers to main.o(.data.pinstorage) for pinstorage
    initialize.o(.text.TIM1_init) refers to hardware.o(.rodata.ocps) for ocps
    initialize.o(.ARM.exidx.text.TIM1_init) refers to initialize.o(.text.TIM1_init) for [Anonymous Symbol]
    initialize.o(.text.UARTX_Init) refers to hal_rcc.o(.text.RCC_APB2PeriphClockCmd) for RCC_APB2PeriphClockCmd
    initialize.o(.text.UARTX_Init) refers to hal_rcc.o(.text.RCC_APB1PeriphClockCmd) for RCC_APB1PeriphClockCmd
    initialize.o(.text.UARTX_Init) refers to hal_uart.o(.text.UART_StructInit) for UART_StructInit
    initialize.o(.text.UARTX_Init) refers to hal_uart.o(.text.UART_Init) for UART_Init
    initialize.o(.text.UARTX_Init) refers to hal_uart.o(.text.UART_Cmd) for UART_Cmd
    initialize.o(.text.UARTX_Init) refers to hal_uart.o(.text.UART_DMACmd) for UART_DMACmd
    initialize.o(.ARM.exidx.text.UARTX_Init) refers to initialize.o(.text.UARTX_Init) for [Anonymous Symbol]
    initialize.o(.text.UART_GPIO_Init) refers to hardware.o(.text.pinMode) for pinMode
    initialize.o(.text.UART_GPIO_Init) refers to hardware.o(.text.pinModeAF) for pinModeAF
    initialize.o(.text.UART_GPIO_Init) refers to hardware.o(.rodata.uarts) for uarts
    initialize.o(.text.UART_GPIO_Init) refers to main.o(.data.pinstorage) for pinstorage
    initialize.o(.ARM.exidx.text.UART_GPIO_Init) refers to initialize.o(.text.UART_GPIO_Init) for [Anonymous Symbol]
    initialize.o(.text.DMA_NVIC_Config) refers to hal_rcc.o(.text.RCC_AHBPeriphClockCmd) for RCC_AHBPeriphClockCmd
    initialize.o(.text.DMA_NVIC_Config) refers to hal_dma.o(.text.DMA_DeInit) for DMA_DeInit
    initialize.o(.text.DMA_NVIC_Config) refers to hal_dma.o(.text.DMA_StructInit) for DMA_StructInit
    initialize.o(.text.DMA_NVIC_Config) refers to hal_dma.o(.text.DMA_Init) for DMA_Init
    initialize.o(.text.DMA_NVIC_Config) refers to hal_dma.o(.text.DMA_ITConfig) for DMA_ITConfig
    initialize.o(.text.DMA_NVIC_Config) refers to hal_dma.o(.text.DMA_Cmd) for DMA_Cmd
    initialize.o(.ARM.exidx.text.DMA_NVIC_Config) refers to initialize.o(.text.DMA_NVIC_Config) for [Anonymous Symbol]
    initialize.o(.text.adc_Init) refers to hal_rcc.o(.text.RCC_APB2PeriphClockCmd) for RCC_APB2PeriphClockCmd
    initialize.o(.text.adc_Init) refers to hal_adc.o(.text.ADC_Init) for ADC_Init
    initialize.o(.text.adc_Init) refers to hal_adc.o(.text.ADC_ExternalTrigConvCmd) for ADC_ExternalTrigConvCmd
    initialize.o(.text.adc_Init) refers to hal_adc.o(.text.ADC_RegularChannelConfig) for ADC_RegularChannelConfig
    initialize.o(.text.adc_Init) refers to hal_adc.o(.text.ADC_VrefintCmd) for ADC_VrefintCmd
    initialize.o(.text.adc_Init) refers to hal_adc.o(.text.ADC_Cmd) for ADC_Cmd
    initialize.o(.text.adc_Init) refers to hardware.o(.text.pinMode) for pinMode
    initialize.o(.text.adc_Init) refers to hal_adc.o(.text.ADC_ITConfig) for ADC_ITConfig
    initialize.o(.text.adc_Init) refers to main.o(.data.pinstorage) for pinstorage
    initialize.o(.text.adc_Init) refers to hardware.o(.rodata.adcs) for adcs
    initialize.o(.ARM.exidx.text.adc_Init) refers to initialize.o(.text.adc_Init) for [Anonymous Symbol]
    initialize.o(.text.Iwdg_Init) refers to hal_rcc.o(.text.RCC_LSICmd) for RCC_LSICmd
    initialize.o(.text.Iwdg_Init) refers to hal_rcc.o(.text.RCC_GetFlagStatus) for RCC_GetFlagStatus
    initialize.o(.text.Iwdg_Init) refers to hal_iwdg.o(.text.PVU_CheckStatus) for PVU_CheckStatus
    initialize.o(.text.Iwdg_Init) refers to hal_iwdg.o(.text.IWDG_WriteAccessCmd) for IWDG_WriteAccessCmd
    initialize.o(.text.Iwdg_Init) refers to hal_iwdg.o(.text.IWDG_SetPrescaler) for IWDG_SetPrescaler
    initialize.o(.text.Iwdg_Init) refers to hal_iwdg.o(.text.RVU_CheckStatus) for RVU_CheckStatus
    initialize.o(.text.Iwdg_Init) refers to hal_iwdg.o(.text.IWDG_SetReload) for IWDG_SetReload
    initialize.o(.text.Iwdg_Init) refers to hal_iwdg.o(.text.IWDG_ReloadCounter) for IWDG_ReloadCounter
    initialize.o(.text.Iwdg_Init) refers to hal_iwdg.o(.text.IWDG_Enable) for IWDG_Enable
    initialize.o(.ARM.exidx.text.Iwdg_Init) refers to initialize.o(.text.Iwdg_Init) for [Anonymous Symbol]
    interrupt.o(.text.TIM1_BRK_UP_TRG_COM_IRQHandler) refers to hal_tim.o(.text.TIM_ClearITPendingBit) for TIM_ClearITPendingBit
    interrupt.o(.ARM.exidx.text.TIM1_BRK_UP_TRG_COM_IRQHandler) refers to interrupt.o(.text.TIM1_BRK_UP_TRG_COM_IRQHandler) for [Anonymous Symbol]
    interrupt.o(.text.DMA1_Channel2_3_IRQHandler) refers to hal_dma.o(.text.DMA_GetITStatus) for DMA_GetITStatus
    interrupt.o(.text.DMA1_Channel2_3_IRQHandler) refers to hal_dma.o(.text.DMA_ClearITPendingBit) for DMA_ClearITPendingBit
    interrupt.o(.text.DMA1_Channel2_3_IRQHandler) refers to remoteuartbus.o(.text.serialit) for serialit
    interrupt.o(.ARM.exidx.text.DMA1_Channel2_3_IRQHandler) refers to interrupt.o(.text.DMA1_Channel2_3_IRQHandler) for [Anonymous Symbol]
    interrupt.o(.text.DMA1_Channel4_5_IRQHandler) refers to hal_dma.o(.text.DMA_GetITStatus) for DMA_GetITStatus
    interrupt.o(.text.DMA1_Channel4_5_IRQHandler) refers to hal_dma.o(.text.DMA_ClearITPendingBit) for DMA_ClearITPendingBit
    interrupt.o(.text.DMA1_Channel4_5_IRQHandler) refers to remoteuartbus.o(.text.serialit) for serialit
    interrupt.o(.ARM.exidx.text.DMA1_Channel4_5_IRQHandler) refers to interrupt.o(.text.DMA1_Channel4_5_IRQHandler) for [Anonymous Symbol]
    interrupt.o(.text.ADC1_COMP_IRQHandler) refers to hal_adc.o(.text.ADC_GetFlagStatus) for ADC_GetFlagStatus
    interrupt.o(.text.ADC1_COMP_IRQHandler) refers to hal_adc.o(.text.ADC_ClearFlag) for ADC_ClearFlag
    interrupt.o(.text.ADC1_COMP_IRQHandler) refers to hal_tim.o(.text.TIM_GenerateEvent) for TIM_GenerateEvent
    interrupt.o(.text.ADC1_COMP_IRQHandler) refers to hal_adc.o(.text.ADC_GetITStatus) for ADC_GetITStatus
    interrupt.o(.text.ADC1_COMP_IRQHandler) refers to hardware.o(.text.analogRead) for analogRead
    interrupt.o(.text.ADC1_COMP_IRQHandler) refers to hal_adc.o(.text.ADC_AnalogWatchdogCmd) for ADC_AnalogWatchdogCmd
    interrupt.o(.text.ADC1_COMP_IRQHandler) refers to hal_adc.o(.text.ADC_AnalogWatchdogThresholdsConfig) for ADC_AnalogWatchdogThresholdsConfig
    interrupt.o(.text.ADC1_COMP_IRQHandler) refers to dflti.o(.text) for __aeabi_i2d
    interrupt.o(.text.ADC1_COMP_IRQHandler) refers to ddiv.o(.text) for __aeabi_ddiv
    interrupt.o(.text.ADC1_COMP_IRQHandler) refers to d2f.o(.text) for __aeabi_d2f
    interrupt.o(.text.ADC1_COMP_IRQHandler) refers to dmul.o(.text) for __aeabi_dmul
    interrupt.o(.text.ADC1_COMP_IRQHandler) refers to f2d.o(.text) for __aeabi_f2d
    interrupt.o(.text.ADC1_COMP_IRQHandler) refers to dfixi.o(.text) for __aeabi_d2iz
    interrupt.o(.text.ADC1_COMP_IRQHandler) refers to calculation.o(.text.avgvbat) for avgvbat
    interrupt.o(.text.ADC1_COMP_IRQHandler) refers to calculation.o(.text.avgItotal) for avgItotal
    interrupt.o(.text.ADC1_COMP_IRQHandler) refers to bldc.o(.text.hallpos) for hallpos
    interrupt.o(.text.ADC1_COMP_IRQHandler) refers to hallhandle.o(.text.HALLModuleCalc) for HALLModuleCalc
    interrupt.o(.text.ADC1_COMP_IRQHandler) refers to clarke.o(.text.CLARKE_MACRO1) for CLARKE_MACRO1
    interrupt.o(.text.ADC1_COMP_IRQHandler) refers to park.o(.text.PARK_MACRO1) for PARK_MACRO1
    interrupt.o(.text.ADC1_COMP_IRQHandler) refers to foc_math.o(.text.MovingAvgCal) for MovingAvgCal
    interrupt.o(.text.ADC1_COMP_IRQHandler) refers to pid.o(.text.CalcPI) for CalcPI
    interrupt.o(.text.ADC1_COMP_IRQHandler) refers to ipark.o(.text.IPARK_MACRO1) for IPARK_MACRO1
    interrupt.o(.text.ADC1_COMP_IRQHandler) refers to pwm_gen.o(.text.PWM_GEN_calc) for PWM_GEN_calc
    interrupt.o(.text.ADC1_COMP_IRQHandler) refers to pwm_gen.o(.text.Update_PWM) for Update_PWM
    interrupt.o(.text.ADC1_COMP_IRQHandler) refers to hal_adc.o(.text.ADC_AnalogWatchdogSingleChannelConfig) for ADC_AnalogWatchdogSingleChannelConfig
    interrupt.o(.text.ADC1_COMP_IRQHandler) refers to hal_adc.o(.text.ADC_ITConfig) for ADC_ITConfig
    interrupt.o(.text.ADC1_COMP_IRQHandler) refers to hal_adc.o(.text.ADC_ClearITPendingBit) for ADC_ClearITPendingBit
    interrupt.o(.text.ADC1_COMP_IRQHandler) refers to interrupt.o(.bss.poweron) for poweron
    interrupt.o(.text.ADC1_COMP_IRQHandler) refers to interrupt.o(.bss.vcc) for vcc
    interrupt.o(.text.ADC1_COMP_IRQHandler) refers to main.o(.data.pinstorage) for pinstorage
    interrupt.o(.text.ADC1_COMP_IRQHandler) refers to main.o(.bss.vbat) for vbat
    interrupt.o(.text.ADC1_COMP_IRQHandler) refers to interrupt.o(.bss.itotaloffset) for itotaloffset
    interrupt.o(.text.ADC1_COMP_IRQHandler) refers to main.o(.bss.itotal) for itotal
    interrupt.o(.text.ADC1_COMP_IRQHandler) refers to interrupt.o(.bss.iphaseaoffset) for iphaseaoffset
    interrupt.o(.text.ADC1_COMP_IRQHandler) refers to interrupt.o(.bss.iphasea) for iphasea
    interrupt.o(.text.ADC1_COMP_IRQHandler) refers to interrupt.o(.bss.iphaseboffset) for iphaseboffset
    interrupt.o(.text.ADC1_COMP_IRQHandler) refers to interrupt.o(.bss.iphaseb) for iphaseb
    interrupt.o(.text.ADC1_COMP_IRQHandler) refers to main.o(.data.dir) for dir
    interrupt.o(.text.ADC1_COMP_IRQHandler) refers to bldc.o(.rodata.hall_to_pos) for hall_to_pos
    interrupt.o(.text.ADC1_COMP_IRQHandler) refers to main.o(.data.hallposprev) for hallposprev
    interrupt.o(.text.ADC1_COMP_IRQHandler) refers to interrupt.o(.bss.realdir) for realdir
    interrupt.o(.text.ADC1_COMP_IRQHandler) refers to hallhandle.o(.bss.HALL1) for HALL1
    interrupt.o(.text.ADC1_COMP_IRQHandler) refers to clarke.o(.bss.clarke1) for clarke1
    interrupt.o(.text.ADC1_COMP_IRQHandler) refers to park.o(.bss.park1) for park1
    interrupt.o(.text.ADC1_COMP_IRQHandler) refers to foc_math.o(.bss.IDData) for IDData
    interrupt.o(.text.ADC1_COMP_IRQHandler) refers to foc_math.o(.bss.IQData) for IQData
    interrupt.o(.text.ADC1_COMP_IRQHandler) refers to pid.o(.bss.CurID) for CurID
    interrupt.o(.text.ADC1_COMP_IRQHandler) refers to pid.o(.bss.Speed) for Speed
    interrupt.o(.text.ADC1_COMP_IRQHandler) refers to pid.o(.bss.CurIQ) for CurIQ
    interrupt.o(.text.ADC1_COMP_IRQHandler) refers to ipark.o(.bss.ipark1) for ipark1
    interrupt.o(.text.ADC1_COMP_IRQHandler) refers to main.o(.bss.pwm) for pwm
    interrupt.o(.text.ADC1_COMP_IRQHandler) refers to interrupt.o(.bss.TestAngle) for TestAngle
    interrupt.o(.text.ADC1_COMP_IRQHandler) refers to pwm_gen.o(.bss.pwm_gen) for pwm_gen
    interrupt.o(.text.ADC1_COMP_IRQHandler) refers to hardware.o(.rodata.adcs) for adcs
    interrupt.o(.ARM.exidx.text.ADC1_COMP_IRQHandler) refers to interrupt.o(.text.ADC1_COMP_IRQHandler) for [Anonymous Symbol]
    interrupt.o(.text.TIM2_IRQHandler) refers to hal_tim.o(.text.TIM_GetITStatus) for TIM_GetITStatus
    interrupt.o(.text.TIM2_IRQHandler) refers to calculation.o(.text.updateMotorRPM) for updateMotorRPM
    interrupt.o(.text.TIM2_IRQHandler) refers to hal_tim.o(.text.TIM_ClearITPendingBit) for TIM_ClearITPendingBit
    interrupt.o(.text.TIM2_IRQHandler) refers to main.o(.bss.realspeed) for realspeed
    interrupt.o(.text.TIM2_IRQHandler) refers to interrupt.o(.bss.realdir) for realdir
    interrupt.o(.text.TIM2_IRQHandler) refers to main.o(.bss.millis) for millis
    interrupt.o(.text.TIM2_IRQHandler) refers to bldc.o(.bss.lastcommutate) for lastcommutate
    interrupt.o(.text.TIM2_IRQHandler) refers to main.o(.bss.iOdom) for iOdom
    interrupt.o(.ARM.exidx.text.TIM2_IRQHandler) refers to interrupt.o(.text.TIM2_IRQHandler) for [Anonymous Symbol]
    interrupt.o(.text.TIM3_IRQHandler) refers to hal_tim.o(.text.TIM_GetITStatus) for TIM_GetITStatus
    interrupt.o(.text.TIM3_IRQHandler) refers to calculation.o(.text.updateMotorRPM) for updateMotorRPM
    interrupt.o(.text.TIM3_IRQHandler) refers to hal_tim.o(.text.TIM_ClearITPendingBit) for TIM_ClearITPendingBit
    interrupt.o(.text.TIM3_IRQHandler) refers to main.o(.bss.realspeed) for realspeed
    interrupt.o(.text.TIM3_IRQHandler) refers to interrupt.o(.bss.realdir) for realdir
    interrupt.o(.text.TIM3_IRQHandler) refers to main.o(.bss.millis) for millis
    interrupt.o(.text.TIM3_IRQHandler) refers to bldc.o(.bss.lastcommutate) for lastcommutate
    interrupt.o(.text.TIM3_IRQHandler) refers to main.o(.bss.iOdom) for iOdom
    interrupt.o(.ARM.exidx.text.TIM3_IRQHandler) refers to interrupt.o(.text.TIM3_IRQHandler) for [Anonymous Symbol]
    uart.o(.text.UART_Send_Byte) refers to hal_uart.o(.text.UART_SendData) for UART_SendData
    uart.o(.text.UART_Send_Byte) refers to hal_uart.o(.text.UART_GetFlagStatus) for UART_GetFlagStatus
    uart.o(.text.UART_Send_Byte) refers to main.o(.data.uarten) for uarten
    uart.o(.ARM.exidx.text.UART_Send_Byte) refers to uart.o(.text.UART_Send_Byte) for [Anonymous Symbol]
    uart.o(.text.UART_Send_Group) refers to hal_uart.o(.text.UART_SendData) for UART_SendData
    uart.o(.text.UART_Send_Group) refers to hal_uart.o(.text.UART_GetFlagStatus) for UART_GetFlagStatus
    uart.o(.text.UART_Send_Group) refers to main.o(.data.uarten) for uarten
    uart.o(.ARM.exidx.text.UART_Send_Group) refers to uart.o(.text.UART_Send_Group) for [Anonymous Symbol]
    uart.o(.text.UART_SendString) refers to hal_uart.o(.text.UART_SendData) for UART_SendData
    uart.o(.text.UART_SendString) refers to hal_uart.o(.text.UART_GetFlagStatus) for UART_GetFlagStatus
    uart.o(.text.UART_SendString) refers to main.o(.data.uarten) for uarten
    uart.o(.ARM.exidx.text.UART_SendString) refers to uart.o(.text.UART_SendString) for [Anonymous Symbol]
    remoteuartbus.o(.ARM.exidx.text.CalcCRC) refers to remoteuartbus.o(.text.CalcCRC) for [Anonymous Symbol]
    remoteuartbus.o(.text.RemoteUpdate) refers to uart.o(.text.UART_Send_Group) for UART_Send_Group
    remoteuartbus.o(.text.RemoteUpdate) refers to main.o(.data.pinstorage) for pinstorage
    remoteuartbus.o(.text.RemoteUpdate) refers to remoteuartbus.o(.bss.iTimeLastRx) for iTimeLastRx
    remoteuartbus.o(.text.RemoteUpdate) refers to main.o(.bss.millis) for millis
    remoteuartbus.o(.text.RemoteUpdate) refers to main.o(.bss.speed) for speed
    remoteuartbus.o(.text.RemoteUpdate) refers to remoteuartbus.o(.bss.bAnswerMaster) for bAnswerMaster
    remoteuartbus.o(.text.RemoteUpdate) refers to main.o(.bss.fvbat) for fvbat
    remoteuartbus.o(.text.RemoteUpdate) refers to main.o(.bss.fitotal) for fitotal
    remoteuartbus.o(.text.RemoteUpdate) refers to main.o(.bss.iOdom) for iOdom
    remoteuartbus.o(.text.RemoteUpdate) refers to main.o(.bss.frealspeed) for frealspeed
    remoteuartbus.o(.ARM.exidx.text.RemoteUpdate) refers to remoteuartbus.o(.text.RemoteUpdate) for [Anonymous Symbol]
    remoteuartbus.o(.text.AnswerMaster) refers to uart.o(.text.UART_Send_Group) for UART_Send_Group
    remoteuartbus.o(.text.AnswerMaster) refers to main.o(.bss.fvbat) for fvbat
    remoteuartbus.o(.text.AnswerMaster) refers to main.o(.bss.fitotal) for fitotal
    remoteuartbus.o(.text.AnswerMaster) refers to main.o(.bss.iOdom) for iOdom
    remoteuartbus.o(.text.AnswerMaster) refers to main.o(.data.pinstorage) for pinstorage
    remoteuartbus.o(.text.AnswerMaster) refers to main.o(.bss.frealspeed) for frealspeed
    remoteuartbus.o(.ARM.exidx.text.AnswerMaster) refers to remoteuartbus.o(.text.AnswerMaster) for [Anonymous Symbol]
    remoteuartbus.o(.text.serialit) refers to remoteuartbus.o(.bss.iReceivePos) for [Anonymous Symbol]
    remoteuartbus.o(.text.serialit) refers to main.o(.bss.sRxBuffer) for sRxBuffer
    remoteuartbus.o(.text.serialit) refers to remoteuartbus.o(.bss.aReceiveBuffer) for [Anonymous Symbol]
    remoteuartbus.o(.text.serialit) refers to remoteuartbus.o(.bss.iRxDataSize) for iRxDataSize
    remoteuartbus.o(.text.serialit) refers to main.o(.data.pinstorage) for pinstorage
    remoteuartbus.o(.text.serialit) refers to main.o(.bss.millis) for millis
    remoteuartbus.o(.text.serialit) refers to remoteuartbus.o(.bss.iTimeLastRx) for iTimeLastRx
    remoteuartbus.o(.text.serialit) refers to remoteuartbus.o(.bss.iRxDataType) for iRxDataType
    remoteuartbus.o(.text.serialit) refers to main.o(.bss.wState) for wState
    remoteuartbus.o(.text.serialit) refers to main.o(.bss.speed) for speed
    remoteuartbus.o(.text.serialit) refers to remoteuartbus.o(.bss.bAnswerMaster) for bAnswerMaster
    remoteuartbus.o(.ARM.exidx.text.serialit) refers to remoteuartbus.o(.text.serialit) for [Anonymous Symbol]
    calculation.o(.text.PIDrst) refers to calculation.o(.bss.qdSum) for qdSum
    calculation.o(.text.PIDrst) refers to calculation.o(.bss.prevpwm) for prevpwm
    calculation.o(.text.PIDrst) refers to calculation.o(.bss.lasterr) for lasterr
    calculation.o(.ARM.exidx.text.PIDrst) refers to calculation.o(.text.PIDrst) for [Anonymous Symbol]
    calculation.o(.text.PID) refers to aeabi_sdivfast.o(.text_divfast) for __aeabi_idiv
    calculation.o(.text.PID) refers to calculation.o(.bss.qdSum) for qdSum
    calculation.o(.text.PID) refers to calculation.o(.data.max) for max
    calculation.o(.text.PID) refers to calculation.o(.data.min) for min
    calculation.o(.text.PID) refers to calculation.o(.bss.lasterr) for lasterr
    calculation.o(.ARM.exidx.text.PID) refers to calculation.o(.text.PID) for [Anonymous Symbol]
    calculation.o(.text.avgspeed) refers to calculation.o(.bss.index) for index
    calculation.o(.text.avgspeed) refers to calculation.o(.bss.avgarr) for avgarr
    calculation.o(.text.avgspeed) refers to main.o(.bss.realspeed) for realspeed
    calculation.o(.text.avgspeed) refers to calculation.o(.bss.datasum) for datasum
    calculation.o(.text.avgspeed) refers to main.o(.bss.frealspeed) for frealspeed
    calculation.o(.ARM.exidx.text.avgspeed) refers to calculation.o(.text.avgspeed) for [Anonymous Symbol]
    calculation.o(.text.avgvbat) refers to calculation.o(.bss.vindex) for vindex
    calculation.o(.text.avgvbat) refers to calculation.o(.bss.vavgarr) for vavgarr
    calculation.o(.text.avgvbat) refers to main.o(.bss.vbat) for vbat
    calculation.o(.text.avgvbat) refers to calculation.o(.bss.vdatasum) for vdatasum
    calculation.o(.text.avgvbat) refers to main.o(.bss.fvbat) for fvbat
    calculation.o(.ARM.exidx.text.avgvbat) refers to calculation.o(.text.avgvbat) for [Anonymous Symbol]
    calculation.o(.text.avgItotal) refers to calculation.o(.bss.aindex) for aindex
    calculation.o(.text.avgItotal) refers to calculation.o(.bss.aavgarr) for aavgarr
    calculation.o(.text.avgItotal) refers to main.o(.bss.itotal) for itotal
    calculation.o(.text.avgItotal) refers to calculation.o(.bss.adatasum) for adatasum
    calculation.o(.text.avgItotal) refers to main.o(.bss.fitotal) for fitotal
    calculation.o(.ARM.exidx.text.avgItotal) refers to calculation.o(.text.avgItotal) for [Anonymous Symbol]
    calculation.o(.text.PID2PWM) refers to aeabi_sdivfast.o(.text_divfast) for __aeabi_idiv
    calculation.o(.text.PID2PWM) refers to calculation.o(.bss.prevpwm) for prevpwm
    calculation.o(.text.PID2PWM) refers to calculation.o(.data.max) for max
    calculation.o(.text.PID2PWM) refers to calculation.o(.data.min) for min
    calculation.o(.text.PID2PWM) refers to main.o(.data.pinstorage) for pinstorage
    calculation.o(.ARM.exidx.text.PID2PWM) refers to calculation.o(.text.PID2PWM) for [Anonymous Symbol]
    calculation.o(.text.updateMotorRPM) refers to aeabi_sdivfast.o(.text_divfast) for __aeabi_uidiv
    calculation.o(.text.updateMotorRPM) refers to main.o(.data.pinstorage) for pinstorage
    calculation.o(.ARM.exidx.text.updateMotorRPM) refers to calculation.o(.text.updateMotorRPM) for [Anonymous Symbol]
    hardware.o(.text.pinMode) refers to hal_gpio.o(.text.GPIO_Init) for GPIO_Init
    hardware.o(.text.pinMode) refers to hardware.o(.rodata.pins) for pins
    hardware.o(.text.pinMode) refers to hardware.o(.bss.GPIO_InitStruct) for GPIO_InitStruct
    hardware.o(.ARM.exidx.text.pinMode) refers to hardware.o(.text.pinMode) for [Anonymous Symbol]
    hardware.o(.text.pinModeAF) refers to hal_gpio.o(.text.GPIO_PinAFConfig) for GPIO_PinAFConfig
    hardware.o(.text.pinModeAF) refers to hardware.o(.rodata.pins) for pins
    hardware.o(.ARM.exidx.text.pinModeAF) refers to hardware.o(.text.pinModeAF) for [Anonymous Symbol]
    hardware.o(.text.digitalRead) refers to hal_gpio.o(.text.GPIO_ReadInputDataBit) for GPIO_ReadInputDataBit
    hardware.o(.text.digitalRead) refers to hardware.o(.rodata.pins) for pins
    hardware.o(.ARM.exidx.text.digitalRead) refers to hardware.o(.text.digitalRead) for [Anonymous Symbol]
    hardware.o(.text.digitalWrite) refers to hal_gpio.o(.text.GPIO_WriteBit) for GPIO_WriteBit
    hardware.o(.text.digitalWrite) refers to hardware.o(.rodata.pins) for pins
    hardware.o(.ARM.exidx.text.digitalWrite) refers to hardware.o(.text.digitalWrite) for [Anonymous Symbol]
    hardware.o(.text.analogRead) refers to hardware.o(.rodata.adcs) for adcs
    hardware.o(.ARM.exidx.text.analogRead) refers to hardware.o(.text.analogRead) for [Anonymous Symbol]
    sim_eeprom.o(.text.FLASH_SIM_WriteLocate) refers to aeabi_sdivfast.o(.text_divfast) for __aeabi_uidiv
    sim_eeprom.o(.ARM.exidx.text.FLASH_SIM_WriteLocate) refers to sim_eeprom.o(.text.FLASH_SIM_WriteLocate) for [Anonymous Symbol]
    sim_eeprom.o(.text.FLASH_SIM_EEPROM_Init) refers to hal_flash.o(.text.FLASH_Unlock) for FLASH_Unlock
    sim_eeprom.o(.text.FLASH_SIM_EEPROM_Init) refers to hal_flash.o(.text.FLASH_ErasePage) for FLASH_ErasePage
    sim_eeprom.o(.text.FLASH_SIM_EEPROM_Init) refers to hal_flash.o(.text.FLASH_Lock) for FLASH_Lock
    sim_eeprom.o(.ARM.exidx.text.FLASH_SIM_EEPROM_Init) refers to sim_eeprom.o(.text.FLASH_SIM_EEPROM_Init) for [Anonymous Symbol]
    sim_eeprom.o(.text.EEPROM_Read) refers to aeabi_sdivfast.o(.text_divfast) for __aeabi_uidiv
    sim_eeprom.o(.text.EEPROM_Read) refers to rt_memcpy.o(.text) for __aeabi_memcpy
    sim_eeprom.o(.ARM.exidx.text.EEPROM_Read) refers to sim_eeprom.o(.text.EEPROM_Read) for [Anonymous Symbol]
    sim_eeprom.o(.text.EEPROM_Write) refers to aeabi_sdivfast.o(.text_divfast) for __aeabi_uidiv
    sim_eeprom.o(.text.EEPROM_Write) refers to hal_flash.o(.text.FLASH_Unlock) for FLASH_Unlock
    sim_eeprom.o(.text.EEPROM_Write) refers to hal_flash.o(.text.FLASH_ErasePage) for FLASH_ErasePage
    sim_eeprom.o(.text.EEPROM_Write) refers to hal_flash.o(.text.FLASH_Lock) for FLASH_Lock
    sim_eeprom.o(.text.EEPROM_Write) refers to hal_flash.o(.text.FLASH_ProgramHalfWord) for FLASH_ProgramHalfWord
    sim_eeprom.o(.ARM.exidx.text.EEPROM_Write) refers to sim_eeprom.o(.text.EEPROM_Write) for [Anonymous Symbol]
    sim_eeprom.o(.text.FLASH_SIM_EEPROM_Test) refers to sim_eeprom.o(.text.EEPROM_Write) for EEPROM_Write
    sim_eeprom.o(.ARM.exidx.text.FLASH_SIM_EEPROM_Test) refers to sim_eeprom.o(.text.FLASH_SIM_EEPROM_Test) for [Anonymous Symbol]
    sim_eeprom.o(.text.restorecfg) refers to rt_memcpy.o(.text) for __aeabi_memcpy
    sim_eeprom.o(.text.restorecfg) refers to main.o(.data.pinstorage) for pinstorage
    sim_eeprom.o(.ARM.exidx.text.restorecfg) refers to sim_eeprom.o(.text.restorecfg) for [Anonymous Symbol]
    ipark.o(.text.IPARK_MACRO1) refers to foc_math.o(.text.MCM_Trig_Functions) for MCM_Trig_Functions
    ipark.o(.ARM.exidx.text.IPARK_MACRO1) refers to ipark.o(.text.IPARK_MACRO1) for [Anonymous Symbol]
    pwm_gen.o(.text.PWM_GEN_init) refers to main.o(.data.pinstorage) for pinstorage
    pwm_gen.o(.ARM.exidx.text.PWM_GEN_init) refers to pwm_gen.o(.text.PWM_GEN_init) for [Anonymous Symbol]
    pwm_gen.o(.ARM.exidx.text.PWM_GEN_calc) refers to pwm_gen.o(.text.PWM_GEN_calc) for [Anonymous Symbol]
    pwm_gen.o(.ARM.exidx.text.Update_PWM) refers to pwm_gen.o(.text.Update_PWM) for [Anonymous Symbol]
    foc_math.o(.text.MCM_Trig_Functions) refers to foc_math.o(.rodata.hSin_Cos_Table) for hSin_Cos_Table
    foc_math.o(.ARM.exidx.text.MCM_Trig_Functions) refers to foc_math.o(.text.MCM_Trig_Functions) for [Anonymous Symbol]
    foc_math.o(.text.MCM_Sqrt) refers to aeabi_sdivfast.o(.text_divfast) for __aeabi_idiv
    foc_math.o(.ARM.exidx.text.MCM_Sqrt) refers to foc_math.o(.text.MCM_Sqrt) for [Anonymous Symbol]
    foc_math.o(.text.arctan2) refers to aeabi_sdivfast.o(.text_divfast) for __aeabi_uidiv
    foc_math.o(.ARM.exidx.text.arctan2) refers to foc_math.o(.text.arctan2) for [Anonymous Symbol]
    foc_math.o(.text.MovingAvgInit) refers to rt_memclr.o(.text) for __aeabi_memclr
    foc_math.o(.ARM.exidx.text.MovingAvgInit) refers to foc_math.o(.text.MovingAvgInit) for [Anonymous Symbol]
    foc_math.o(.ARM.exidx.text.MovingAvgCal) refers to foc_math.o(.text.MovingAvgCal) for [Anonymous Symbol]
    foc_math.o(.text.LoopCmp_Init) refers to foc_math.o(.bss.RPValue) for RPValue
    foc_math.o(.ARM.exidx.text.LoopCmp_Init) refers to foc_math.o(.text.LoopCmp_Init) for [Anonymous Symbol]
    foc_math.o(.ARM.exidx.text.LoopCmp_Cal) refers to foc_math.o(.text.LoopCmp_Cal) for [Anonymous Symbol]
    foc_math.o(.text.InitNormalization) refers to fflti.o(.text) for __aeabi_ui2f
    foc_math.o(.text.InitNormalization) refers to fdiv.o(.text) for __aeabi_fdiv
    foc_math.o(.ARM.exidx.text.InitNormalization) refers to foc_math.o(.text.InitNormalization) for [Anonymous Symbol]
    foc_math.o(.text.CalcNormalization) refers to fflti.o(.text) for __aeabi_i2f
    foc_math.o(.text.CalcNormalization) refers to fmul.o(x$fpl$fmul) for __aeabi_fmul
    foc_math.o(.text.CalcNormalization) refers to ffixi.o(.text) for __aeabi_f2iz
    foc_math.o(.ARM.exidx.text.CalcNormalization) refers to foc_math.o(.text.CalcNormalization) for [Anonymous Symbol]
    clarke.o(.ARM.exidx.text.CLARKE_MACRO1) refers to clarke.o(.text.CLARKE_MACRO1) for [Anonymous Symbol]
    hallhandle.o(.text.HALLModuleInit) refers to bldc.o(.text.hallpos) for hallpos
    hallhandle.o(.text.HALLModuleInit) refers to main.o(.data.dir) for dir
    hallhandle.o(.text.HALLModuleInit) refers to hallhandle.o(.bss.HALL1) for HALL1
    hallhandle.o(.text.HALLModuleInit) refers to hallhandle.o(.bss.CWShift) for CWShift
    hallhandle.o(.ARM.exidx.text.HALLModuleInit) refers to hallhandle.o(.text.HALLModuleInit) for [Anonymous Symbol]
    hallhandle.o(.text.HALLModuleCalc) refers to bldc.o(.text.hallpos) for hallpos
    hallhandle.o(.text.HALLModuleCalc) refers to aeabi_sdivfast.o(.text_divfast) for __aeabi_uidiv
    hallhandle.o(.text.HALLModuleCalc) refers to main.o(.data.dir) for dir
    hallhandle.o(.text.HALLModuleCalc) refers to hallhandle.o(.bss.HALLModuleCalc.i) for [Anonymous Symbol]
    hallhandle.o(.text.HALLModuleCalc) refers to hallhandle.o(.bss.ChangeTime) for ChangeTime
    hallhandle.o(.text.HALLModuleCalc) refers to hallhandle.o(.bss.CWShift) for CWShift
    hallhandle.o(.ARM.exidx.text.HALLModuleCalc) refers to hallhandle.o(.text.HALLModuleCalc) for [Anonymous Symbol]
    park.o(.text.PARK_MACRO1) refers to foc_math.o(.text.MCM_Trig_Functions) for MCM_Trig_Functions
    park.o(.ARM.exidx.text.PARK_MACRO1) refers to park.o(.text.PARK_MACRO1) for [Anonymous Symbol]
    pid.o(.text.InitPI) refers to pid.o(.bss.CurID) for CurID
    pid.o(.text.InitPI) refers to pid.o(.bss.CurIQ) for CurIQ
    pid.o(.text.InitPI) refers to pid.o(.bss.Speed) for Speed
    pid.o(.ARM.exidx.text.InitPI) refers to pid.o(.text.InitPI) for [Anonymous Symbol]
    pid.o(.ARM.exidx.text.CalcPI) refers to pid.o(.text.CalcPI) for [Anonymous Symbol]
    hal_adc.o(.text.ADC_DeInit) refers to hal_rcc.o(.text.exRCC_APB2PeriphReset) for exRCC_APB2PeriphReset
    hal_adc.o(.ARM.exidx.text.ADC_DeInit) refers to hal_adc.o(.text.ADC_DeInit) for [Anonymous Symbol]
    hal_adc.o(.ARM.exidx.text.ADC_Init) refers to hal_adc.o(.text.ADC_Init) for [Anonymous Symbol]
    hal_adc.o(.ARM.exidx.text.ADC_StructInit) refers to hal_adc.o(.text.ADC_StructInit) for [Anonymous Symbol]
    hal_adc.o(.ARM.exidx.text.ADC_Cmd) refers to hal_adc.o(.text.ADC_Cmd) for [Anonymous Symbol]
    hal_adc.o(.ARM.exidx.text.ADC_DMACmd) refers to hal_adc.o(.text.ADC_DMACmd) for [Anonymous Symbol]
    hal_adc.o(.ARM.exidx.text.ADC_ITConfig) refers to hal_adc.o(.text.ADC_ITConfig) for [Anonymous Symbol]
    hal_adc.o(.ARM.exidx.text.ADC_SoftwareStartConvCmd) refers to hal_adc.o(.text.ADC_SoftwareStartConvCmd) for [Anonymous Symbol]
    hal_adc.o(.ARM.exidx.text.ADC_GetSoftwareStartConvStatus) refers to hal_adc.o(.text.ADC_GetSoftwareStartConvStatus) for [Anonymous Symbol]
    hal_adc.o(.ARM.exidx.text.ADC_RegularChannelConfig) refers to hal_adc.o(.text.ADC_RegularChannelConfig) for [Anonymous Symbol]
    hal_adc.o(.ARM.exidx.text.ADC_TempSensorVrefintCmd) refers to hal_adc.o(.text.ADC_TempSensorVrefintCmd) for [Anonymous Symbol]
    hal_adc.o(.ARM.exidx.text.ADC_ExternalTrigConvCmd) refers to hal_adc.o(.text.ADC_ExternalTrigConvCmd) for [Anonymous Symbol]
    hal_adc.o(.ARM.exidx.text.ADC_GetConversionValue) refers to hal_adc.o(.text.ADC_GetConversionValue) for [Anonymous Symbol]
    hal_adc.o(.ARM.exidx.text.ADC_GetDualModeConversionValue) refers to hal_adc.o(.text.ADC_GetDualModeConversionValue) for [Anonymous Symbol]
    hal_adc.o(.ARM.exidx.text.ADC_ExternalTrigInjectedConvConfig) refers to hal_adc.o(.text.ADC_ExternalTrigInjectedConvConfig) for [Anonymous Symbol]
    hal_adc.o(.ARM.exidx.text.ADC_ExternalTrigInjectedConvCmd) refers to hal_adc.o(.text.ADC_ExternalTrigInjectedConvCmd) for [Anonymous Symbol]
    hal_adc.o(.ARM.exidx.text.ADC_AnalogWatchdogCmd) refers to hal_adc.o(.text.ADC_AnalogWatchdogCmd) for [Anonymous Symbol]
    hal_adc.o(.ARM.exidx.text.ADC_AnalogWatchdogThresholdsConfig) refers to hal_adc.o(.text.ADC_AnalogWatchdogThresholdsConfig) for [Anonymous Symbol]
    hal_adc.o(.ARM.exidx.text.ADC_AnalogWatchdogSingleChannelConfig) refers to hal_adc.o(.text.ADC_AnalogWatchdogSingleChannelConfig) for [Anonymous Symbol]
    hal_adc.o(.ARM.exidx.text.ADC_TempSensorCmd) refers to hal_adc.o(.text.ADC_TempSensorCmd) for [Anonymous Symbol]
    hal_adc.o(.ARM.exidx.text.ADC_VrefintCmd) refers to hal_adc.o(.text.ADC_VrefintCmd) for [Anonymous Symbol]
    hal_adc.o(.ARM.exidx.text.exADC_TempSensorVrefintCmd) refers to hal_adc.o(.text.exADC_TempSensorVrefintCmd) for [Anonymous Symbol]
    hal_adc.o(.ARM.exidx.text.ADC_GetFlagStatus) refers to hal_adc.o(.text.ADC_GetFlagStatus) for [Anonymous Symbol]
    hal_adc.o(.ARM.exidx.text.ADC_ClearFlag) refers to hal_adc.o(.text.ADC_ClearFlag) for [Anonymous Symbol]
    hal_adc.o(.ARM.exidx.text.ADC_GetITStatus) refers to hal_adc.o(.text.ADC_GetITStatus) for [Anonymous Symbol]
    hal_adc.o(.ARM.exidx.text.ADC_ClearITPendingBit) refers to hal_adc.o(.text.ADC_ClearITPendingBit) for [Anonymous Symbol]
    hal_comp.o(.ARM.exidx.text.COMP_DeInit) refers to hal_comp.o(.text.COMP_DeInit) for [Anonymous Symbol]
    hal_comp.o(.ARM.exidx.text.COMP_Init) refers to hal_comp.o(.text.COMP_Init) for [Anonymous Symbol]
    hal_comp.o(.ARM.exidx.text.COMP_StructInit) refers to hal_comp.o(.text.COMP_StructInit) for [Anonymous Symbol]
    hal_comp.o(.ARM.exidx.text.COMP_Cmd) refers to hal_comp.o(.text.COMP_Cmd) for [Anonymous Symbol]
    hal_comp.o(.ARM.exidx.text.SET_COMP_CRV) refers to hal_comp.o(.text.SET_COMP_CRV) for [Anonymous Symbol]
    hal_comp.o(.ARM.exidx.text.COMP_SwitchCmd) refers to hal_comp.o(.text.COMP_SwitchCmd) for [Anonymous Symbol]
    hal_comp.o(.ARM.exidx.text.COMP_GetOutputLevel) refers to hal_comp.o(.text.COMP_GetOutputLevel) for [Anonymous Symbol]
    hal_comp.o(.ARM.exidx.text.COMP_LockConfig) refers to hal_comp.o(.text.COMP_LockConfig) for [Anonymous Symbol]
    hal_comp.o(.ARM.exidx.text.exCOMP_CrvCmd) refers to hal_comp.o(.text.exCOMP_CrvCmd) for [Anonymous Symbol]
    hal_comp.o(.ARM.exidx.text.exCOMP_SwitchCrv) refers to hal_comp.o(.text.exCOMP_SwitchCrv) for [Anonymous Symbol]
    hal_comp.o(.ARM.exidx.text.exCOMP_CrvSrc) refers to hal_comp.o(.text.exCOMP_CrvSrc) for [Anonymous Symbol]
    hal_crc.o(.ARM.exidx.text.CRC_ResetDR) refers to hal_crc.o(.text.CRC_ResetDR) for [Anonymous Symbol]
    hal_crc.o(.ARM.exidx.text.CRC_CalcCRC) refers to hal_crc.o(.text.CRC_CalcCRC) for [Anonymous Symbol]
    hal_crc.o(.ARM.exidx.text.CRC_CalcBlockCRC) refers to hal_crc.o(.text.CRC_CalcBlockCRC) for [Anonymous Symbol]
    hal_crc.o(.ARM.exidx.text.CRC_GetCRC) refers to hal_crc.o(.text.CRC_GetCRC) for [Anonymous Symbol]
    hal_crc.o(.ARM.exidx.text.CRC_SetIDRegister) refers to hal_crc.o(.text.CRC_SetIDRegister) for [Anonymous Symbol]
    hal_crc.o(.ARM.exidx.text.CRC_GetIDRegister) refers to hal_crc.o(.text.CRC_GetIDRegister) for [Anonymous Symbol]
    hal_dbg.o(.ARM.exidx.text.DBGMCU_Configure) refers to hal_dbg.o(.text.DBGMCU_Configure) for [Anonymous Symbol]
    hal_div.o(.ARM.exidx.text.HWDivider_Init) refers to hal_div.o(.text.HWDivider_Init) for [Anonymous Symbol]
    hal_div.o(.ARM.exidx.text.HWDivider_Calc) refers to hal_div.o(.text.HWDivider_Calc) for [Anonymous Symbol]
    hal_div.o(.text.Divider_Calc) refers to aeabi_sdivfast.o(.text_divfast) for __aeabi_uidiv
    hal_div.o(.ARM.exidx.text.Divider_Calc) refers to hal_div.o(.text.Divider_Calc) for [Anonymous Symbol]
    hal_dma.o(.text.DMA_DeInit) refers to aeabi_sdivfast.o(.text_divfast) for __aeabi_uidiv
    hal_dma.o(.ARM.exidx.text.DMA_DeInit) refers to hal_dma.o(.text.DMA_DeInit) for [Anonymous Symbol]
    hal_dma.o(.ARM.exidx.text.DMA_Init) refers to hal_dma.o(.text.DMA_Init) for [Anonymous Symbol]
    hal_dma.o(.ARM.exidx.text.DMA_StructInit) refers to hal_dma.o(.text.DMA_StructInit) for [Anonymous Symbol]
    hal_dma.o(.ARM.exidx.text.DMA_Cmd) refers to hal_dma.o(.text.DMA_Cmd) for [Anonymous Symbol]
    hal_dma.o(.ARM.exidx.text.DMA_ITConfig) refers to hal_dma.o(.text.DMA_ITConfig) for [Anonymous Symbol]
    hal_dma.o(.ARM.exidx.text.DMA_GetCurrDataCounter) refers to hal_dma.o(.text.DMA_GetCurrDataCounter) for [Anonymous Symbol]
    hal_dma.o(.ARM.exidx.text.DMA_GetFlagStatus) refers to hal_dma.o(.text.DMA_GetFlagStatus) for [Anonymous Symbol]
    hal_dma.o(.ARM.exidx.text.DMA_ClearFlag) refers to hal_dma.o(.text.DMA_ClearFlag) for [Anonymous Symbol]
    hal_dma.o(.ARM.exidx.text.DMA_GetITStatus) refers to hal_dma.o(.text.DMA_GetITStatus) for [Anonymous Symbol]
    hal_dma.o(.ARM.exidx.text.DMA_ClearITPendingBit) refers to hal_dma.o(.text.DMA_ClearITPendingBit) for [Anonymous Symbol]
    hal_dma.o(.ARM.exidx.text.exDMA_SetPeripheralAddress) refers to hal_dma.o(.text.exDMA_SetPeripheralAddress) for [Anonymous Symbol]
    hal_dma.o(.ARM.exidx.text.exDMA_SetTransmitLen) refers to hal_dma.o(.text.exDMA_SetTransmitLen) for [Anonymous Symbol]
    hal_dma.o(.ARM.exidx.text.exDMA_SetMemoryAddress) refers to hal_dma.o(.text.exDMA_SetMemoryAddress) for [Anonymous Symbol]
    hal_dma.o(.text.exDMA_ClearITPendingBit) refers to aeabi_sdivfast.o(.text_divfast) for __aeabi_uidiv
    hal_dma.o(.ARM.exidx.text.exDMA_ClearITPendingBit) refers to hal_dma.o(.text.exDMA_ClearITPendingBit) for [Anonymous Symbol]
    hal_exti.o(.ARM.exidx.text.EXTI_DeInit) refers to hal_exti.o(.text.EXTI_DeInit) for [Anonymous Symbol]
    hal_exti.o(.ARM.exidx.text.exEXTI_LineDisable) refers to hal_exti.o(.text.exEXTI_LineDisable) for [Anonymous Symbol]
    hal_exti.o(.ARM.exidx.text.EXTI_MemoryRemapConfig) refers to hal_exti.o(.text.EXTI_MemoryRemapConfig) for [Anonymous Symbol]
    hal_exti.o(.ARM.exidx.text.EXTI_DMAChannelRemapConfig) refers to hal_exti.o(.text.EXTI_DMAChannelRemapConfig) for [Anonymous Symbol]
    hal_exti.o(.ARM.exidx.text.EXTI_LineConfig) refers to hal_exti.o(.text.EXTI_LineConfig) for [Anonymous Symbol]
    hal_exti.o(.ARM.exidx.text.EXTI_Init) refers to hal_exti.o(.text.EXTI_Init) for [Anonymous Symbol]
    hal_exti.o(.ARM.exidx.text.EXTI_StructInit) refers to hal_exti.o(.text.EXTI_StructInit) for [Anonymous Symbol]
    hal_exti.o(.ARM.exidx.text.EXTI_GenerateSWInterrupt) refers to hal_exti.o(.text.EXTI_GenerateSWInterrupt) for [Anonymous Symbol]
    hal_exti.o(.ARM.exidx.text.EXTI_GetFlagStatus) refers to hal_exti.o(.text.EXTI_GetFlagStatus) for [Anonymous Symbol]
    hal_exti.o(.ARM.exidx.text.EXTI_ClearFlag) refers to hal_exti.o(.text.EXTI_ClearFlag) for [Anonymous Symbol]
    hal_exti.o(.ARM.exidx.text.EXTI_GetITStatus) refers to hal_exti.o(.text.EXTI_GetITStatus) for [Anonymous Symbol]
    hal_exti.o(.ARM.exidx.text.EXTI_ClearITPendingBit) refers to hal_exti.o(.text.EXTI_ClearITPendingBit) for [Anonymous Symbol]
    hal_exti.o(.ARM.exidx.text.exEXTI_GetAllFlagStatus) refers to hal_exti.o(.text.exEXTI_GetAllFlagStatus) for [Anonymous Symbol]
    hal_flash.o(.ARM.exidx.text.FLASH_SetLatency) refers to hal_flash.o(.text.FLASH_SetLatency) for [Anonymous Symbol]
    hal_flash.o(.ARM.exidx.text.FLASH_HalfCycleAccessCmd) refers to hal_flash.o(.text.FLASH_HalfCycleAccessCmd) for [Anonymous Symbol]
    hal_flash.o(.ARM.exidx.text.FLASH_PrefetchBufferCmd) refers to hal_flash.o(.text.FLASH_PrefetchBufferCmd) for [Anonymous Symbol]
    hal_flash.o(.ARM.exidx.text.FLASH_Lock) refers to hal_flash.o(.text.FLASH_Lock) for [Anonymous Symbol]
    hal_flash.o(.ARM.exidx.text.FLASH_Unlock) refers to hal_flash.o(.text.FLASH_Unlock) for [Anonymous Symbol]
    hal_flash.o(.ARM.exidx.text.FLASH_OPTB_Enable) refers to hal_flash.o(.text.FLASH_OPTB_Enable) for [Anonymous Symbol]
    hal_flash.o(.ARM.exidx.text.FLASH_ErasePage) refers to hal_flash.o(.text.FLASH_ErasePage) for [Anonymous Symbol]
    hal_flash.o(.ARM.exidx.text.FLASH_WaitForLastOperation) refers to hal_flash.o(.text.FLASH_WaitForLastOperation) for [Anonymous Symbol]
    hal_flash.o(.ARM.exidx.text.FLASH_EraseAllPages) refers to hal_flash.o(.text.FLASH_EraseAllPages) for [Anonymous Symbol]
    hal_flash.o(.ARM.exidx.text.FLASH_EraseOptionBytes) refers to hal_flash.o(.text.FLASH_EraseOptionBytes) for [Anonymous Symbol]
    hal_flash.o(.ARM.exidx.text.FLASH_EraseProtect) refers to hal_flash.o(.text.FLASH_EraseProtect) for [Anonymous Symbol]
    hal_flash.o(.ARM.exidx.text.FLASH_ProgramHalfWord) refers to hal_flash.o(.text.FLASH_ProgramHalfWord) for [Anonymous Symbol]
    hal_flash.o(.ARM.exidx.text.FLASH_ProgramWord) refers to hal_flash.o(.text.FLASH_ProgramWord) for [Anonymous Symbol]
    hal_flash.o(.ARM.exidx.text.FLASH_ProgramOptionByteData) refers to hal_flash.o(.text.FLASH_ProgramOptionByteData) for [Anonymous Symbol]
    hal_flash.o(.ARM.exidx.text.FLASH_ProgramOptionHalfWord) refers to hal_flash.o(.text.FLASH_ProgramOptionHalfWord) for [Anonymous Symbol]
    hal_flash.o(.ARM.exidx.text.FLASH_ProgramProtect) refers to hal_flash.o(.text.FLASH_ProgramProtect) for [Anonymous Symbol]
    hal_flash.o(.ARM.exidx.text.FLASH_EnableWriteProtection) refers to hal_flash.o(.text.FLASH_EnableWriteProtection) for [Anonymous Symbol]
    hal_flash.o(.ARM.exidx.text.FLASH_UserOptionByteConfig) refers to hal_flash.o(.text.FLASH_UserOptionByteConfig) for [Anonymous Symbol]
    hal_flash.o(.ARM.exidx.text.FLASH_GetUserOptionByte) refers to hal_flash.o(.text.FLASH_GetUserOptionByte) for [Anonymous Symbol]
    hal_flash.o(.ARM.exidx.text.FLASH_GetWriteProtectionOptionByte) refers to hal_flash.o(.text.FLASH_GetWriteProtectionOptionByte) for [Anonymous Symbol]
    hal_flash.o(.ARM.exidx.text.FLASH_GetPrefetchBufferStatus) refers to hal_flash.o(.text.FLASH_GetPrefetchBufferStatus) for [Anonymous Symbol]
    hal_flash.o(.ARM.exidx.text.FLASH_ITConfig) refers to hal_flash.o(.text.FLASH_ITConfig) for [Anonymous Symbol]
    hal_flash.o(.ARM.exidx.text.FLASH_GetFlagStatus) refers to hal_flash.o(.text.FLASH_GetFlagStatus) for [Anonymous Symbol]
    hal_flash.o(.ARM.exidx.text.FLASH_ClearFlag) refers to hal_flash.o(.text.FLASH_ClearFlag) for [Anonymous Symbol]
    hal_flash.o(.ARM.exidx.text.FLASH_GetStatus) refers to hal_flash.o(.text.FLASH_GetStatus) for [Anonymous Symbol]
    hal_flash.o(.ARM.exidx.text.exFLASH_EraseEE) refers to hal_flash.o(.text.exFLASH_EraseEE) for [Anonymous Symbol]
    hal_flash.o(.ARM.exidx.text.exFLASH_ProgramEE) refers to hal_flash.o(.text.exFLASH_ProgramEE) for [Anonymous Symbol]
    hal_flash.o(.ARM.exidx.text.exFLASH_FindEmpty) refers to hal_flash.o(.text.exFLASH_FindEmpty) for [Anonymous Symbol]
    hal_flash.o(.text.exFLASH_Locate) refers to aeabi_sdivfast.o(.text_divfast) for __aeabi_uidiv
    hal_flash.o(.ARM.exidx.text.exFLASH_Locate) refers to hal_flash.o(.text.exFLASH_Locate) for [Anonymous Symbol]
    hal_flash.o(.text.exFLASH_WriteEE) refers to aeabi_sdivfast.o(.text_divfast) for __aeabi_uidiv
    hal_flash.o(.ARM.exidx.text.exFLASH_WriteEE) refers to hal_flash.o(.text.exFLASH_WriteEE) for [Anonymous Symbol]
    hal_flash.o(.text.exFLASH_ReadEE) refers to aeabi_sdivfast.o(.text_divfast) for __aeabi_uidiv
    hal_flash.o(.ARM.exidx.text.exFLASH_ReadEE) refers to hal_flash.o(.text.exFLASH_ReadEE) for [Anonymous Symbol]
    hal_gpio.o(.text.GPIO_DeInit) refers to hal_rcc.o(.text.RCC_AHBPeriphClockCmd) for RCC_AHBPeriphClockCmd
    hal_gpio.o(.ARM.exidx.text.GPIO_DeInit) refers to hal_gpio.o(.text.GPIO_DeInit) for [Anonymous Symbol]
    hal_gpio.o(.ARM.exidx.text.GPIO_AFIODeInit) refers to hal_gpio.o(.text.GPIO_AFIODeInit) for [Anonymous Symbol]
    hal_gpio.o(.ARM.exidx.text.GPIO_Init) refers to hal_gpio.o(.text.GPIO_Init) for [Anonymous Symbol]
    hal_gpio.o(.ARM.exidx.text.GPIO_StructInit) refers to hal_gpio.o(.text.GPIO_StructInit) for [Anonymous Symbol]
    hal_gpio.o(.ARM.exidx.text.GPIO_ReadInputDataBit) refers to hal_gpio.o(.text.GPIO_ReadInputDataBit) for [Anonymous Symbol]
    hal_gpio.o(.ARM.exidx.text.GPIO_ReadInputData) refers to hal_gpio.o(.text.GPIO_ReadInputData) for [Anonymous Symbol]
    hal_gpio.o(.ARM.exidx.text.GPIO_ReadOutputDataBit) refers to hal_gpio.o(.text.GPIO_ReadOutputDataBit) for [Anonymous Symbol]
    hal_gpio.o(.ARM.exidx.text.GPIO_ReadOutputData) refers to hal_gpio.o(.text.GPIO_ReadOutputData) for [Anonymous Symbol]
    hal_gpio.o(.ARM.exidx.text.GPIO_SetBits) refers to hal_gpio.o(.text.GPIO_SetBits) for [Anonymous Symbol]
    hal_gpio.o(.ARM.exidx.text.GPIO_ResetBits) refers to hal_gpio.o(.text.GPIO_ResetBits) for [Anonymous Symbol]
    hal_gpio.o(.ARM.exidx.text.GPIO_WriteBit) refers to hal_gpio.o(.text.GPIO_WriteBit) for [Anonymous Symbol]
    hal_gpio.o(.ARM.exidx.text.GPIO_Write) refers to hal_gpio.o(.text.GPIO_Write) for [Anonymous Symbol]
    hal_gpio.o(.ARM.exidx.text.GPIO_PinLock) refers to hal_gpio.o(.text.GPIO_PinLock) for [Anonymous Symbol]
    hal_gpio.o(.ARM.exidx.text.GPIO_PinLockConfig) refers to hal_gpio.o(.text.GPIO_PinLockConfig) for [Anonymous Symbol]
    hal_gpio.o(.ARM.exidx.text.GPIO_PinAFConfig) refers to hal_gpio.o(.text.GPIO_PinAFConfig) for [Anonymous Symbol]
    hal_gpio.o(.ARM.exidx.text.exGPIO_PinAFConfig) refers to hal_gpio.o(.text.exGPIO_PinAFConfig) for [Anonymous Symbol]
    hal_i2c.o(.text.I2C_DeInit) refers to hal_rcc.o(.text.exRCC_APB1PeriphReset) for exRCC_APB1PeriphReset
    hal_i2c.o(.ARM.exidx.text.I2C_DeInit) refers to hal_i2c.o(.text.I2C_DeInit) for [Anonymous Symbol]
    hal_i2c.o(.text.I2C_Init) refers to hal_rcc.o(.text.RCC_GetPCLK1Freq) for RCC_GetPCLK1Freq
    hal_i2c.o(.text.I2C_Init) refers to aeabi_sdivfast.o(.text_divfast) for __aeabi_uidiv
    hal_i2c.o(.ARM.exidx.text.I2C_Init) refers to hal_i2c.o(.text.I2C_Init) for [Anonymous Symbol]
    hal_i2c.o(.ARM.exidx.text.I2C_StructInit) refers to hal_i2c.o(.text.I2C_StructInit) for [Anonymous Symbol]
    hal_i2c.o(.ARM.exidx.text.I2C_Cmd) refers to hal_i2c.o(.text.I2C_Cmd) for [Anonymous Symbol]
    hal_i2c.o(.text.I2C_DMACmd) refers to hal_i2c.o(.bss.I2C_DMA_DIR) for I2C_DMA_DIR
    hal_i2c.o(.ARM.exidx.text.I2C_DMACmd) refers to hal_i2c.o(.text.I2C_DMACmd) for [Anonymous Symbol]
    hal_i2c.o(.ARM.exidx.text.I2C_GenerateSTART) refers to hal_i2c.o(.text.I2C_GenerateSTART) for [Anonymous Symbol]
    hal_i2c.o(.ARM.exidx.text.I2C_GenerateSTOP) refers to hal_i2c.o(.text.I2C_GenerateSTOP) for [Anonymous Symbol]
    hal_i2c.o(.ARM.exidx.text.I2C_OwnAddress2Config) refers to hal_i2c.o(.text.I2C_OwnAddress2Config) for [Anonymous Symbol]
    hal_i2c.o(.ARM.exidx.text.I2C_DualAddressCmd) refers to hal_i2c.o(.text.I2C_DualAddressCmd) for [Anonymous Symbol]
    hal_i2c.o(.ARM.exidx.text.I2C_GeneralCallCmd) refers to hal_i2c.o(.text.I2C_GeneralCallCmd) for [Anonymous Symbol]
    hal_i2c.o(.ARM.exidx.text.I2C_ITConfig) refers to hal_i2c.o(.text.I2C_ITConfig) for [Anonymous Symbol]
    hal_i2c.o(.ARM.exidx.text.I2C_ReadCmd) refers to hal_i2c.o(.text.I2C_ReadCmd) for [Anonymous Symbol]
    hal_i2c.o(.ARM.exidx.text.I2C_SendData) refers to hal_i2c.o(.text.I2C_SendData) for [Anonymous Symbol]
    hal_i2c.o(.text.I2C_ReceiveData) refers to hal_i2c.o(.bss.I2C_CMD_DIR) for [Anonymous Symbol]
    hal_i2c.o(.ARM.exidx.text.I2C_ReceiveData) refers to hal_i2c.o(.text.I2C_ReceiveData) for [Anonymous Symbol]
    hal_i2c.o(.ARM.exidx.text.I2C_Send7bitAddress) refers to hal_i2c.o(.text.I2C_Send7bitAddress) for [Anonymous Symbol]
    hal_i2c.o(.ARM.exidx.text.I2C_ReadRegister) refers to hal_i2c.o(.text.I2C_ReadRegister) for [Anonymous Symbol]
    hal_i2c.o(.ARM.exidx.text.I2C_GetLastEvent) refers to hal_i2c.o(.text.I2C_GetLastEvent) for [Anonymous Symbol]
    hal_i2c.o(.text.I2C_CheckEvent) refers to hal_i2c.o(.bss.I2C_CMD_DIR) for [Anonymous Symbol]
    hal_i2c.o(.ARM.exidx.text.I2C_CheckEvent) refers to hal_i2c.o(.text.I2C_CheckEvent) for [Anonymous Symbol]
    hal_i2c.o(.text.I2C_GetFlagStatus) refers to hal_i2c.o(.bss.I2C_CMD_DIR) for [Anonymous Symbol]
    hal_i2c.o(.ARM.exidx.text.I2C_GetFlagStatus) refers to hal_i2c.o(.text.I2C_GetFlagStatus) for [Anonymous Symbol]
    hal_i2c.o(.ARM.exidx.text.I2C_ClearFlag) refers to hal_i2c.o(.text.I2C_ClearFlag) for [Anonymous Symbol]
    hal_i2c.o(.ARM.exidx.text.I2C_GetITStatus) refers to hal_i2c.o(.text.I2C_GetITStatus) for [Anonymous Symbol]
    hal_i2c.o(.ARM.exidx.text.I2C_ClearITPendingBit) refers to hal_i2c.o(.text.I2C_ClearITPendingBit) for [Anonymous Symbol]
    hal_i2c.o(.ARM.exidx.text.I2C_SendSlaveAddress) refers to hal_i2c.o(.text.I2C_SendSlaveAddress) for [Anonymous Symbol]
    hal_i2c.o(.ARM.exidx.text.I2C_SlaveConfigure) refers to hal_i2c.o(.text.I2C_SlaveConfigure) for [Anonymous Symbol]
    hal_i2c.o(.ARM.exidx.text.I2C_DMAConfigure) refers to hal_i2c.o(.text.I2C_DMAConfigure) for [Anonymous Symbol]
    hal_iwdg.o(.ARM.exidx.text.IWDG_WriteAccessCmd) refers to hal_iwdg.o(.text.IWDG_WriteAccessCmd) for [Anonymous Symbol]
    hal_iwdg.o(.ARM.exidx.text.IWDG_SetPrescaler) refers to hal_iwdg.o(.text.IWDG_SetPrescaler) for [Anonymous Symbol]
    hal_iwdg.o(.ARM.exidx.text.PVU_CheckStatus) refers to hal_iwdg.o(.text.PVU_CheckStatus) for [Anonymous Symbol]
    hal_iwdg.o(.ARM.exidx.text.IWDG_SetReload) refers to hal_iwdg.o(.text.IWDG_SetReload) for [Anonymous Symbol]
    hal_iwdg.o(.ARM.exidx.text.RVU_CheckStatus) refers to hal_iwdg.o(.text.RVU_CheckStatus) for [Anonymous Symbol]
    hal_iwdg.o(.ARM.exidx.text.IWDG_GetReload) refers to hal_iwdg.o(.text.IWDG_GetReload) for [Anonymous Symbol]
    hal_iwdg.o(.ARM.exidx.text.IWDG_ReloadCounter) refers to hal_iwdg.o(.text.IWDG_ReloadCounter) for [Anonymous Symbol]
    hal_iwdg.o(.ARM.exidx.text.IWDG_Enable) refers to hal_iwdg.o(.text.IWDG_Enable) for [Anonymous Symbol]
    hal_iwdg.o(.ARM.exidx.text.IWDG_GetFlagStatus) refers to hal_iwdg.o(.text.IWDG_GetFlagStatus) for [Anonymous Symbol]
    hal_iwdg.o(.ARM.exidx.text.IWDG_OverflowConfig) refers to hal_iwdg.o(.text.IWDG_OverflowConfig) for [Anonymous Symbol]
    hal_iwdg.o(.ARM.exidx.text.IWDG_ClearITPendingBit) refers to hal_iwdg.o(.text.IWDG_ClearITPendingBit) for [Anonymous Symbol]
    hal_iwdg.o(.ARM.exidx.text.IWDG_ClearIT) refers to hal_iwdg.o(.text.IWDG_ClearIT) for [Anonymous Symbol]
    hal_iwdg.o(.ARM.exidx.text.IWDG_EnableIT) refers to hal_iwdg.o(.text.IWDG_EnableIT) for [Anonymous Symbol]
    hal_iwdg.o(.ARM.exidx.text.IWDG_Reset) refers to hal_iwdg.o(.text.IWDG_Reset) for [Anonymous Symbol]
    hal_misc.o(.ARM.exidx.text.NVIC_Init) refers to hal_misc.o(.text.NVIC_Init) for [Anonymous Symbol]
    hal_misc.o(.ARM.exidx.text.exNVIC_Init) refers to hal_misc.o(.text.exNVIC_Init) for [Anonymous Symbol]
    hal_misc.o(.ARM.exidx.text.NVIC_SystemLPConfig) refers to hal_misc.o(.text.NVIC_SystemLPConfig) for [Anonymous Symbol]
    hal_misc.o(.ARM.exidx.text.SysTick_CLKSourceConfig) refers to hal_misc.o(.text.SysTick_CLKSourceConfig) for [Anonymous Symbol]
    hal_pwr.o(.text.PWR_DeInit) refers to hal_rcc.o(.text.exRCC_APB1PeriphReset) for exRCC_APB1PeriphReset
    hal_pwr.o(.ARM.exidx.text.PWR_DeInit) refers to hal_pwr.o(.text.PWR_DeInit) for [Anonymous Symbol]
    hal_pwr.o(.ARM.exidx.text.PWR_PVDCmd) refers to hal_pwr.o(.text.PWR_PVDCmd) for [Anonymous Symbol]
    hal_pwr.o(.ARM.exidx.text.PWR_PVDLevelConfig) refers to hal_pwr.o(.text.PWR_PVDLevelConfig) for [Anonymous Symbol]
    hal_pwr.o(.ARM.exidx.text.PWR_WakeUpPinCmd) refers to hal_pwr.o(.text.PWR_WakeUpPinCmd) for [Anonymous Symbol]
    hal_pwr.o(.ARM.exidx.text.PWR_EnterSTOPMode) refers to hal_pwr.o(.text.PWR_EnterSTOPMode) for [Anonymous Symbol]
    hal_pwr.o(.ARM.exidx.text.PWR_EnterSTANDBYMode) refers to hal_pwr.o(.text.PWR_EnterSTANDBYMode) for [Anonymous Symbol]
    hal_pwr.o(.ARM.exidx.text.PWR_GetFlagStatus) refers to hal_pwr.o(.text.PWR_GetFlagStatus) for [Anonymous Symbol]
    hal_pwr.o(.ARM.exidx.text.PWR_ClearFlag) refers to hal_pwr.o(.text.PWR_ClearFlag) for [Anonymous Symbol]
    hal_pwr.o(.ARM.exidx.text.exPWR_EnterLowPowerMode) refers to hal_pwr.o(.text.exPWR_EnterLowPowerMode) for [Anonymous Symbol]
    hal_rcc.o(.ARM.exidx.text.RCC_DeInit) refers to hal_rcc.o(.text.RCC_DeInit) for [Anonymous Symbol]
    hal_rcc.o(.ARM.exidx.text.RCC_HSEConfig) refers to hal_rcc.o(.text.RCC_HSEConfig) for [Anonymous Symbol]
    hal_rcc.o(.ARM.exidx.text.RCC_GetFlagStatus) refers to hal_rcc.o(.text.RCC_GetFlagStatus) for [Anonymous Symbol]
    hal_rcc.o(.ARM.exidx.text.RCC_WaitForHSEStartUp) refers to hal_rcc.o(.text.RCC_WaitForHSEStartUp) for [Anonymous Symbol]
    hal_rcc.o(.ARM.exidx.text.RCC_WaitForFlagStartUp) refers to hal_rcc.o(.text.RCC_WaitForFlagStartUp) for [Anonymous Symbol]
    hal_rcc.o(.ARM.exidx.text.RCC_HSICmd) refers to hal_rcc.o(.text.RCC_HSICmd) for [Anonymous Symbol]
    hal_rcc.o(.ARM.exidx.text.RCC_SYSCLKConfig) refers to hal_rcc.o(.text.RCC_SYSCLKConfig) for [Anonymous Symbol]
    hal_rcc.o(.ARM.exidx.text.RCC_GetSYSCLKSource) refers to hal_rcc.o(.text.RCC_GetSYSCLKSource) for [Anonymous Symbol]
    hal_rcc.o(.ARM.exidx.text.RCC_HCLKConfig) refers to hal_rcc.o(.text.RCC_HCLKConfig) for [Anonymous Symbol]
    hal_rcc.o(.ARM.exidx.text.RCC_PCLK1Config) refers to hal_rcc.o(.text.RCC_PCLK1Config) for [Anonymous Symbol]
    hal_rcc.o(.ARM.exidx.text.RCC_PCLK2Config) refers to hal_rcc.o(.text.RCC_PCLK2Config) for [Anonymous Symbol]
    hal_rcc.o(.ARM.exidx.text.RCC_ADCCLKConfig) refers to hal_rcc.o(.text.RCC_ADCCLKConfig) for [Anonymous Symbol]
    hal_rcc.o(.ARM.exidx.text.RCC_LSICmd) refers to hal_rcc.o(.text.RCC_LSICmd) for [Anonymous Symbol]
    hal_rcc.o(.ARM.exidx.text.RCC_GetSysClockFreq) refers to hal_rcc.o(.text.RCC_GetSysClockFreq) for [Anonymous Symbol]
    hal_rcc.o(.text.RCC_GetHCLKFreq) refers to hal_rcc.o(.data.tbPresc) for tbPresc
    hal_rcc.o(.ARM.exidx.text.RCC_GetHCLKFreq) refers to hal_rcc.o(.text.RCC_GetHCLKFreq) for [Anonymous Symbol]
    hal_rcc.o(.text.RCC_GetPCLK1Freq) refers to hal_rcc.o(.data.tbPresc) for tbPresc
    hal_rcc.o(.ARM.exidx.text.RCC_GetPCLK1Freq) refers to hal_rcc.o(.text.RCC_GetPCLK1Freq) for [Anonymous Symbol]
    hal_rcc.o(.text.RCC_GetPCLK2Freq) refers to hal_rcc.o(.data.tbPresc) for tbPresc
    hal_rcc.o(.ARM.exidx.text.RCC_GetPCLK2Freq) refers to hal_rcc.o(.text.RCC_GetPCLK2Freq) for [Anonymous Symbol]
    hal_rcc.o(.text.RCC_GetClocksFreq) refers to aeabi_sdivfast.o(.text_divfast) for __aeabi_uidiv
    hal_rcc.o(.text.RCC_GetClocksFreq) refers to hal_rcc.o(.data.tbPresc) for tbPresc
    hal_rcc.o(.ARM.exidx.text.RCC_GetClocksFreq) refers to hal_rcc.o(.text.RCC_GetClocksFreq) for [Anonymous Symbol]
    hal_rcc.o(.ARM.exidx.text.RCC_AHBPeriphClockCmd) refers to hal_rcc.o(.text.RCC_AHBPeriphClockCmd) for [Anonymous Symbol]
    hal_rcc.o(.ARM.exidx.text.RCC_APB2PeriphClockCmd) refers to hal_rcc.o(.text.RCC_APB2PeriphClockCmd) for [Anonymous Symbol]
    hal_rcc.o(.ARM.exidx.text.RCC_APB1PeriphClockCmd) refers to hal_rcc.o(.text.RCC_APB1PeriphClockCmd) for [Anonymous Symbol]
    hal_rcc.o(.ARM.exidx.text.RCC_APB2PeriphResetCmd) refers to hal_rcc.o(.text.RCC_APB2PeriphResetCmd) for [Anonymous Symbol]
    hal_rcc.o(.ARM.exidx.text.RCC_APB1PeriphResetCmd) refers to hal_rcc.o(.text.RCC_APB1PeriphResetCmd) for [Anonymous Symbol]
    hal_rcc.o(.ARM.exidx.text.RCC_AHBPeriphResetCmd) refers to hal_rcc.o(.text.RCC_AHBPeriphResetCmd) for [Anonymous Symbol]
    hal_rcc.o(.ARM.exidx.text.RCC_ClockSecuritySystemCmd) refers to hal_rcc.o(.text.RCC_ClockSecuritySystemCmd) for [Anonymous Symbol]
    hal_rcc.o(.ARM.exidx.text.RCC_MCOConfig) refers to hal_rcc.o(.text.RCC_MCOConfig) for [Anonymous Symbol]
    hal_rcc.o(.ARM.exidx.text.RCC_ClearFlag) refers to hal_rcc.o(.text.RCC_ClearFlag) for [Anonymous Symbol]
    hal_rcc.o(.ARM.exidx.text.RCC_ITConfig) refers to hal_rcc.o(.text.RCC_ITConfig) for [Anonymous Symbol]
    hal_rcc.o(.ARM.exidx.text.RCC_GetITStatus) refers to hal_rcc.o(.text.RCC_GetITStatus) for [Anonymous Symbol]
    hal_rcc.o(.ARM.exidx.text.RCC_ClearITPendingBit) refers to hal_rcc.o(.text.RCC_ClearITPendingBit) for [Anonymous Symbol]
    hal_rcc.o(.ARM.exidx.text.exRCC_APB1PeriphReset) refers to hal_rcc.o(.text.exRCC_APB1PeriphReset) for [Anonymous Symbol]
    hal_rcc.o(.ARM.exidx.text.exRCC_BackupReset) refers to hal_rcc.o(.text.exRCC_BackupReset) for [Anonymous Symbol]
    hal_rcc.o(.ARM.exidx.text.exRCC_APB2PeriphReset) refers to hal_rcc.o(.text.exRCC_APB2PeriphReset) for [Anonymous Symbol]
    hal_rcc.o(.ARM.exidx.text.exRCC_SystickDisable) refers to hal_rcc.o(.text.exRCC_SystickDisable) for [Anonymous Symbol]
    hal_rcc.o(.text.exRCC_SystickEnable) refers to aeabi_sdivfast.o(.text_divfast) for __aeabi_uidiv
    hal_rcc.o(.text.exRCC_SystickEnable) refers to hal_rcc.o(.data.tbPresc) for tbPresc
    hal_rcc.o(.ARM.exidx.text.exRCC_SystickEnable) refers to hal_rcc.o(.text.exRCC_SystickEnable) for [Anonymous Symbol]
    hal_spi.o(.text.SPI_DeInit) refers to hal_rcc.o(.text.RCC_APB1PeriphResetCmd) for RCC_APB1PeriphResetCmd
    hal_spi.o(.text.SPI_DeInit) refers to hal_rcc.o(.text.RCC_APB2PeriphResetCmd) for RCC_APB2PeriphResetCmd
    hal_spi.o(.ARM.exidx.text.SPI_DeInit) refers to hal_spi.o(.text.SPI_DeInit) for [Anonymous Symbol]
    hal_spi.o(.ARM.exidx.text.SPI_Init) refers to hal_spi.o(.text.SPI_Init) for [Anonymous Symbol]
    hal_spi.o(.ARM.exidx.text.SPI_StructInit) refers to hal_spi.o(.text.SPI_StructInit) for [Anonymous Symbol]
    hal_spi.o(.ARM.exidx.text.SPI_Cmd) refers to hal_spi.o(.text.SPI_Cmd) for [Anonymous Symbol]
    hal_spi.o(.ARM.exidx.text.SPI_ITConfig) refers to hal_spi.o(.text.SPI_ITConfig) for [Anonymous Symbol]
    hal_spi.o(.ARM.exidx.text.SPI_DMACmd) refers to hal_spi.o(.text.SPI_DMACmd) for [Anonymous Symbol]
    hal_spi.o(.ARM.exidx.text.SPI_FifoTrigger) refers to hal_spi.o(.text.SPI_FifoTrigger) for [Anonymous Symbol]
    hal_spi.o(.ARM.exidx.text.SPI_SendData) refers to hal_spi.o(.text.SPI_SendData) for [Anonymous Symbol]
    hal_spi.o(.ARM.exidx.text.SPI_ReceiveData) refers to hal_spi.o(.text.SPI_ReceiveData) for [Anonymous Symbol]
    hal_spi.o(.ARM.exidx.text.SPI_CSInternalSelected) refers to hal_spi.o(.text.SPI_CSInternalSelected) for [Anonymous Symbol]
    hal_spi.o(.ARM.exidx.text.SPI_NSSInternalSoftwareConfig) refers to hal_spi.o(.text.SPI_NSSInternalSoftwareConfig) for [Anonymous Symbol]
    hal_spi.o(.ARM.exidx.text.SPI_DataSizeConfig) refers to hal_spi.o(.text.SPI_DataSizeConfig) for [Anonymous Symbol]
    hal_spi.o(.ARM.exidx.text.SPI_DataSizeTypeConfig) refers to hal_spi.o(.text.SPI_DataSizeTypeConfig) for [Anonymous Symbol]
    hal_spi.o(.ARM.exidx.text.SPI_BiDirectionalLineConfig) refers to hal_spi.o(.text.SPI_BiDirectionalLineConfig) for [Anonymous Symbol]
    hal_spi.o(.ARM.exidx.text.SPI_GetFlagStatus) refers to hal_spi.o(.text.SPI_GetFlagStatus) for [Anonymous Symbol]
    hal_spi.o(.ARM.exidx.text.SPI_GetITStatus) refers to hal_spi.o(.text.SPI_GetITStatus) for [Anonymous Symbol]
    hal_spi.o(.ARM.exidx.text.SPI_ClearITPendingBit) refers to hal_spi.o(.text.SPI_ClearITPendingBit) for [Anonymous Symbol]
    hal_spi.o(.ARM.exidx.text.SPI_RxBytes) refers to hal_spi.o(.text.SPI_RxBytes) for [Anonymous Symbol]
    hal_spi.o(.ARM.exidx.text.SPI_SlaveAdjust) refers to hal_spi.o(.text.SPI_SlaveAdjust) for [Anonymous Symbol]
    hal_spi.o(.ARM.exidx.text.exSPI_ITCmd) refers to hal_spi.o(.text.exSPI_ITCmd) for [Anonymous Symbol]
    hal_spi.o(.ARM.exidx.text.exSPI_ITConfig) refers to hal_spi.o(.text.exSPI_ITConfig) for [Anonymous Symbol]
    hal_spi.o(.ARM.exidx.text.exSPI_DMACmd) refers to hal_spi.o(.text.exSPI_DMACmd) for [Anonymous Symbol]
    hal_spi.o(.ARM.exidx.text.exSPI_CSInternalSelected) refers to hal_spi.o(.text.exSPI_CSInternalSelected) for [Anonymous Symbol]
    hal_spi.o(.ARM.exidx.text.exSPI_DataEdgeAdjust) refers to hal_spi.o(.text.exSPI_DataEdgeAdjust) for [Anonymous Symbol]
    hal_tim.o(.text.TIM_DeInit) refers to hal_rcc.o(.text.exRCC_APB2PeriphReset) for exRCC_APB2PeriphReset
    hal_tim.o(.text.TIM_DeInit) refers to hal_rcc.o(.text.exRCC_APB1PeriphReset) for exRCC_APB1PeriphReset
    hal_tim.o(.ARM.exidx.text.TIM_DeInit) refers to hal_tim.o(.text.TIM_DeInit) for [Anonymous Symbol]
    hal_tim.o(.ARM.exidx.text.TIM_TimeBaseInit) refers to hal_tim.o(.text.TIM_TimeBaseInit) for [Anonymous Symbol]
    hal_tim.o(.ARM.exidx.text.TIM_OC1Init) refers to hal_tim.o(.text.TIM_OC1Init) for [Anonymous Symbol]
    hal_tim.o(.ARM.exidx.text.TIM_OC2Init) refers to hal_tim.o(.text.TIM_OC2Init) for [Anonymous Symbol]
    hal_tim.o(.ARM.exidx.text.TIM_OC3Init) refers to hal_tim.o(.text.TIM_OC3Init) for [Anonymous Symbol]
    hal_tim.o(.ARM.exidx.text.TIM_OC4Init) refers to hal_tim.o(.text.TIM_OC4Init) for [Anonymous Symbol]
    hal_tim.o(.ARM.exidx.text.TIM_ICInit) refers to hal_tim.o(.text.TIM_ICInit) for [Anonymous Symbol]
    hal_tim.o(.ARM.exidx.text.TIM_SetIC1Prescaler) refers to hal_tim.o(.text.TIM_SetIC1Prescaler) for [Anonymous Symbol]
    hal_tim.o(.ARM.exidx.text.TIM_SetIC2Prescaler) refers to hal_tim.o(.text.TIM_SetIC2Prescaler) for [Anonymous Symbol]
    hal_tim.o(.ARM.exidx.text.TIM_SetIC3Prescaler) refers to hal_tim.o(.text.TIM_SetIC3Prescaler) for [Anonymous Symbol]
    hal_tim.o(.ARM.exidx.text.TIM_SetIC4Prescaler) refers to hal_tim.o(.text.TIM_SetIC4Prescaler) for [Anonymous Symbol]
    hal_tim.o(.ARM.exidx.text.TIM_PWMIConfig) refers to hal_tim.o(.text.TIM_PWMIConfig) for [Anonymous Symbol]
    hal_tim.o(.ARM.exidx.text.TIM_BDTRConfig) refers to hal_tim.o(.text.TIM_BDTRConfig) for [Anonymous Symbol]
    hal_tim.o(.ARM.exidx.text.TIM_TimeBaseStructInit) refers to hal_tim.o(.text.TIM_TimeBaseStructInit) for [Anonymous Symbol]
    hal_tim.o(.ARM.exidx.text.TIM_OCStructInit) refers to hal_tim.o(.text.TIM_OCStructInit) for [Anonymous Symbol]
    hal_tim.o(.ARM.exidx.text.TIM_ICStructInit) refers to hal_tim.o(.text.TIM_ICStructInit) for [Anonymous Symbol]
    hal_tim.o(.ARM.exidx.text.TIM_BDTRStructInit) refers to hal_tim.o(.text.TIM_BDTRStructInit) for [Anonymous Symbol]
    hal_tim.o(.ARM.exidx.text.TIM_Cmd) refers to hal_tim.o(.text.TIM_Cmd) for [Anonymous Symbol]
    hal_tim.o(.ARM.exidx.text.TIM_CtrlPWMOutputs) refers to hal_tim.o(.text.TIM_CtrlPWMOutputs) for [Anonymous Symbol]
    hal_tim.o(.ARM.exidx.text.TIM_ITConfig) refers to hal_tim.o(.text.TIM_ITConfig) for [Anonymous Symbol]
    hal_tim.o(.ARM.exidx.text.TIM_GenerateEvent) refers to hal_tim.o(.text.TIM_GenerateEvent) for [Anonymous Symbol]
    hal_tim.o(.ARM.exidx.text.TIM_DMAConfig) refers to hal_tim.o(.text.TIM_DMAConfig) for [Anonymous Symbol]
    hal_tim.o(.ARM.exidx.text.TIM_DMACmd) refers to hal_tim.o(.text.TIM_DMACmd) for [Anonymous Symbol]
    hal_tim.o(.ARM.exidx.text.TIM_InternalClockConfig) refers to hal_tim.o(.text.TIM_InternalClockConfig) for [Anonymous Symbol]
    hal_tim.o(.ARM.exidx.text.TIM_ITRxExternalClockConfig) refers to hal_tim.o(.text.TIM_ITRxExternalClockConfig) for [Anonymous Symbol]
    hal_tim.o(.ARM.exidx.text.TIM_SelectInputTrigger) refers to hal_tim.o(.text.TIM_SelectInputTrigger) for [Anonymous Symbol]
    hal_tim.o(.ARM.exidx.text.TIM_TIxExternalClockConfig) refers to hal_tim.o(.text.TIM_TIxExternalClockConfig) for [Anonymous Symbol]
    hal_tim.o(.ARM.exidx.text.TIM_ETRConfig) refers to hal_tim.o(.text.TIM_ETRConfig) for [Anonymous Symbol]
    hal_tim.o(.ARM.exidx.text.TIM_ETRClockMode1Config) refers to hal_tim.o(.text.TIM_ETRClockMode1Config) for [Anonymous Symbol]
    hal_tim.o(.ARM.exidx.text.TIM_ETRClockMode2Config) refers to hal_tim.o(.text.TIM_ETRClockMode2Config) for [Anonymous Symbol]
    hal_tim.o(.ARM.exidx.text.TIM_PrescalerConfig) refers to hal_tim.o(.text.TIM_PrescalerConfig) for [Anonymous Symbol]
    hal_tim.o(.ARM.exidx.text.TIM_CounterModeConfig) refers to hal_tim.o(.text.TIM_CounterModeConfig) for [Anonymous Symbol]
    hal_tim.o(.ARM.exidx.text.TIM_EncoderInterfaceConfig) refers to hal_tim.o(.text.TIM_EncoderInterfaceConfig) for [Anonymous Symbol]
    hal_tim.o(.ARM.exidx.text.TIM_ForcedOC1Config) refers to hal_tim.o(.text.TIM_ForcedOC1Config) for [Anonymous Symbol]
    hal_tim.o(.ARM.exidx.text.TIM_ForcedOC2Config) refers to hal_tim.o(.text.TIM_ForcedOC2Config) for [Anonymous Symbol]
    hal_tim.o(.ARM.exidx.text.TIM_ForcedOC3Config) refers to hal_tim.o(.text.TIM_ForcedOC3Config) for [Anonymous Symbol]
    hal_tim.o(.ARM.exidx.text.TIM_ForcedOC4Config) refers to hal_tim.o(.text.TIM_ForcedOC4Config) for [Anonymous Symbol]
    hal_tim.o(.ARM.exidx.text.TIM_ARRPreloadConfig) refers to hal_tim.o(.text.TIM_ARRPreloadConfig) for [Anonymous Symbol]
    hal_tim.o(.ARM.exidx.text.TIM_SelectCOM) refers to hal_tim.o(.text.TIM_SelectCOM) for [Anonymous Symbol]
    hal_tim.o(.ARM.exidx.text.TIM_SelectCCDMA) refers to hal_tim.o(.text.TIM_SelectCCDMA) for [Anonymous Symbol]
    hal_tim.o(.ARM.exidx.text.TIM_CCPreloadControl) refers to hal_tim.o(.text.TIM_CCPreloadControl) for [Anonymous Symbol]
    hal_tim.o(.ARM.exidx.text.TIM_OC1PreloadConfig) refers to hal_tim.o(.text.TIM_OC1PreloadConfig) for [Anonymous Symbol]
    hal_tim.o(.ARM.exidx.text.TIM_OC2PreloadConfig) refers to hal_tim.o(.text.TIM_OC2PreloadConfig) for [Anonymous Symbol]
    hal_tim.o(.ARM.exidx.text.TIM_OC3PreloadConfig) refers to hal_tim.o(.text.TIM_OC3PreloadConfig) for [Anonymous Symbol]
    hal_tim.o(.ARM.exidx.text.TIM_OC4PreloadConfig) refers to hal_tim.o(.text.TIM_OC4PreloadConfig) for [Anonymous Symbol]
    hal_tim.o(.ARM.exidx.text.TIM_OC1FastConfig) refers to hal_tim.o(.text.TIM_OC1FastConfig) for [Anonymous Symbol]
    hal_tim.o(.ARM.exidx.text.TIM_OC2FastConfig) refers to hal_tim.o(.text.TIM_OC2FastConfig) for [Anonymous Symbol]
    hal_tim.o(.ARM.exidx.text.TIM_OC3FastConfig) refers to hal_tim.o(.text.TIM_OC3FastConfig) for [Anonymous Symbol]
    hal_tim.o(.ARM.exidx.text.TIM_OC4FastConfig) refers to hal_tim.o(.text.TIM_OC4FastConfig) for [Anonymous Symbol]
    hal_tim.o(.ARM.exidx.text.TIM_ClearOC1Ref) refers to hal_tim.o(.text.TIM_ClearOC1Ref) for [Anonymous Symbol]
    hal_tim.o(.ARM.exidx.text.TIM_ClearOC2Ref) refers to hal_tim.o(.text.TIM_ClearOC2Ref) for [Anonymous Symbol]
    hal_tim.o(.ARM.exidx.text.TIM_ClearOC3Ref) refers to hal_tim.o(.text.TIM_ClearOC3Ref) for [Anonymous Symbol]
    hal_tim.o(.ARM.exidx.text.TIM_ClearOC4Ref) refers to hal_tim.o(.text.TIM_ClearOC4Ref) for [Anonymous Symbol]
    hal_tim.o(.ARM.exidx.text.TIM_OC1PolarityConfig) refers to hal_tim.o(.text.TIM_OC1PolarityConfig) for [Anonymous Symbol]
    hal_tim.o(.ARM.exidx.text.TIM_OC1NPolarityConfig) refers to hal_tim.o(.text.TIM_OC1NPolarityConfig) for [Anonymous Symbol]
    hal_tim.o(.ARM.exidx.text.TIM_OC2PolarityConfig) refers to hal_tim.o(.text.TIM_OC2PolarityConfig) for [Anonymous Symbol]
    hal_tim.o(.ARM.exidx.text.TIM_OC2NPolarityConfig) refers to hal_tim.o(.text.TIM_OC2NPolarityConfig) for [Anonymous Symbol]
    hal_tim.o(.ARM.exidx.text.TIM_OC3PolarityConfig) refers to hal_tim.o(.text.TIM_OC3PolarityConfig) for [Anonymous Symbol]
    hal_tim.o(.ARM.exidx.text.TIM_OC3NPolarityConfig) refers to hal_tim.o(.text.TIM_OC3NPolarityConfig) for [Anonymous Symbol]
    hal_tim.o(.ARM.exidx.text.TIM_OC4PolarityConfig) refers to hal_tim.o(.text.TIM_OC4PolarityConfig) for [Anonymous Symbol]
    hal_tim.o(.ARM.exidx.text.TIM_CCxCmd) refers to hal_tim.o(.text.TIM_CCxCmd) for [Anonymous Symbol]
    hal_tim.o(.ARM.exidx.text.TIM_CCxNCmd) refers to hal_tim.o(.text.TIM_CCxNCmd) for [Anonymous Symbol]
    hal_tim.o(.ARM.exidx.text.TIM_SelectOCxM) refers to hal_tim.o(.text.TIM_SelectOCxM) for [Anonymous Symbol]
    hal_tim.o(.ARM.exidx.text.TIM_UpdateDisableConfig) refers to hal_tim.o(.text.TIM_UpdateDisableConfig) for [Anonymous Symbol]
    hal_tim.o(.ARM.exidx.text.TIM_UpdateRequestConfig) refers to hal_tim.o(.text.TIM_UpdateRequestConfig) for [Anonymous Symbol]
    hal_tim.o(.ARM.exidx.text.TIM_SelectHallSensor) refers to hal_tim.o(.text.TIM_SelectHallSensor) for [Anonymous Symbol]
    hal_tim.o(.ARM.exidx.text.TIM_SelectOnePulseMode) refers to hal_tim.o(.text.TIM_SelectOnePulseMode) for [Anonymous Symbol]
    hal_tim.o(.ARM.exidx.text.TIM_SelectOutputTrigger) refers to hal_tim.o(.text.TIM_SelectOutputTrigger) for [Anonymous Symbol]
    hal_tim.o(.ARM.exidx.text.TIM_SelectSlaveMode) refers to hal_tim.o(.text.TIM_SelectSlaveMode) for [Anonymous Symbol]
    hal_tim.o(.ARM.exidx.text.TIM_SelectMasterSlaveMode) refers to hal_tim.o(.text.TIM_SelectMasterSlaveMode) for [Anonymous Symbol]
    hal_tim.o(.ARM.exidx.text.TIM_SetAutoreload) refers to hal_tim.o(.text.TIM_SetAutoreload) for [Anonymous Symbol]
    hal_tim.o(.ARM.exidx.text.TIM_SetClockDivision) refers to hal_tim.o(.text.TIM_SetClockDivision) for [Anonymous Symbol]
    hal_tim.o(.ARM.exidx.text.TIM_SetCounter) refers to hal_tim.o(.text.TIM_SetCounter) for [Anonymous Symbol]
    hal_tim.o(.ARM.exidx.text.TIM_SetCompare1) refers to hal_tim.o(.text.TIM_SetCompare1) for [Anonymous Symbol]
    hal_tim.o(.ARM.exidx.text.TIM_SetCompare2) refers to hal_tim.o(.text.TIM_SetCompare2) for [Anonymous Symbol]
    hal_tim.o(.ARM.exidx.text.TIM_SetCompare3) refers to hal_tim.o(.text.TIM_SetCompare3) for [Anonymous Symbol]
    hal_tim.o(.ARM.exidx.text.TIM_SetCompare4) refers to hal_tim.o(.text.TIM_SetCompare4) for [Anonymous Symbol]
    hal_tim.o(.ARM.exidx.text.TIM_GetCapture1) refers to hal_tim.o(.text.TIM_GetCapture1) for [Anonymous Symbol]
    hal_tim.o(.ARM.exidx.text.TIM_GetCapture2) refers to hal_tim.o(.text.TIM_GetCapture2) for [Anonymous Symbol]
    hal_tim.o(.ARM.exidx.text.TIM_GetCapture3) refers to hal_tim.o(.text.TIM_GetCapture3) for [Anonymous Symbol]
    hal_tim.o(.ARM.exidx.text.TIM_GetCapture4) refers to hal_tim.o(.text.TIM_GetCapture4) for [Anonymous Symbol]
    hal_tim.o(.ARM.exidx.text.TIM_GetCounter) refers to hal_tim.o(.text.TIM_GetCounter) for [Anonymous Symbol]
    hal_tim.o(.ARM.exidx.text.TIM_GetPrescaler) refers to hal_tim.o(.text.TIM_GetPrescaler) for [Anonymous Symbol]
    hal_tim.o(.ARM.exidx.text.TIM_GetFlagStatus) refers to hal_tim.o(.text.TIM_GetFlagStatus) for [Anonymous Symbol]
    hal_tim.o(.ARM.exidx.text.TIM_ClearFlag) refers to hal_tim.o(.text.TIM_ClearFlag) for [Anonymous Symbol]
    hal_tim.o(.ARM.exidx.text.TIM_GetITStatus) refers to hal_tim.o(.text.TIM_GetITStatus) for [Anonymous Symbol]
    hal_tim.o(.ARM.exidx.text.TIM_ClearITPendingBit) refers to hal_tim.o(.text.TIM_ClearITPendingBit) for [Anonymous Symbol]
    hal_tim.o(.ARM.exidx.text.exTIM_SetIC1Plority) refers to hal_tim.o(.text.exTIM_SetIC1Plority) for [Anonymous Symbol]
    hal_tim.o(.ARM.exidx.text.exTIM_SetIC2Plority) refers to hal_tim.o(.text.exTIM_SetIC2Plority) for [Anonymous Symbol]
    hal_tim.o(.ARM.exidx.text.exTIM_SetIC3Plority) refers to hal_tim.o(.text.exTIM_SetIC3Plority) for [Anonymous Symbol]
    hal_tim.o(.ARM.exidx.text.exTIM_SetIC4Plority) refers to hal_tim.o(.text.exTIM_SetIC4Plority) for [Anonymous Symbol]
    hal_tim.o(.ARM.exidx.text.exTIM_SetCompare5) refers to hal_tim.o(.text.exTIM_SetCompare5) for [Anonymous Symbol]
    hal_tim.o(.ARM.exidx.text.exTIM_GetCapture5) refers to hal_tim.o(.text.exTIM_GetCapture5) for [Anonymous Symbol]
    hal_tim.o(.ARM.exidx.text.exTIM_OC5Init) refers to hal_tim.o(.text.exTIM_OC5Init) for [Anonymous Symbol]
    hal_tim.o(.ARM.exidx.text.exTIM_OC5PreloadConfig) refers to hal_tim.o(.text.exTIM_OC5PreloadConfig) for [Anonymous Symbol]
    hal_tim.o(.ARM.exidx.text.exTIM_OC5PolarityConfig) refers to hal_tim.o(.text.exTIM_OC5PolarityConfig) for [Anonymous Symbol]
    hal_tim.o(.ARM.exidx.text.exTIM_OC5FastConfig) refers to hal_tim.o(.text.exTIM_OC5FastConfig) for [Anonymous Symbol]
    hal_tim.o(.ARM.exidx.text.exTIM_ClearOC5Ref) refers to hal_tim.o(.text.exTIM_ClearOC5Ref) for [Anonymous Symbol]
    hal_tim.o(.ARM.exidx.text.exTIM_DirectOutput) refers to hal_tim.o(.text.exTIM_DirectOutput) for [Anonymous Symbol]
    hal_uart.o(.text.UART_DeInit) refers to hal_rcc.o(.text.exRCC_APB1PeriphReset) for exRCC_APB1PeriphReset
    hal_uart.o(.text.UART_DeInit) refers to hal_rcc.o(.text.exRCC_APB2PeriphReset) for exRCC_APB2PeriphReset
    hal_uart.o(.ARM.exidx.text.UART_DeInit) refers to hal_uart.o(.text.UART_DeInit) for [Anonymous Symbol]
    hal_uart.o(.text.UART_Init) refers to hal_rcc.o(.text.RCC_GetPCLK1Freq) for RCC_GetPCLK1Freq
    hal_uart.o(.text.UART_Init) refers to hal_rcc.o(.text.RCC_GetPCLK2Freq) for RCC_GetPCLK2Freq
    hal_uart.o(.text.UART_Init) refers to aeabi_sdivfast.o(.text_divfast) for __aeabi_uidiv
    hal_uart.o(.ARM.exidx.text.UART_Init) refers to hal_uart.o(.text.UART_Init) for [Anonymous Symbol]
    hal_uart.o(.ARM.exidx.text.UART_StructInit) refers to hal_uart.o(.text.UART_StructInit) for [Anonymous Symbol]
    hal_uart.o(.ARM.exidx.text.UART_Cmd) refers to hal_uart.o(.text.UART_Cmd) for [Anonymous Symbol]
    hal_uart.o(.ARM.exidx.text.UART_ITConfig) refers to hal_uart.o(.text.UART_ITConfig) for [Anonymous Symbol]
    hal_uart.o(.ARM.exidx.text.UART_DMACmd) refers to hal_uart.o(.text.UART_DMACmd) for [Anonymous Symbol]
    hal_uart.o(.ARM.exidx.text.UART_SendData) refers to hal_uart.o(.text.UART_SendData) for [Anonymous Symbol]
    hal_uart.o(.ARM.exidx.text.UART_ReceiveData) refers to hal_uart.o(.text.UART_ReceiveData) for [Anonymous Symbol]
    hal_uart.o(.ARM.exidx.text.UART_GetFlagStatus) refers to hal_uart.o(.text.UART_GetFlagStatus) for [Anonymous Symbol]
    hal_uart.o(.ARM.exidx.text.UART_GetITStatus) refers to hal_uart.o(.text.UART_GetITStatus) for [Anonymous Symbol]
    hal_uart.o(.ARM.exidx.text.UART_ClearITPendingBit) refers to hal_uart.o(.text.UART_ClearITPendingBit) for [Anonymous Symbol]
    hal_uart.o(.ARM.exidx.text.UART_WakeUpConfig) refers to hal_uart.o(.text.UART_WakeUpConfig) for [Anonymous Symbol]
    hal_uart.o(.ARM.exidx.text.UART_ReceiverWakeUpCmd) refers to hal_uart.o(.text.UART_ReceiverWakeUpCmd) for [Anonymous Symbol]
    hal_uart.o(.ARM.exidx.text.UART_SetRXAddress) refers to hal_uart.o(.text.UART_SetRXAddress) for [Anonymous Symbol]
    hal_uart.o(.ARM.exidx.text.UART_SetRXMASK) refers to hal_uart.o(.text.UART_SetRXMASK) for [Anonymous Symbol]
    hal_uart.o(.ARM.exidx.text.UART_Enable9bit) refers to hal_uart.o(.text.UART_Enable9bit) for [Anonymous Symbol]
    hal_uart.o(.ARM.exidx.text.UART_Set9bitLevel) refers to hal_uart.o(.text.UART_Set9bitLevel) for [Anonymous Symbol]
    hal_uart.o(.ARM.exidx.text.UART_Set9bitPolarity) refers to hal_uart.o(.text.UART_Set9bitPolarity) for [Anonymous Symbol]
    hal_uart.o(.ARM.exidx.text.UART_Set9bitAutomaticToggle) refers to hal_uart.o(.text.UART_Set9bitAutomaticToggle) for [Anonymous Symbol]
    hal_uart.o(.ARM.exidx.text.UART_HalfDuplexCmd) refers to hal_uart.o(.text.UART_HalfDuplexCmd) for [Anonymous Symbol]
    hal_uart.o(.ARM.exidx.text.UART_SetGuardTime) refers to hal_uart.o(.text.UART_SetGuardTime) for [Anonymous Symbol]
    hal_uart.o(.ARM.exidx.text.UART_SmartCardCmd) refers to hal_uart.o(.text.UART_SmartCardCmd) for [Anonymous Symbol]
    hal_uart.o(.ARM.exidx.text.UART_SmartCardNACKCmd) refers to hal_uart.o(.text.UART_SmartCardNACKCmd) for [Anonymous Symbol]
    hal_uart.o(.ARM.exidx.text.UART_SendBreak) refers to hal_uart.o(.text.UART_SendBreak) for [Anonymous Symbol]
    hal_uid.o(.text.GetChipUID) refers to hal_uid.o(.bss.device_id_data) for device_id_data
    hal_uid.o(.ARM.exidx.text.GetChipUID) refers to hal_uid.o(.text.GetChipUID) for [Anonymous Symbol]
    hal_ver.o(.ARM.exidx.text.Get_MM32LibVersion) refers to hal_ver.o(.text.Get_MM32LibVersion) for [Anonymous Symbol]
    hal_ver.o(.ARM.exidx.text.Get_MM32LibReleaseDate) refers to hal_ver.o(.text.Get_MM32LibReleaseDate) for [Anonymous Symbol]
    hal_ver.o(.ARM.exidx.text.Get_ChipsetREVID) refers to hal_ver.o(.text.Get_ChipsetREVID) for [Anonymous Symbol]
    hal_ver.o(.ARM.exidx.text.Get_ChipsetDEVID) refers to hal_ver.o(.text.Get_ChipsetDEVID) for [Anonymous Symbol]
    hal_ver.o(.ARM.exidx.text.Get_ChipsetUIDw0) refers to hal_ver.o(.text.Get_ChipsetUIDw0) for [Anonymous Symbol]
    hal_ver.o(.ARM.exidx.text.Get_ChipsetUIDw1) refers to hal_ver.o(.text.Get_ChipsetUIDw1) for [Anonymous Symbol]
    hal_ver.o(.ARM.exidx.text.Get_ChipsetUIDw2) refers to hal_ver.o(.text.Get_ChipsetUIDw2) for [Anonymous Symbol]
    hal_wwdg.o(.text.WWDG_DeInit) refers to hal_rcc.o(.text.exRCC_APB1PeriphReset) for exRCC_APB1PeriphReset
    hal_wwdg.o(.ARM.exidx.text.WWDG_DeInit) refers to hal_wwdg.o(.text.WWDG_DeInit) for [Anonymous Symbol]
    hal_wwdg.o(.ARM.exidx.text.WWDG_SetPrescaler) refers to hal_wwdg.o(.text.WWDG_SetPrescaler) for [Anonymous Symbol]
    hal_wwdg.o(.ARM.exidx.text.WWDG_SetWindowValue) refers to hal_wwdg.o(.text.WWDG_SetWindowValue) for [Anonymous Symbol]
    hal_wwdg.o(.ARM.exidx.text.WWDG_EnableIT) refers to hal_wwdg.o(.text.WWDG_EnableIT) for [Anonymous Symbol]
    hal_wwdg.o(.ARM.exidx.text.WWDG_SetCounter) refers to hal_wwdg.o(.text.WWDG_SetCounter) for [Anonymous Symbol]
    hal_wwdg.o(.ARM.exidx.text.WWDG_GetCounter) refers to hal_wwdg.o(.text.WWDG_GetCounter) for [Anonymous Symbol]
    hal_wwdg.o(.ARM.exidx.text.WWDG_Enable) refers to hal_wwdg.o(.text.WWDG_Enable) for [Anonymous Symbol]
    hal_wwdg.o(.ARM.exidx.text.WWDG_GetFlagStatus) refers to hal_wwdg.o(.text.WWDG_GetFlagStatus) for [Anonymous Symbol]
    hal_wwdg.o(.ARM.exidx.text.WWDG_ClearFlag) refers to hal_wwdg.o(.text.WWDG_ClearFlag) for [Anonymous Symbol]
    startup_mm32spin06xx_s_keil.o(STACK) refers (Special) to heapauxi.o(.text) for __use_two_region_memory
    startup_mm32spin06xx_s_keil.o(HEAP) refers (Special) to heapauxi.o(.text) for __use_two_region_memory
    startup_mm32spin06xx_s_keil.o(RESET) refers (Special) to heapauxi.o(.text) for __use_two_region_memory
    startup_mm32spin06xx_s_keil.o(RESET) refers to startup_mm32spin06xx_s_keil.o(STACK) for __initial_sp
    startup_mm32spin06xx_s_keil.o(RESET) refers to startup_mm32spin06xx_s_keil.o(.text) for Reset_Handler
    startup_mm32spin06xx_s_keil.o(RESET) refers to delay.o(.text.SysTick_Handler) for SysTick_Handler
    startup_mm32spin06xx_s_keil.o(RESET) refers to interrupt.o(.text.DMA1_Channel2_3_IRQHandler) for DMA1_Channel2_3_IRQHandler
    startup_mm32spin06xx_s_keil.o(RESET) refers to interrupt.o(.text.DMA1_Channel4_5_IRQHandler) for DMA1_Channel4_5_IRQHandler
    startup_mm32spin06xx_s_keil.o(RESET) refers to interrupt.o(.text.ADC1_COMP_IRQHandler) for ADC1_COMP_IRQHandler
    startup_mm32spin06xx_s_keil.o(RESET) refers to interrupt.o(.text.TIM1_BRK_UP_TRG_COM_IRQHandler) for TIM1_BRK_UP_TRG_COM_IRQHandler
    startup_mm32spin06xx_s_keil.o(RESET) refers to interrupt.o(.text.TIM2_IRQHandler) for TIM2_IRQHandler
    startup_mm32spin06xx_s_keil.o(RESET) refers to interrupt.o(.text.TIM3_IRQHandler) for TIM3_IRQHandler
    startup_mm32spin06xx_s_keil.o(.text) refers (Special) to heapauxi.o(.text) for __use_two_region_memory
    startup_mm32spin06xx_s_keil.o(.text) refers to startup_mm32spin06xx_s_keil.o(STACK) for __initial_sp
    startup_mm32spin06xx_s_keil.o(.text) refers to system_mm32spin06xx_s.o(.text.SystemInit) for SystemInit
    startup_mm32spin06xx_s_keil.o(.text) refers to __main.o(!!!main) for __main
    startup_mm32spin06xx_s_keil.o(.text) refers to startup_mm32spin06xx_s_keil.o(HEAP) for Heap_Mem
    system_mm32spin06xx_s.o(.text.SystemInit) refers to aeabi_sdivfast.o(.text_divfast) for __aeabi_uidiv
    system_mm32spin06xx_s.o(.text.SystemInit) refers to system_mm32spin06xx_s.o(.data.SystemCoreClock) for SystemCoreClock
    system_mm32spin06xx_s.o(.ARM.exidx.text.SystemInit) refers to system_mm32spin06xx_s.o(.text.SystemInit) for [Anonymous Symbol]
    system_mm32spin06xx_s.o(.text.AutoCalPllFactor) refers to aeabi_sdivfast.o(.text_divfast) for __aeabi_uidiv
    system_mm32spin06xx_s.o(.ARM.exidx.text.AutoCalPllFactor) refers to system_mm32spin06xx_s.o(.text.AutoCalPllFactor) for [Anonymous Symbol]
    rt_memcpy.o(.text) refers to rt_memcpy.o(.emb_text) for __aeabi_memcpy4
    __main.o(!!!main) refers to __rtentry.o(.ARM.Collect$$rtentry$$00000000) for __rt_entry
    d2f.o(.text) refers (Special) to usenofp.o(x$fpl$usenofp) for __I$use$fp
    ddiv.o(.text) refers (Special) to usenofp.o(x$fpl$usenofp) for __I$use$fp
    ddiv.o(.text) refers to ddiv.o(.constdata) for .constdata
    ddiv.o(.constdata) refers (Special) to usenofp.o(x$fpl$usenofp) for __I$use$fp
    dfixi.o(.text) refers (Special) to usenofp.o(x$fpl$usenofp) for __I$use$fp
    dflti.o(.text) refers (Special) to usenofp.o(x$fpl$usenofp) for __I$use$fp
    dmul.o(.text) refers (Special) to usenofp.o(x$fpl$usenofp) for __I$use$fp
    f2d.o(.text) refers (Special) to usenofp.o(x$fpl$usenofp) for __I$use$fp
    fdiv.o(.text) refers (Special) to usenofp.o(x$fpl$usenofp) for __I$use$fp
    fdiv.o(.text) refers to fdiv.o(.constdata) for .constdata
    fdiv.o(.constdata) refers (Special) to usenofp.o(x$fpl$usenofp) for __I$use$fp
    ffixi.o(.text) refers (Special) to usenofp.o(x$fpl$usenofp) for __I$use$fp
    fflti.o(.text) refers (Special) to usenofp.o(x$fpl$usenofp) for __I$use$fp
    fmul.o(x$fpl$fmul) refers (Special) to usenofp.o(x$fpl$usenofp) for __I$use$fp
    __rtentry.o(.ARM.Collect$$rtentry$$00000000) refers (Special) to __rtentry2.o(.ARM.Collect$$rtentry$$0000000A) for __rt_entry_li
    __rtentry.o(.ARM.Collect$$rtentry$$00000000) refers (Special) to __rtentry2.o(.ARM.Collect$$rtentry$$0000000D) for __rt_entry_main
    __rtentry.o(.ARM.Collect$$rtentry$$00000000) refers (Special) to __rtentry2.o(.ARM.Collect$$rtentry$$0000000C) for __rt_entry_postli_1
    __rtentry.o(.ARM.Collect$$rtentry$$00000000) refers (Special) to __rtentry2.o(.ARM.Collect$$rtentry$$00000009) for __rt_entry_postsh_1
    __rtentry.o(.ARM.Collect$$rtentry$$00000000) refers (Special) to __rtentry2.o(.ARM.Collect$$rtentry$$00000002) for __rt_entry_presh_1
    __rtentry.o(.ARM.Collect$$rtentry$$00000000) refers (Special) to __rtentry4.o(.ARM.Collect$$rtentry$$00000004) for __rt_entry_sh
    aeabi_idiv0_sigfpe.o(.text) refers to rt_div0.o(.text) for __rt_div0
    __rtentry2.o(.ARM.Collect$$rtentry$$00000008) refers to boardinit2.o(.text) for _platform_post_stackheap_init
    __rtentry2.o(.ARM.Collect$$rtentry$$0000000A) refers to libinit.o(.ARM.Collect$$libinit$$00000000) for __rt_lib_init
    __rtentry2.o(.ARM.Collect$$rtentry$$0000000B) refers to boardinit3.o(.text) for _platform_post_lib_init
    __rtentry2.o(.ARM.Collect$$rtentry$$0000000D) refers to main.o(.text.main) for main
    __rtentry2.o(.ARM.Collect$$rtentry$$0000000D) refers to exit.o(.text) for exit
    __rtentry2.o(.ARM.exidx) refers to __rtentry2.o(.ARM.Collect$$rtentry$$00000001) for .ARM.Collect$$rtentry$$00000001
    __rtentry2.o(.ARM.exidx) refers to __rtentry2.o(.ARM.Collect$$rtentry$$00000008) for .ARM.Collect$$rtentry$$00000008
    __rtentry2.o(.ARM.exidx) refers to __rtentry2.o(.ARM.Collect$$rtentry$$0000000A) for .ARM.Collect$$rtentry$$0000000A
    __rtentry2.o(.ARM.exidx) refers to __rtentry2.o(.ARM.Collect$$rtentry$$0000000B) for .ARM.Collect$$rtentry$$0000000B
    __rtentry2.o(.ARM.exidx) refers to __rtentry2.o(.ARM.Collect$$rtentry$$0000000D) for .ARM.Collect$$rtentry$$0000000D
    __rtentry4.o(.ARM.Collect$$rtentry$$00000004) refers to sys_stackheap_outer.o(.text) for __user_setup_stackheap
    __rtentry4.o(.ARM.exidx) refers to __rtentry4.o(.ARM.Collect$$rtentry$$00000004) for .ARM.Collect$$rtentry$$00000004
    rt_div0.o(.text) refers to defsig_fpe_outer.o(.text) for __rt_SIGFPE
    sys_stackheap_outer.o(.text) refers to libspace.o(.text) for __user_perproc_libspace
    sys_stackheap_outer.o(.text) refers to startup_mm32spin06xx_s_keil.o(.text) for __user_initial_stackheap
    sys_stackheap_outer.o(__vectab_stack_and_reset_area) refers to tempstk.o(.text) for __temporary_stack_top
    sys_stackheap_outer.o(__vectab_stack_and_reset_area) refers to __main.o(!!!main) for __main
    exit.o(.text) refers to rtexit.o(.ARM.Collect$$rtexit$$00000000) for __rt_exit
    defsig_fpe_outer.o(.text) refers to defsig_fpe_inner.o(.text) for __rt_SIGFPE_inner
    defsig_fpe_outer.o(.text) refers to defsig_exit.o(.text) for __sig_exit
    defsig_fpe_formal.o(.text) refers to rt_raise.o(.text) for __rt_raise
    libinit.o(.ARM.Collect$$libinit$$00000000) refers (Special) to libinit2.o(.ARM.Collect$$libinit$$00000030) for __rt_lib_init_alloca_1
    libinit.o(.ARM.Collect$$libinit$$00000000) refers (Special) to libinit2.o(.ARM.Collect$$libinit$$0000002E) for __rt_lib_init_argv_1
    libinit.o(.ARM.Collect$$libinit$$00000000) refers (Special) to libinit2.o(.ARM.Collect$$libinit$$0000001D) for __rt_lib_init_atexit_1
    libinit.o(.ARM.Collect$$libinit$$00000000) refers (Special) to libinit2.o(.ARM.Collect$$libinit$$00000023) for __rt_lib_init_clock_1
    libinit.o(.ARM.Collect$$libinit$$00000000) refers (Special) to libinit2.o(.ARM.Collect$$libinit$$00000034) for __rt_lib_init_cpp_1
    libinit.o(.ARM.Collect$$libinit$$00000000) refers (Special) to libinit2.o(.ARM.Collect$$libinit$$00000032) for __rt_lib_init_exceptions_1
    libinit.o(.ARM.Collect$$libinit$$00000000) refers (Special) to libinit2.o(.ARM.Collect$$libinit$$00000002) for __rt_lib_init_fp_1
    libinit.o(.ARM.Collect$$libinit$$00000000) refers (Special) to libinit2.o(.ARM.Collect$$libinit$$00000021) for __rt_lib_init_fp_trap_1
    libinit.o(.ARM.Collect$$libinit$$00000000) refers (Special) to libinit2.o(.ARM.Collect$$libinit$$00000025) for __rt_lib_init_getenv_1
    libinit.o(.ARM.Collect$$libinit$$00000000) refers (Special) to libinit2.o(.ARM.Collect$$libinit$$0000000C) for __rt_lib_init_heap_1
    libinit.o(.ARM.Collect$$libinit$$00000000) refers (Special) to libinit2.o(.ARM.Collect$$libinit$$00000013) for __rt_lib_init_lc_collate_1
    libinit.o(.ARM.Collect$$libinit$$00000000) refers (Special) to libinit2.o(.ARM.Collect$$libinit$$00000015) for __rt_lib_init_lc_ctype_1
    libinit.o(.ARM.Collect$$libinit$$00000000) refers (Special) to libinit2.o(.ARM.Collect$$libinit$$00000017) for __rt_lib_init_lc_monetary_1
    libinit.o(.ARM.Collect$$libinit$$00000000) refers (Special) to libinit2.o(.ARM.Collect$$libinit$$00000019) for __rt_lib_init_lc_numeric_1
    libinit.o(.ARM.Collect$$libinit$$00000000) refers (Special) to libinit2.o(.ARM.Collect$$libinit$$0000001B) for __rt_lib_init_lc_time_1
    libinit.o(.ARM.Collect$$libinit$$00000000) refers (Special) to libinit2.o(.ARM.Collect$$libinit$$00000006) for __rt_lib_init_preinit_1
    libinit.o(.ARM.Collect$$libinit$$00000000) refers (Special) to libinit2.o(.ARM.Collect$$libinit$$00000010) for __rt_lib_init_rand_1
    libinit.o(.ARM.Collect$$libinit$$00000000) refers (Special) to libinit2.o(.ARM.Collect$$libinit$$00000004) for __rt_lib_init_relocate_pie_1
    libinit.o(.ARM.Collect$$libinit$$00000000) refers (Special) to libinit2.o(.ARM.Collect$$libinit$$00000035) for __rt_lib_init_return
    libinit.o(.ARM.Collect$$libinit$$00000000) refers (Special) to libinit2.o(.ARM.Collect$$libinit$$0000001F) for __rt_lib_init_signal_1
    libinit.o(.ARM.Collect$$libinit$$00000000) refers (Special) to libinit2.o(.ARM.Collect$$libinit$$00000027) for __rt_lib_init_stdio_1
    libinit.o(.ARM.Collect$$libinit$$00000000) refers (Special) to libinit2.o(.ARM.Collect$$libinit$$0000000E) for __rt_lib_init_user_alloc_1
    libspace.o(.text) refers to libspace.o(.bss) for __libspace_start
    rtexit.o(.ARM.Collect$$rtexit$$00000000) refers (Special) to rtexit2.o(.ARM.Collect$$rtexit$$00000004) for __rt_exit_exit
    rtexit.o(.ARM.Collect$$rtexit$$00000000) refers (Special) to rtexit2.o(.ARM.Collect$$rtexit$$00000003) for __rt_exit_ls
    rtexit.o(.ARM.Collect$$rtexit$$00000000) refers (Special) to rtexit2.o(.ARM.Collect$$rtexit$$00000002) for __rt_exit_prels_1
    rtexit.o(.ARM.exidx) refers (Special) to rtexit2.o(.ARM.Collect$$rtexit$$00000004) for __rt_exit_exit
    rtexit.o(.ARM.exidx) refers (Special) to rtexit2.o(.ARM.Collect$$rtexit$$00000003) for __rt_exit_ls
    rtexit.o(.ARM.exidx) refers (Special) to rtexit2.o(.ARM.Collect$$rtexit$$00000002) for __rt_exit_prels_1
    rtexit.o(.ARM.exidx) refers to rtexit.o(.ARM.Collect$$rtexit$$00000000) for .ARM.Collect$$rtexit$$00000000
    rt_raise.o(.text) refers to __raise.o(.text) for __raise
    rt_raise.o(.text) refers to sys_exit.o(.text) for _sys_exit
    defsig_exit.o(.text) refers to sys_exit.o(.text) for _sys_exit
    defsig_fpe_inner.o(.text) refers to defsig_general.o(.text) for __default_signal_display
    libinit2.o(.ARM.Collect$$libinit$$00000012) refers to libinit2.o(.ARM.Collect$$libinit$$00000011) for .ARM.Collect$$libinit$$00000011
    libinit2.o(.ARM.Collect$$libinit$$00000014) refers to libinit2.o(.ARM.Collect$$libinit$$00000011) for .ARM.Collect$$libinit$$00000011
    libinit2.o(.ARM.Collect$$libinit$$00000016) refers to libinit2.o(.ARM.Collect$$libinit$$00000011) for .ARM.Collect$$libinit$$00000011
    libinit2.o(.ARM.Collect$$libinit$$00000018) refers to libinit2.o(.ARM.Collect$$libinit$$00000011) for .ARM.Collect$$libinit$$00000011
    libinit2.o(.ARM.Collect$$libinit$$0000001A) refers to libinit2.o(.ARM.Collect$$libinit$$00000011) for .ARM.Collect$$libinit$$00000011
    libinit2.o(.ARM.Collect$$libinit$$00000028) refers to argv_veneer.o(.text) for __ARM_argv_veneer
    libinit2.o(.ARM.Collect$$libinit$$00000029) refers to argv_veneer.o(.text) for __ARM_argv_veneer
    sys_exit.o(.text) refers (Special) to use_no_semi.o(.text) for __I$use$semihosting
    sys_exit.o(.text) refers (Special) to indicate_semi.o(.text) for __semihosting_library_function
    sys_exit_hlt.o(.text) refers (Special) to use_no_semi.o(.text) for __I$use$semihosting
    sys_exit_hlt.o(.text) refers (Special) to indicate_semi.o(.text) for __semihosting_library_function
    rtexit2.o(.ARM.Collect$$rtexit$$00000003) refers to libshutdown.o(.ARM.Collect$$libshutdown$$00000000) for __rt_lib_shutdown
    rtexit2.o(.ARM.Collect$$rtexit$$00000004) refers to sys_exit.o(.text) for _sys_exit
    rtexit2.o(.ARM.exidx) refers to rtexit2.o(.ARM.Collect$$rtexit$$00000001) for .ARM.Collect$$rtexit$$00000001
    rtexit2.o(.ARM.exidx) refers to rtexit2.o(.ARM.Collect$$rtexit$$00000003) for .ARM.Collect$$rtexit$$00000003
    rtexit2.o(.ARM.exidx) refers to rtexit2.o(.ARM.Collect$$rtexit$$00000004) for .ARM.Collect$$rtexit$$00000004
    __raise.o(.text) refers to defsig.o(CL$$defsig) for __default_signal_handler
    defsig_general.o(.text) refers to sys_wrch.o(.text) for _ttywrch
    sys_wrch.o(.text) refers (Special) to use_no_semi.o(.text) for __I$use$semihosting
    sys_wrch.o(.text) refers (Special) to indicate_semi.o(.text) for __semihosting_library_function
    sys_wrch_hlt.o(.text) refers (Special) to use_no_semi.o(.text) for __I$use$semihosting
    sys_wrch_hlt.o(.text) refers (Special) to indicate_semi.o(.text) for __semihosting_library_function
    defsig.o(CL$$defsig) refers to defsig_fpe_inner.o(.text) for __rt_SIGFPE_inner
    defsig.o(CL$$defsig) refers to defsig_rtmem_inner.o(.text) for __rt_SIGRTMEM_inner
    _get_argv_nomalloc.o(.text) refers (Special) to hrguard.o(.text) for __heap_region$guard
    _get_argv_nomalloc.o(.text) refers to defsig_rtmem_outer.o(.text) for __rt_SIGRTMEM
    _get_argv_nomalloc.o(.text) refers to sys_command.o(.text) for _sys_command_string
    libshutdown.o(.ARM.Collect$$libshutdown$$00000000) refers (Special) to libshutdown2.o(.ARM.Collect$$libshutdown$$00000002) for __rt_lib_shutdown_cpp_1
    libshutdown.o(.ARM.Collect$$libshutdown$$00000000) refers (Special) to libshutdown2.o(.ARM.Collect$$libshutdown$$00000007) for __rt_lib_shutdown_fp_trap_1
    libshutdown.o(.ARM.Collect$$libshutdown$$00000000) refers (Special) to libshutdown2.o(.ARM.Collect$$libshutdown$$0000000F) for __rt_lib_shutdown_heap_1
    libshutdown.o(.ARM.Collect$$libshutdown$$00000000) refers (Special) to libshutdown2.o(.ARM.Collect$$libshutdown$$00000010) for __rt_lib_shutdown_return
    libshutdown.o(.ARM.Collect$$libshutdown$$00000000) refers (Special) to libshutdown2.o(.ARM.Collect$$libshutdown$$0000000A) for __rt_lib_shutdown_signal_1
    libshutdown.o(.ARM.Collect$$libshutdown$$00000000) refers (Special) to libshutdown2.o(.ARM.Collect$$libshutdown$$00000004) for __rt_lib_shutdown_stdio_1
    libshutdown.o(.ARM.Collect$$libshutdown$$00000000) refers (Special) to libshutdown2.o(.ARM.Collect$$libshutdown$$0000000C) for __rt_lib_shutdown_user_alloc_1
    sys_command.o(.text) refers (Special) to use_no_semi.o(.text) for __I$use$semihosting
    sys_command.o(.text) refers (Special) to indicate_semi.o(.text) for __semihosting_library_function
    sys_command_hlt.o(.text) refers (Special) to use_no_semi.o(.text) for __I$use$semihosting
    sys_command_hlt.o(.text) refers (Special) to indicate_semi.o(.text) for __semihosting_library_function
    defsig_abrt_inner.o(.text) refers to defsig_general.o(.text) for __default_signal_display
    defsig_rtred_inner.o(.text) refers to defsig_general.o(.text) for __default_signal_display
    defsig_rtmem_inner.o(.text) refers to defsig_general.o(.text) for __default_signal_display
    defsig_rtmem_outer.o(.text) refers to defsig_rtmem_inner.o(.text) for __rt_SIGRTMEM_inner
    defsig_rtmem_outer.o(.text) refers to defsig_exit.o(.text) for __sig_exit
    defsig_rtmem_formal.o(.text) refers to rt_raise.o(.text) for __rt_raise
    defsig_stak_inner.o(.text) refers to defsig_general.o(.text) for __default_signal_display
    defsig_pvfn_inner.o(.text) refers to defsig_general.o(.text) for __default_signal_display
    defsig_cppl_inner.o(.text) refers to defsig_general.o(.text) for __default_signal_display
    defsig_segv_inner.o(.text) refers to defsig_general.o(.text) for __default_signal_display
    defsig_other.o(.text) refers to defsig_general.o(.text) for __default_signal_display


==============================================================================

Removing Unused input sections from the image.

    Removing main.o(.text), (0 bytes).
    Removing main.o(.ARM.exidx.text.main), (8 bytes).
    Removing main.o(.data.step), (1 bytes).
    Removing main.o(.data.comm), (1 bytes).
    Removing main.o(.bss.uartBuffer), (1 bytes).
    Removing main.o(.bss.lastCommutation), (4 bytes).
    Removing main.o(.bss.uart), (1 bytes).
    Removing main.o(.bss.adc), (1 bytes).
    Removing main.o(.ARM.use_no_argv), (4 bytes).
    Removing delay.o(.text), (0 bytes).
    Removing delay.o(.ARM.exidx.text.DELAY_Init), (8 bytes).
    Removing delay.o(.ARM.exidx.text.SysTick_Handler), (8 bytes).
    Removing delay.o(.ARM.exidx.text.DELAY_Ms), (8 bytes).
    Removing bldc.o(.text), (0 bytes).
    Removing bldc.o(.ARM.exidx.text.hallpos), (8 bytes).
    Removing bldc.o(.text.commutate), (684 bytes).
    Removing bldc.o(.ARM.exidx.text.commutate), (8 bytes).
    Removing bldc.o(.ARM.exidx.text.speedupdate), (8 bytes).
    Removing bldc.o(.data.testrotatedir), (4 bytes).
    Removing bldc.o(.bss.lastdir), (1 bytes).
    Removing bldc.o(.bss.lasttestrotate), (4 bytes).
    Removing initialize.o(.text), (0 bytes).
    Removing initialize.o(.ARM.exidx.text.io_init), (8 bytes).
    Removing initialize.o(.ARM.exidx.text.HALL_Init), (8 bytes).
    Removing initialize.o(.ARM.exidx.text.HALLTIM_Init), (8 bytes).
    Removing initialize.o(.ARM.exidx.text.NVIC_Configure), (8 bytes).
    Removing initialize.o(.ARM.exidx.text.BLDC_init), (8 bytes).
    Removing initialize.o(.ARM.exidx.text.TIM1_init), (8 bytes).
    Removing initialize.o(.ARM.exidx.text.UARTX_Init), (8 bytes).
    Removing initialize.o(.ARM.exidx.text.UART_GPIO_Init), (8 bytes).
    Removing initialize.o(.ARM.exidx.text.DMA_NVIC_Config), (8 bytes).
    Removing initialize.o(.ARM.exidx.text.adc_Init), (8 bytes).
    Removing initialize.o(.text.Iwdg_Init), (72 bytes).
    Removing initialize.o(.ARM.exidx.text.Iwdg_Init), (8 bytes).
    Removing interrupt.o(.text), (0 bytes).
    Removing interrupt.o(.ARM.exidx.text.TIM1_BRK_UP_TRG_COM_IRQHandler), (8 bytes).
    Removing interrupt.o(.ARM.exidx.text.DMA1_Channel2_3_IRQHandler), (8 bytes).
    Removing interrupt.o(.ARM.exidx.text.DMA1_Channel4_5_IRQHandler), (8 bytes).
    Removing interrupt.o(.ARM.exidx.text.ADC1_COMP_IRQHandler), (8 bytes).
    Removing interrupt.o(.ARM.exidx.text.TIM2_IRQHandler), (8 bytes).
    Removing interrupt.o(.ARM.exidx.text.TIM3_IRQHandler), (8 bytes).
    Removing uart.o(.text), (0 bytes).
    Removing uart.o(.text.UART_Send_Byte), (64 bytes).
    Removing uart.o(.ARM.exidx.text.UART_Send_Byte), (8 bytes).
    Removing uart.o(.ARM.exidx.text.UART_Send_Group), (8 bytes).
    Removing uart.o(.ARM.exidx.text.UART_SendString), (8 bytes).
    Removing remoteuartbus.o(.text), (0 bytes).
    Removing remoteuartbus.o(.text.CalcCRC), (60 bytes).
    Removing remoteuartbus.o(.ARM.exidx.text.CalcCRC), (8 bytes).
    Removing remoteuartbus.o(.ARM.exidx.text.RemoteUpdate), (8 bytes).
    Removing remoteuartbus.o(.text.AnswerMaster), (168 bytes).
    Removing remoteuartbus.o(.ARM.exidx.text.AnswerMaster), (8 bytes).
    Removing remoteuartbus.o(.ARM.exidx.text.serialit), (8 bytes).
    Removing remoteuartbus.o(.bss.iAnswerMaster), (4 bytes).
    Removing calculation.o(.text), (0 bytes).
    Removing calculation.o(.text.PIDrst), (28 bytes).
    Removing calculation.o(.ARM.exidx.text.PIDrst), (8 bytes).
    Removing calculation.o(.text.PID), (108 bytes).
    Removing calculation.o(.ARM.exidx.text.PID), (8 bytes).
    Removing calculation.o(.ARM.exidx.text.avgspeed), (8 bytes).
    Removing calculation.o(.ARM.exidx.text.avgvbat), (8 bytes).
    Removing calculation.o(.ARM.exidx.text.avgItotal), (8 bytes).
    Removing calculation.o(.text.PID2PWM), (72 bytes).
    Removing calculation.o(.ARM.exidx.text.PID2PWM), (8 bytes).
    Removing calculation.o(.ARM.exidx.text.updateMotorRPM), (8 bytes).
    Removing calculation.o(.data.max), (4 bytes).
    Removing calculation.o(.data.min), (4 bytes).
    Removing calculation.o(.bss.qdSum), (4 bytes).
    Removing calculation.o(.bss.lasterr), (4 bytes).
    Removing calculation.o(.bss.prevpwm), (4 bytes).
    Removing hardware.o(.text), (0 bytes).
    Removing hardware.o(.ARM.exidx.text.pinMode), (8 bytes).
    Removing hardware.o(.ARM.exidx.text.pinModeAF), (8 bytes).
    Removing hardware.o(.ARM.exidx.text.digitalRead), (8 bytes).
    Removing hardware.o(.ARM.exidx.text.digitalWrite), (8 bytes).
    Removing hardware.o(.ARM.exidx.text.analogRead), (8 bytes).
    Removing sim_eeprom.o(.text), (0 bytes).
    Removing sim_eeprom.o(.text.FLASH_SIM_WriteLocate), (156 bytes).
    Removing sim_eeprom.o(.ARM.exidx.text.FLASH_SIM_WriteLocate), (8 bytes).
    Removing sim_eeprom.o(.text.FLASH_SIM_EEPROM_Init), (40 bytes).
    Removing sim_eeprom.o(.ARM.exidx.text.FLASH_SIM_EEPROM_Init), (8 bytes).
    Removing sim_eeprom.o(.text.EEPROM_Read), (180 bytes).
    Removing sim_eeprom.o(.ARM.exidx.text.EEPROM_Read), (8 bytes).
    Removing sim_eeprom.o(.text.EEPROM_Write), (372 bytes).
    Removing sim_eeprom.o(.ARM.exidx.text.EEPROM_Write), (8 bytes).
    Removing sim_eeprom.o(.text.FLASH_SIM_EEPROM_Test), (108 bytes).
    Removing sim_eeprom.o(.ARM.exidx.text.FLASH_SIM_EEPROM_Test), (8 bytes).
    Removing sim_eeprom.o(.ARM.exidx.text.restorecfg), (8 bytes).
    Removing ipark.o(.text), (0 bytes).
    Removing ipark.o(.ARM.exidx.text.IPARK_MACRO1), (8 bytes).
    Removing pwm_gen.o(.text), (0 bytes).
    Removing pwm_gen.o(.ARM.exidx.text.PWM_GEN_init), (8 bytes).
    Removing pwm_gen.o(.ARM.exidx.text.PWM_GEN_calc), (8 bytes).
    Removing pwm_gen.o(.ARM.exidx.text.Update_PWM), (8 bytes).
    Removing foc_math.o(.text), (0 bytes).
    Removing foc_math.o(.ARM.exidx.text.MCM_Trig_Functions), (8 bytes).
    Removing foc_math.o(.text.MCM_Sqrt), (72 bytes).
    Removing foc_math.o(.ARM.exidx.text.MCM_Sqrt), (8 bytes).
    Removing foc_math.o(.text.arctan2), (180 bytes).
    Removing foc_math.o(.ARM.exidx.text.arctan2), (8 bytes).
    Removing foc_math.o(.ARM.exidx.text.MovingAvgInit), (8 bytes).
    Removing foc_math.o(.ARM.exidx.text.MovingAvgCal), (8 bytes).
    Removing foc_math.o(.text.LoopCmp_Init), (28 bytes).
    Removing foc_math.o(.ARM.exidx.text.LoopCmp_Init), (8 bytes).
    Removing foc_math.o(.text.LoopCmp_Cal), (48 bytes).
    Removing foc_math.o(.ARM.exidx.text.LoopCmp_Cal), (8 bytes).
    Removing foc_math.o(.ARM.exidx.text.InitNormalization), (8 bytes).
    Removing foc_math.o(.text.CalcNormalization), (88 bytes).
    Removing foc_math.o(.ARM.exidx.text.CalcNormalization), (8 bytes).
    Removing foc_math.o(.bss.RPValue), (12 bytes).
    Removing foc_math.o(.bss.SpdData), (76 bytes).
    Removing clarke.o(.text), (0 bytes).
    Removing clarke.o(.ARM.exidx.text.CLARKE_MACRO1), (8 bytes).
    Removing clarke.o(.bss.Emf_AB), (10 bytes).
    Removing hallhandle.o(.text), (0 bytes).
    Removing hallhandle.o(.ARM.exidx.text.HALLModuleInit), (8 bytes).
    Removing hallhandle.o(.ARM.exidx.text.HALLModuleCalc), (8 bytes).
    Removing park.o(.text), (0 bytes).
    Removing park.o(.ARM.exidx.text.PARK_MACRO1), (8 bytes).
    Removing pid.o(.text), (0 bytes).
    Removing pid.o(.ARM.exidx.text.InitPI), (8 bytes).
    Removing pid.o(.ARM.exidx.text.CalcPI), (8 bytes).
    Removing hal_adc.o(.text), (0 bytes).
    Removing hal_adc.o(.text.ADC_DeInit), (24 bytes).
    Removing hal_adc.o(.ARM.exidx.text.ADC_DeInit), (8 bytes).
    Removing hal_adc.o(.ARM.exidx.text.ADC_Init), (8 bytes).
    Removing hal_adc.o(.text.ADC_StructInit), (16 bytes).
    Removing hal_adc.o(.ARM.exidx.text.ADC_StructInit), (8 bytes).
    Removing hal_adc.o(.ARM.exidx.text.ADC_Cmd), (8 bytes).
    Removing hal_adc.o(.text.ADC_DMACmd), (18 bytes).
    Removing hal_adc.o(.ARM.exidx.text.ADC_DMACmd), (8 bytes).
    Removing hal_adc.o(.ARM.exidx.text.ADC_ITConfig), (8 bytes).
    Removing hal_adc.o(.ARM.exidx.text.ADC_SoftwareStartConvCmd), (8 bytes).
    Removing hal_adc.o(.text.ADC_GetSoftwareStartConvStatus), (8 bytes).
    Removing hal_adc.o(.ARM.exidx.text.ADC_GetSoftwareStartConvStatus), (8 bytes).
    Removing hal_adc.o(.ARM.exidx.text.ADC_RegularChannelConfig), (8 bytes).
    Removing hal_adc.o(.text.ADC_TempSensorVrefintCmd), (28 bytes).
    Removing hal_adc.o(.ARM.exidx.text.ADC_TempSensorVrefintCmd), (8 bytes).
    Removing hal_adc.o(.ARM.exidx.text.ADC_ExternalTrigConvCmd), (8 bytes).
    Removing hal_adc.o(.text.ADC_GetConversionValue), (4 bytes).
    Removing hal_adc.o(.ARM.exidx.text.ADC_GetConversionValue), (8 bytes).
    Removing hal_adc.o(.text.ADC_GetDualModeConversionValue), (12 bytes).
    Removing hal_adc.o(.ARM.exidx.text.ADC_GetDualModeConversionValue), (8 bytes).
    Removing hal_adc.o(.text.ADC_ExternalTrigInjectedConvConfig), (20 bytes).
    Removing hal_adc.o(.ARM.exidx.text.ADC_ExternalTrigInjectedConvConfig), (8 bytes).
    Removing hal_adc.o(.text.ADC_ExternalTrigInjectedConvCmd), (18 bytes).
    Removing hal_adc.o(.ARM.exidx.text.ADC_ExternalTrigInjectedConvCmd), (8 bytes).
    Removing hal_adc.o(.ARM.exidx.text.ADC_AnalogWatchdogCmd), (8 bytes).
    Removing hal_adc.o(.ARM.exidx.text.ADC_AnalogWatchdogThresholdsConfig), (8 bytes).
    Removing hal_adc.o(.ARM.exidx.text.ADC_AnalogWatchdogSingleChannelConfig), (8 bytes).
    Removing hal_adc.o(.text.ADC_TempSensorCmd), (28 bytes).
    Removing hal_adc.o(.ARM.exidx.text.ADC_TempSensorCmd), (8 bytes).
    Removing hal_adc.o(.ARM.exidx.text.ADC_VrefintCmd), (8 bytes).
    Removing hal_adc.o(.text.exADC_TempSensorVrefintCmd), (52 bytes).
    Removing hal_adc.o(.ARM.exidx.text.exADC_TempSensorVrefintCmd), (8 bytes).
    Removing hal_adc.o(.ARM.exidx.text.ADC_GetFlagStatus), (8 bytes).
    Removing hal_adc.o(.ARM.exidx.text.ADC_ClearFlag), (8 bytes).
    Removing hal_adc.o(.ARM.exidx.text.ADC_GetITStatus), (8 bytes).
    Removing hal_adc.o(.ARM.exidx.text.ADC_ClearITPendingBit), (8 bytes).
    Removing hal_comp.o(.text), (0 bytes).
    Removing hal_comp.o(.text.COMP_DeInit), (12 bytes).
    Removing hal_comp.o(.ARM.exidx.text.COMP_DeInit), (8 bytes).
    Removing hal_comp.o(.text.COMP_Init), (28 bytes).
    Removing hal_comp.o(.ARM.exidx.text.COMP_Init), (8 bytes).
    Removing hal_comp.o(.text.COMP_StructInit), (28 bytes).
    Removing hal_comp.o(.ARM.exidx.text.COMP_StructInit), (8 bytes).
    Removing hal_comp.o(.text.COMP_Cmd), (24 bytes).
    Removing hal_comp.o(.ARM.exidx.text.COMP_Cmd), (8 bytes).
    Removing hal_comp.o(.text.SET_COMP_CRV), (24 bytes).
    Removing hal_comp.o(.ARM.exidx.text.SET_COMP_CRV), (8 bytes).
    Removing hal_comp.o(.text.COMP_SwitchCmd), (28 bytes).
    Removing hal_comp.o(.ARM.exidx.text.COMP_SwitchCmd), (8 bytes).
    Removing hal_comp.o(.text.COMP_GetOutputLevel), (20 bytes).
    Removing hal_comp.o(.ARM.exidx.text.COMP_GetOutputLevel), (8 bytes).
    Removing hal_comp.o(.text.COMP_LockConfig), (20 bytes).
    Removing hal_comp.o(.ARM.exidx.text.COMP_LockConfig), (8 bytes).
    Removing hal_comp.o(.text.exCOMP_CrvCmd), (24 bytes).
    Removing hal_comp.o(.ARM.exidx.text.exCOMP_CrvCmd), (8 bytes).
    Removing hal_comp.o(.text.exCOMP_SwitchCrv), (16 bytes).
    Removing hal_comp.o(.ARM.exidx.text.exCOMP_SwitchCrv), (8 bytes).
    Removing hal_comp.o(.text.exCOMP_CrvSrc), (16 bytes).
    Removing hal_comp.o(.ARM.exidx.text.exCOMP_CrvSrc), (8 bytes).
    Removing hal_crc.o(.text), (0 bytes).
    Removing hal_crc.o(.text.CRC_ResetDR), (12 bytes).
    Removing hal_crc.o(.ARM.exidx.text.CRC_ResetDR), (8 bytes).
    Removing hal_crc.o(.text.CRC_CalcCRC), (16 bytes).
    Removing hal_crc.o(.ARM.exidx.text.CRC_CalcCRC), (8 bytes).
    Removing hal_crc.o(.text.CRC_CalcBlockCRC), (24 bytes).
    Removing hal_crc.o(.ARM.exidx.text.CRC_CalcBlockCRC), (8 bytes).
    Removing hal_crc.o(.text.CRC_GetCRC), (12 bytes).
    Removing hal_crc.o(.ARM.exidx.text.CRC_GetCRC), (8 bytes).
    Removing hal_crc.o(.text.CRC_SetIDRegister), (12 bytes).
    Removing hal_crc.o(.ARM.exidx.text.CRC_SetIDRegister), (8 bytes).
    Removing hal_crc.o(.text.CRC_GetIDRegister), (12 bytes).
    Removing hal_crc.o(.ARM.exidx.text.CRC_GetIDRegister), (8 bytes).
    Removing hal_dbg.o(.text), (0 bytes).
    Removing hal_dbg.o(.text.DBGMCU_Configure), (28 bytes).
    Removing hal_dbg.o(.ARM.exidx.text.DBGMCU_Configure), (8 bytes).
    Removing hal_div.o(.text), (0 bytes).
    Removing hal_div.o(.text.HWDivider_Init), (20 bytes).
    Removing hal_div.o(.ARM.exidx.text.HWDivider_Init), (8 bytes).
    Removing hal_div.o(.text.HWDivider_Calc), (28 bytes).
    Removing hal_div.o(.ARM.exidx.text.HWDivider_Calc), (8 bytes).
    Removing hal_div.o(.text.Divider_Calc), (8 bytes).
    Removing hal_div.o(.ARM.exidx.text.Divider_Calc), (8 bytes).
    Removing hal_dma.o(.text), (0 bytes).
    Removing hal_dma.o(.ARM.exidx.text.DMA_DeInit), (8 bytes).
    Removing hal_dma.o(.ARM.exidx.text.DMA_Init), (8 bytes).
    Removing hal_dma.o(.ARM.exidx.text.DMA_StructInit), (8 bytes).
    Removing hal_dma.o(.ARM.exidx.text.DMA_Cmd), (8 bytes).
    Removing hal_dma.o(.ARM.exidx.text.DMA_ITConfig), (8 bytes).
    Removing hal_dma.o(.text.DMA_GetCurrDataCounter), (6 bytes).
    Removing hal_dma.o(.ARM.exidx.text.DMA_GetCurrDataCounter), (8 bytes).
    Removing hal_dma.o(.text.DMA_GetFlagStatus), (16 bytes).
    Removing hal_dma.o(.ARM.exidx.text.DMA_GetFlagStatus), (8 bytes).
    Removing hal_dma.o(.text.DMA_ClearFlag), (12 bytes).
    Removing hal_dma.o(.ARM.exidx.text.DMA_ClearFlag), (8 bytes).
    Removing hal_dma.o(.ARM.exidx.text.DMA_GetITStatus), (8 bytes).
    Removing hal_dma.o(.ARM.exidx.text.DMA_ClearITPendingBit), (8 bytes).
    Removing hal_dma.o(.text.exDMA_SetPeripheralAddress), (4 bytes).
    Removing hal_dma.o(.ARM.exidx.text.exDMA_SetPeripheralAddress), (8 bytes).
    Removing hal_dma.o(.text.exDMA_SetTransmitLen), (4 bytes).
    Removing hal_dma.o(.ARM.exidx.text.exDMA_SetTransmitLen), (8 bytes).
    Removing hal_dma.o(.text.exDMA_SetMemoryAddress), (4 bytes).
    Removing hal_dma.o(.ARM.exidx.text.exDMA_SetMemoryAddress), (8 bytes).
    Removing hal_dma.o(.text.exDMA_ClearITPendingBit), (36 bytes).
    Removing hal_dma.o(.ARM.exidx.text.exDMA_ClearITPendingBit), (8 bytes).
    Removing hal_exti.o(.text), (0 bytes).
    Removing hal_exti.o(.text.EXTI_DeInit), (56 bytes).
    Removing hal_exti.o(.ARM.exidx.text.EXTI_DeInit), (8 bytes).
    Removing hal_exti.o(.text.exEXTI_LineDisable), (32 bytes).
    Removing hal_exti.o(.ARM.exidx.text.exEXTI_LineDisable), (8 bytes).
    Removing hal_exti.o(.text.EXTI_MemoryRemapConfig), (20 bytes).
    Removing hal_exti.o(.ARM.exidx.text.EXTI_MemoryRemapConfig), (8 bytes).
    Removing hal_exti.o(.text.EXTI_DMAChannelRemapConfig), (28 bytes).
    Removing hal_exti.o(.ARM.exidx.text.EXTI_DMAChannelRemapConfig), (8 bytes).
    Removing hal_exti.o(.text.EXTI_LineConfig), (36 bytes).
    Removing hal_exti.o(.ARM.exidx.text.EXTI_LineConfig), (8 bytes).
    Removing hal_exti.o(.text.EXTI_Init), (120 bytes).
    Removing hal_exti.o(.ARM.exidx.text.EXTI_Init), (8 bytes).
    Removing hal_exti.o(.text.EXTI_StructInit), (14 bytes).
    Removing hal_exti.o(.ARM.exidx.text.EXTI_StructInit), (8 bytes).
    Removing hal_exti.o(.text.EXTI_GenerateSWInterrupt), (16 bytes).
    Removing hal_exti.o(.ARM.exidx.text.EXTI_GenerateSWInterrupt), (8 bytes).
    Removing hal_exti.o(.text.EXTI_GetFlagStatus), (16 bytes).
    Removing hal_exti.o(.ARM.exidx.text.EXTI_GetFlagStatus), (8 bytes).
    Removing hal_exti.o(.text.EXTI_ClearFlag), (12 bytes).
    Removing hal_exti.o(.ARM.exidx.text.EXTI_ClearFlag), (8 bytes).
    Removing hal_exti.o(.text.EXTI_GetITStatus), (28 bytes).
    Removing hal_exti.o(.ARM.exidx.text.EXTI_GetITStatus), (8 bytes).
    Removing hal_exti.o(.text.EXTI_ClearITPendingBit), (12 bytes).
    Removing hal_exti.o(.ARM.exidx.text.EXTI_ClearITPendingBit), (8 bytes).
    Removing hal_exti.o(.text.exEXTI_GetAllFlagStatus), (12 bytes).
    Removing hal_exti.o(.ARM.exidx.text.exEXTI_GetAllFlagStatus), (8 bytes).
    Removing hal_flash.o(.text), (0 bytes).
    Removing hal_flash.o(.text.FLASH_SetLatency), (20 bytes).
    Removing hal_flash.o(.ARM.exidx.text.FLASH_SetLatency), (8 bytes).
    Removing hal_flash.o(.text.FLASH_HalfCycleAccessCmd), (24 bytes).
    Removing hal_flash.o(.ARM.exidx.text.FLASH_HalfCycleAccessCmd), (8 bytes).
    Removing hal_flash.o(.text.FLASH_PrefetchBufferCmd), (24 bytes).
    Removing hal_flash.o(.ARM.exidx.text.FLASH_PrefetchBufferCmd), (8 bytes).
    Removing hal_flash.o(.text.FLASH_Lock), (16 bytes).
    Removing hal_flash.o(.ARM.exidx.text.FLASH_Lock), (8 bytes).
    Removing hal_flash.o(.text.FLASH_Unlock), (24 bytes).
    Removing hal_flash.o(.ARM.exidx.text.FLASH_Unlock), (8 bytes).
    Removing hal_flash.o(.text.FLASH_OPTB_Enable), (24 bytes).
    Removing hal_flash.o(.ARM.exidx.text.FLASH_OPTB_Enable), (8 bytes).
    Removing hal_flash.o(.text.FLASH_ErasePage), (92 bytes).
    Removing hal_flash.o(.ARM.exidx.text.FLASH_ErasePage), (8 bytes).
    Removing hal_flash.o(.text.FLASH_WaitForLastOperation), (72 bytes).
    Removing hal_flash.o(.ARM.exidx.text.FLASH_WaitForLastOperation), (8 bytes).
    Removing hal_flash.o(.text.FLASH_EraseAllPages), (84 bytes).
    Removing hal_flash.o(.ARM.exidx.text.FLASH_EraseAllPages), (8 bytes).
    Removing hal_flash.o(.text.FLASH_EraseOptionBytes), (104 bytes).
    Removing hal_flash.o(.ARM.exidx.text.FLASH_EraseOptionBytes), (8 bytes).
    Removing hal_flash.o(.text.FLASH_EraseProtect), (104 bytes).
    Removing hal_flash.o(.ARM.exidx.text.FLASH_EraseProtect), (8 bytes).
    Removing hal_flash.o(.text.FLASH_ProgramHalfWord), (80 bytes).
    Removing hal_flash.o(.ARM.exidx.text.FLASH_ProgramHalfWord), (8 bytes).
    Removing hal_flash.o(.text.FLASH_ProgramWord), (152 bytes).
    Removing hal_flash.o(.ARM.exidx.text.FLASH_ProgramWord), (8 bytes).
    Removing hal_flash.o(.text.FLASH_ProgramOptionByteData), (124 bytes).
    Removing hal_flash.o(.ARM.exidx.text.FLASH_ProgramOptionByteData), (8 bytes).
    Removing hal_flash.o(.text.FLASH_ProgramOptionHalfWord), (100 bytes).
    Removing hal_flash.o(.ARM.exidx.text.FLASH_ProgramOptionHalfWord), (8 bytes).
    Removing hal_flash.o(.text.FLASH_ProgramProtect), (100 bytes).
    Removing hal_flash.o(.ARM.exidx.text.FLASH_ProgramProtect), (8 bytes).
    Removing hal_flash.o(.text.FLASH_EnableWriteProtection), (132 bytes).
    Removing hal_flash.o(.ARM.exidx.text.FLASH_EnableWriteProtection), (8 bytes).
    Removing hal_flash.o(.text.FLASH_UserOptionByteConfig), (124 bytes).
    Removing hal_flash.o(.ARM.exidx.text.FLASH_UserOptionByteConfig), (8 bytes).
    Removing hal_flash.o(.text.FLASH_GetUserOptionByte), (12 bytes).
    Removing hal_flash.o(.ARM.exidx.text.FLASH_GetUserOptionByte), (8 bytes).
    Removing hal_flash.o(.text.FLASH_GetWriteProtectionOptionByte), (12 bytes).
    Removing hal_flash.o(.ARM.exidx.text.FLASH_GetWriteProtectionOptionByte), (8 bytes).
    Removing hal_flash.o(.text.FLASH_GetPrefetchBufferStatus), (16 bytes).
    Removing hal_flash.o(.ARM.exidx.text.FLASH_GetPrefetchBufferStatus), (8 bytes).
    Removing hal_flash.o(.text.FLASH_ITConfig), (28 bytes).
    Removing hal_flash.o(.ARM.exidx.text.FLASH_ITConfig), (8 bytes).
    Removing hal_flash.o(.text.FLASH_GetFlagStatus), (24 bytes).
    Removing hal_flash.o(.ARM.exidx.text.FLASH_GetFlagStatus), (8 bytes).
    Removing hal_flash.o(.text.FLASH_ClearFlag), (12 bytes).
    Removing hal_flash.o(.ARM.exidx.text.FLASH_ClearFlag), (8 bytes).
    Removing hal_flash.o(.text.FLASH_GetStatus), (40 bytes).
    Removing hal_flash.o(.ARM.exidx.text.FLASH_GetStatus), (8 bytes).
    Removing hal_flash.o(.text.exFLASH_EraseEE), (124 bytes).
    Removing hal_flash.o(.ARM.exidx.text.exFLASH_EraseEE), (8 bytes).
    Removing hal_flash.o(.text.exFLASH_ProgramEE), (144 bytes).
    Removing hal_flash.o(.ARM.exidx.text.exFLASH_ProgramEE), (8 bytes).
    Removing hal_flash.o(.text.exFLASH_FindEmpty), (44 bytes).
    Removing hal_flash.o(.ARM.exidx.text.exFLASH_FindEmpty), (8 bytes).
    Removing hal_flash.o(.text.exFLASH_Locate), (128 bytes).
    Removing hal_flash.o(.ARM.exidx.text.exFLASH_Locate), (8 bytes).
    Removing hal_flash.o(.text.exFLASH_WriteEE), (1144 bytes).
    Removing hal_flash.o(.ARM.exidx.text.exFLASH_WriteEE), (8 bytes).
    Removing hal_flash.o(.text.exFLASH_ReadEE), (132 bytes).
    Removing hal_flash.o(.ARM.exidx.text.exFLASH_ReadEE), (8 bytes).
    Removing hal_gpio.o(.text), (0 bytes).
    Removing hal_gpio.o(.text.GPIO_DeInit), (48 bytes).
    Removing hal_gpio.o(.ARM.exidx.text.GPIO_DeInit), (8 bytes).
    Removing hal_gpio.o(.text.GPIO_AFIODeInit), (52 bytes).
    Removing hal_gpio.o(.ARM.exidx.text.GPIO_AFIODeInit), (8 bytes).
    Removing hal_gpio.o(.ARM.exidx.text.GPIO_Init), (8 bytes).
    Removing hal_gpio.o(.ARM.exidx.text.GPIO_StructInit), (8 bytes).
    Removing hal_gpio.o(.ARM.exidx.text.GPIO_ReadInputDataBit), (8 bytes).
    Removing hal_gpio.o(.text.GPIO_ReadInputData), (6 bytes).
    Removing hal_gpio.o(.ARM.exidx.text.GPIO_ReadInputData), (8 bytes).
    Removing hal_gpio.o(.text.GPIO_ReadOutputDataBit), (10 bytes).
    Removing hal_gpio.o(.ARM.exidx.text.GPIO_ReadOutputDataBit), (8 bytes).
    Removing hal_gpio.o(.text.GPIO_ReadOutputData), (6 bytes).
    Removing hal_gpio.o(.ARM.exidx.text.GPIO_ReadOutputData), (8 bytes).
    Removing hal_gpio.o(.text.GPIO_SetBits), (4 bytes).
    Removing hal_gpio.o(.ARM.exidx.text.GPIO_SetBits), (8 bytes).
    Removing hal_gpio.o(.text.GPIO_ResetBits), (4 bytes).
    Removing hal_gpio.o(.ARM.exidx.text.GPIO_ResetBits), (8 bytes).
    Removing hal_gpio.o(.ARM.exidx.text.GPIO_WriteBit), (8 bytes).
    Removing hal_gpio.o(.text.GPIO_Write), (4 bytes).
    Removing hal_gpio.o(.ARM.exidx.text.GPIO_Write), (8 bytes).
    Removing hal_gpio.o(.text.GPIO_PinLock), (20 bytes).
    Removing hal_gpio.o(.ARM.exidx.text.GPIO_PinLock), (8 bytes).
    Removing hal_gpio.o(.text.GPIO_PinLockConfig), (18 bytes).
    Removing hal_gpio.o(.ARM.exidx.text.GPIO_PinLockConfig), (8 bytes).
    Removing hal_gpio.o(.ARM.exidx.text.GPIO_PinAFConfig), (8 bytes).
    Removing hal_gpio.o(.text.exGPIO_PinAFConfig), (62 bytes).
    Removing hal_gpio.o(.ARM.exidx.text.exGPIO_PinAFConfig), (8 bytes).
    Removing hal_i2c.o(.text), (0 bytes).
    Removing hal_i2c.o(.text.I2C_DeInit), (24 bytes).
    Removing hal_i2c.o(.ARM.exidx.text.I2C_DeInit), (8 bytes).
    Removing hal_i2c.o(.text.I2C_Init), (152 bytes).
    Removing hal_i2c.o(.ARM.exidx.text.I2C_Init), (8 bytes).
    Removing hal_i2c.o(.text.I2C_StructInit), (24 bytes).
    Removing hal_i2c.o(.ARM.exidx.text.I2C_StructInit), (8 bytes).
    Removing hal_i2c.o(.text.I2C_Cmd), (20 bytes).
    Removing hal_i2c.o(.ARM.exidx.text.I2C_Cmd), (8 bytes).
    Removing hal_i2c.o(.text.I2C_DMACmd), (48 bytes).
    Removing hal_i2c.o(.ARM.exidx.text.I2C_DMACmd), (8 bytes).
    Removing hal_i2c.o(.text.I2C_GenerateSTART), (18 bytes).
    Removing hal_i2c.o(.ARM.exidx.text.I2C_GenerateSTART), (8 bytes).
    Removing hal_i2c.o(.text.I2C_GenerateSTOP), (36 bytes).
    Removing hal_i2c.o(.ARM.exidx.text.I2C_GenerateSTOP), (8 bytes).
    Removing hal_i2c.o(.text.I2C_OwnAddress2Config), (16 bytes).
    Removing hal_i2c.o(.ARM.exidx.text.I2C_OwnAddress2Config), (8 bytes).
    Removing hal_i2c.o(.text.I2C_DualAddressCmd), (24 bytes).
    Removing hal_i2c.o(.ARM.exidx.text.I2C_DualAddressCmd), (8 bytes).
    Removing hal_i2c.o(.text.I2C_GeneralCallCmd), (24 bytes).
    Removing hal_i2c.o(.ARM.exidx.text.I2C_GeneralCallCmd), (8 bytes).
    Removing hal_i2c.o(.text.I2C_ITConfig), (30 bytes).
    Removing hal_i2c.o(.ARM.exidx.text.I2C_ITConfig), (8 bytes).
    Removing hal_i2c.o(.text.I2C_ReadCmd), (8 bytes).
    Removing hal_i2c.o(.ARM.exidx.text.I2C_ReadCmd), (8 bytes).
    Removing hal_i2c.o(.text.I2C_SendData), (4 bytes).
    Removing hal_i2c.o(.ARM.exidx.text.I2C_SendData), (8 bytes).
    Removing hal_i2c.o(.text.I2C_ReceiveData), (16 bytes).
    Removing hal_i2c.o(.ARM.exidx.text.I2C_ReceiveData), (8 bytes).
    Removing hal_i2c.o(.text.I2C_Send7bitAddress), (6 bytes).
    Removing hal_i2c.o(.ARM.exidx.text.I2C_Send7bitAddress), (8 bytes).
    Removing hal_i2c.o(.text.I2C_ReadRegister), (4 bytes).
    Removing hal_i2c.o(.ARM.exidx.text.I2C_ReadRegister), (8 bytes).
    Removing hal_i2c.o(.text.I2C_GetLastEvent), (12 bytes).
    Removing hal_i2c.o(.ARM.exidx.text.I2C_GetLastEvent), (8 bytes).
    Removing hal_i2c.o(.text.I2C_CheckEvent), (36 bytes).
    Removing hal_i2c.o(.ARM.exidx.text.I2C_CheckEvent), (8 bytes).
    Removing hal_i2c.o(.text.I2C_GetFlagStatus), (44 bytes).
    Removing hal_i2c.o(.ARM.exidx.text.I2C_GetFlagStatus), (8 bytes).
    Removing hal_i2c.o(.text.I2C_ClearFlag), (102 bytes).
    Removing hal_i2c.o(.ARM.exidx.text.I2C_ClearFlag), (8 bytes).
    Removing hal_i2c.o(.text.I2C_GetITStatus), (10 bytes).
    Removing hal_i2c.o(.ARM.exidx.text.I2C_GetITStatus), (8 bytes).
    Removing hal_i2c.o(.text.I2C_ClearITPendingBit), (102 bytes).
    Removing hal_i2c.o(.ARM.exidx.text.I2C_ClearITPendingBit), (8 bytes).
    Removing hal_i2c.o(.text.I2C_SendSlaveAddress), (6 bytes).
    Removing hal_i2c.o(.ARM.exidx.text.I2C_SendSlaveAddress), (8 bytes).
    Removing hal_i2c.o(.text.I2C_SlaveConfigure), (18 bytes).
    Removing hal_i2c.o(.ARM.exidx.text.I2C_SlaveConfigure), (8 bytes).
    Removing hal_i2c.o(.text.I2C_DMAConfigure), (10 bytes).
    Removing hal_i2c.o(.ARM.exidx.text.I2C_DMAConfigure), (8 bytes).
    Removing hal_i2c.o(.bss.I2C_DMA_DIR), (2 bytes).
    Removing hal_i2c.o(.bss.I2C_CMD_DIR), (1 bytes).
    Removing hal_iwdg.o(.text), (0 bytes).
    Removing hal_iwdg.o(.text.IWDG_WriteAccessCmd), (12 bytes).
    Removing hal_iwdg.o(.ARM.exidx.text.IWDG_WriteAccessCmd), (8 bytes).
    Removing hal_iwdg.o(.text.IWDG_SetPrescaler), (16 bytes).
    Removing hal_iwdg.o(.ARM.exidx.text.IWDG_SetPrescaler), (8 bytes).
    Removing hal_iwdg.o(.text.PVU_CheckStatus), (16 bytes).
    Removing hal_iwdg.o(.ARM.exidx.text.PVU_CheckStatus), (8 bytes).
    Removing hal_iwdg.o(.text.IWDG_SetReload), (16 bytes).
    Removing hal_iwdg.o(.ARM.exidx.text.IWDG_SetReload), (8 bytes).
    Removing hal_iwdg.o(.text.RVU_CheckStatus), (16 bytes).
    Removing hal_iwdg.o(.ARM.exidx.text.RVU_CheckStatus), (8 bytes).
    Removing hal_iwdg.o(.text.IWDG_GetReload), (12 bytes).
    Removing hal_iwdg.o(.ARM.exidx.text.IWDG_GetReload), (8 bytes).
    Removing hal_iwdg.o(.ARM.exidx.text.IWDG_ReloadCounter), (8 bytes).
    Removing hal_iwdg.o(.text.IWDG_Enable), (16 bytes).
    Removing hal_iwdg.o(.ARM.exidx.text.IWDG_Enable), (8 bytes).
    Removing hal_iwdg.o(.text.IWDG_GetFlagStatus), (16 bytes).
    Removing hal_iwdg.o(.ARM.exidx.text.IWDG_GetFlagStatus), (8 bytes).
    Removing hal_iwdg.o(.text.IWDG_OverflowConfig), (24 bytes).
    Removing hal_iwdg.o(.ARM.exidx.text.IWDG_OverflowConfig), (8 bytes).
    Removing hal_iwdg.o(.text.IWDG_ClearITPendingBit), (16 bytes).
    Removing hal_iwdg.o(.ARM.exidx.text.IWDG_ClearITPendingBit), (8 bytes).
    Removing hal_iwdg.o(.text.IWDG_ClearIT), (16 bytes).
    Removing hal_iwdg.o(.ARM.exidx.text.IWDG_ClearIT), (8 bytes).
    Removing hal_iwdg.o(.text.IWDG_EnableIT), (16 bytes).
    Removing hal_iwdg.o(.ARM.exidx.text.IWDG_EnableIT), (8 bytes).
    Removing hal_iwdg.o(.text.IWDG_Reset), (16 bytes).
    Removing hal_iwdg.o(.ARM.exidx.text.IWDG_Reset), (8 bytes).
    Removing hal_misc.o(.text), (0 bytes).
    Removing hal_misc.o(.ARM.exidx.text.NVIC_Init), (8 bytes).
    Removing hal_misc.o(.text.exNVIC_Init), (80 bytes).
    Removing hal_misc.o(.ARM.exidx.text.exNVIC_Init), (8 bytes).
    Removing hal_misc.o(.text.NVIC_SystemLPConfig), (28 bytes).
    Removing hal_misc.o(.ARM.exidx.text.NVIC_SystemLPConfig), (8 bytes).
    Removing hal_misc.o(.text.SysTick_CLKSourceConfig), (28 bytes).
    Removing hal_misc.o(.ARM.exidx.text.SysTick_CLKSourceConfig), (8 bytes).
    Removing hal_pwr.o(.text), (0 bytes).
    Removing hal_pwr.o(.text.PWR_DeInit), (12 bytes).
    Removing hal_pwr.o(.ARM.exidx.text.PWR_DeInit), (8 bytes).
    Removing hal_pwr.o(.text.PWR_PVDCmd), (24 bytes).
    Removing hal_pwr.o(.ARM.exidx.text.PWR_PVDCmd), (8 bytes).
    Removing hal_pwr.o(.text.PWR_PVDLevelConfig), (20 bytes).
    Removing hal_pwr.o(.ARM.exidx.text.PWR_PVDLevelConfig), (8 bytes).
    Removing hal_pwr.o(.text.PWR_WakeUpPinCmd), (28 bytes).
    Removing hal_pwr.o(.ARM.exidx.text.PWR_WakeUpPinCmd), (8 bytes).
    Removing hal_pwr.o(.text.PWR_EnterSTOPMode), (40 bytes).
    Removing hal_pwr.o(.ARM.exidx.text.PWR_EnterSTOPMode), (8 bytes).
    Removing hal_pwr.o(.text.PWR_EnterSTANDBYMode), (32 bytes).
    Removing hal_pwr.o(.ARM.exidx.text.PWR_EnterSTANDBYMode), (8 bytes).
    Removing hal_pwr.o(.text.PWR_GetFlagStatus), (16 bytes).
    Removing hal_pwr.o(.ARM.exidx.text.PWR_GetFlagStatus), (8 bytes).
    Removing hal_pwr.o(.text.PWR_ClearFlag), (16 bytes).
    Removing hal_pwr.o(.ARM.exidx.text.PWR_ClearFlag), (8 bytes).
    Removing hal_pwr.o(.text.exPWR_EnterLowPowerMode), (44 bytes).
    Removing hal_pwr.o(.ARM.exidx.text.exPWR_EnterLowPowerMode), (8 bytes).
    Removing hal_rcc.o(.text), (0 bytes).
    Removing hal_rcc.o(.text.RCC_DeInit), (48 bytes).
    Removing hal_rcc.o(.ARM.exidx.text.RCC_DeInit), (8 bytes).
    Removing hal_rcc.o(.text.RCC_HSEConfig), (44 bytes).
    Removing hal_rcc.o(.ARM.exidx.text.RCC_HSEConfig), (8 bytes).
    Removing hal_rcc.o(.text.RCC_GetFlagStatus), (40 bytes).
    Removing hal_rcc.o(.ARM.exidx.text.RCC_GetFlagStatus), (8 bytes).
    Removing hal_rcc.o(.text.RCC_WaitForHSEStartUp), (36 bytes).
    Removing hal_rcc.o(.ARM.exidx.text.RCC_WaitForHSEStartUp), (8 bytes).
    Removing hal_rcc.o(.text.RCC_WaitForFlagStartUp), (68 bytes).
    Removing hal_rcc.o(.ARM.exidx.text.RCC_WaitForFlagStartUp), (8 bytes).
    Removing hal_rcc.o(.text.RCC_HSICmd), (20 bytes).
    Removing hal_rcc.o(.ARM.exidx.text.RCC_HSICmd), (8 bytes).
    Removing hal_rcc.o(.text.RCC_SYSCLKConfig), (20 bytes).
    Removing hal_rcc.o(.ARM.exidx.text.RCC_SYSCLKConfig), (8 bytes).
    Removing hal_rcc.o(.text.RCC_GetSYSCLKSource), (16 bytes).
    Removing hal_rcc.o(.ARM.exidx.text.RCC_GetSYSCLKSource), (8 bytes).
    Removing hal_rcc.o(.text.RCC_HCLKConfig), (20 bytes).
    Removing hal_rcc.o(.ARM.exidx.text.RCC_HCLKConfig), (8 bytes).
    Removing hal_rcc.o(.text.RCC_PCLK1Config), (20 bytes).
    Removing hal_rcc.o(.ARM.exidx.text.RCC_PCLK1Config), (8 bytes).
    Removing hal_rcc.o(.text.RCC_PCLK2Config), (24 bytes).
    Removing hal_rcc.o(.ARM.exidx.text.RCC_PCLK2Config), (8 bytes).
    Removing hal_rcc.o(.text.RCC_ADCCLKConfig), (24 bytes).
    Removing hal_rcc.o(.ARM.exidx.text.RCC_ADCCLKConfig), (8 bytes).
    Removing hal_rcc.o(.text.RCC_LSICmd), (20 bytes).
    Removing hal_rcc.o(.ARM.exidx.text.RCC_LSICmd), (8 bytes).
    Removing hal_rcc.o(.text.RCC_GetSysClockFreq), (32 bytes).
    Removing hal_rcc.o(.ARM.exidx.text.RCC_GetSysClockFreq), (8 bytes).
    Removing hal_rcc.o(.text.RCC_GetHCLKFreq), (48 bytes).
    Removing hal_rcc.o(.ARM.exidx.text.RCC_GetHCLKFreq), (8 bytes).
    Removing hal_rcc.o(.ARM.exidx.text.RCC_GetPCLK1Freq), (8 bytes).
    Removing hal_rcc.o(.ARM.exidx.text.RCC_GetPCLK2Freq), (8 bytes).
    Removing hal_rcc.o(.text.RCC_GetClocksFreq), (168 bytes).
    Removing hal_rcc.o(.ARM.exidx.text.RCC_GetClocksFreq), (8 bytes).
    Removing hal_rcc.o(.ARM.exidx.text.RCC_AHBPeriphClockCmd), (8 bytes).
    Removing hal_rcc.o(.ARM.exidx.text.RCC_APB2PeriphClockCmd), (8 bytes).
    Removing hal_rcc.o(.ARM.exidx.text.RCC_APB1PeriphClockCmd), (8 bytes).
    Removing hal_rcc.o(.text.RCC_APB2PeriphResetCmd), (28 bytes).
    Removing hal_rcc.o(.ARM.exidx.text.RCC_APB2PeriphResetCmd), (8 bytes).
    Removing hal_rcc.o(.text.RCC_APB1PeriphResetCmd), (28 bytes).
    Removing hal_rcc.o(.ARM.exidx.text.RCC_APB1PeriphResetCmd), (8 bytes).
    Removing hal_rcc.o(.text.RCC_AHBPeriphResetCmd), (28 bytes).
    Removing hal_rcc.o(.ARM.exidx.text.RCC_AHBPeriphResetCmd), (8 bytes).
    Removing hal_rcc.o(.text.RCC_ClockSecuritySystemCmd), (24 bytes).
    Removing hal_rcc.o(.ARM.exidx.text.RCC_ClockSecuritySystemCmd), (8 bytes).
    Removing hal_rcc.o(.text.RCC_MCOConfig), (20 bytes).
    Removing hal_rcc.o(.ARM.exidx.text.RCC_MCOConfig), (8 bytes).
    Removing hal_rcc.o(.text.RCC_ClearFlag), (20 bytes).
    Removing hal_rcc.o(.ARM.exidx.text.RCC_ClearFlag), (8 bytes).
    Removing hal_rcc.o(.text.RCC_ITConfig), (28 bytes).
    Removing hal_rcc.o(.ARM.exidx.text.RCC_ITConfig), (8 bytes).
    Removing hal_rcc.o(.text.RCC_GetITStatus), (12 bytes).
    Removing hal_rcc.o(.ARM.exidx.text.RCC_GetITStatus), (8 bytes).
    Removing hal_rcc.o(.text.RCC_ClearITPendingBit), (16 bytes).
    Removing hal_rcc.o(.ARM.exidx.text.RCC_ClearITPendingBit), (8 bytes).
    Removing hal_rcc.o(.text.exRCC_APB1PeriphReset), (20 bytes).
    Removing hal_rcc.o(.ARM.exidx.text.exRCC_APB1PeriphReset), (8 bytes).
    Removing hal_rcc.o(.text.exRCC_BackupReset), (2 bytes).
    Removing hal_rcc.o(.ARM.exidx.text.exRCC_BackupReset), (8 bytes).
    Removing hal_rcc.o(.text.exRCC_APB2PeriphReset), (20 bytes).
    Removing hal_rcc.o(.ARM.exidx.text.exRCC_APB2PeriphReset), (8 bytes).
    Removing hal_rcc.o(.text.exRCC_SystickDisable), (16 bytes).
    Removing hal_rcc.o(.ARM.exidx.text.exRCC_SystickDisable), (8 bytes).
    Removing hal_rcc.o(.text.exRCC_SystickEnable), (112 bytes).
    Removing hal_rcc.o(.ARM.exidx.text.exRCC_SystickEnable), (8 bytes).
    Removing hal_spi.o(.text), (0 bytes).
    Removing hal_spi.o(.text.SPI_DeInit), (64 bytes).
    Removing hal_spi.o(.ARM.exidx.text.SPI_DeInit), (8 bytes).
    Removing hal_spi.o(.text.SPI_Init), (132 bytes).
    Removing hal_spi.o(.ARM.exidx.text.SPI_Init), (8 bytes).
    Removing hal_spi.o(.text.SPI_StructInit), (24 bytes).
    Removing hal_spi.o(.ARM.exidx.text.SPI_StructInit), (8 bytes).
    Removing hal_spi.o(.text.SPI_Cmd), (16 bytes).
    Removing hal_spi.o(.ARM.exidx.text.SPI_Cmd), (8 bytes).
    Removing hal_spi.o(.text.SPI_ITConfig), (36 bytes).
    Removing hal_spi.o(.ARM.exidx.text.SPI_ITConfig), (8 bytes).
    Removing hal_spi.o(.text.SPI_DMACmd), (20 bytes).
    Removing hal_spi.o(.ARM.exidx.text.SPI_DMACmd), (8 bytes).
    Removing hal_spi.o(.text.SPI_FifoTrigger), (20 bytes).
    Removing hal_spi.o(.ARM.exidx.text.SPI_FifoTrigger), (8 bytes).
    Removing hal_spi.o(.text.SPI_SendData), (58 bytes).
    Removing hal_spi.o(.ARM.exidx.text.SPI_SendData), (8 bytes).
    Removing hal_spi.o(.text.SPI_ReceiveData), (66 bytes).
    Removing hal_spi.o(.ARM.exidx.text.SPI_ReceiveData), (8 bytes).
    Removing hal_spi.o(.text.SPI_CSInternalSelected), (16 bytes).
    Removing hal_spi.o(.ARM.exidx.text.SPI_CSInternalSelected), (8 bytes).
    Removing hal_spi.o(.text.SPI_NSSInternalSoftwareConfig), (20 bytes).
    Removing hal_spi.o(.ARM.exidx.text.SPI_NSSInternalSoftwareConfig), (8 bytes).
    Removing hal_spi.o(.text.SPI_DataSizeConfig), (22 bytes).
    Removing hal_spi.o(.ARM.exidx.text.SPI_DataSizeConfig), (8 bytes).
    Removing hal_spi.o(.text.SPI_DataSizeTypeConfig), (18 bytes).
    Removing hal_spi.o(.ARM.exidx.text.SPI_DataSizeTypeConfig), (8 bytes).
    Removing hal_spi.o(.text.SPI_BiDirectionalLineConfig), (64 bytes).
    Removing hal_spi.o(.ARM.exidx.text.SPI_BiDirectionalLineConfig), (8 bytes).
    Removing hal_spi.o(.text.SPI_GetFlagStatus), (10 bytes).
    Removing hal_spi.o(.ARM.exidx.text.SPI_GetFlagStatus), (8 bytes).
    Removing hal_spi.o(.text.SPI_GetITStatus), (10 bytes).
    Removing hal_spi.o(.ARM.exidx.text.SPI_GetITStatus), (8 bytes).
    Removing hal_spi.o(.text.SPI_ClearITPendingBit), (8 bytes).
    Removing hal_spi.o(.ARM.exidx.text.SPI_ClearITPendingBit), (8 bytes).
    Removing hal_spi.o(.text.SPI_RxBytes), (4 bytes).
    Removing hal_spi.o(.ARM.exidx.text.SPI_RxBytes), (8 bytes).
    Removing hal_spi.o(.text.SPI_SlaveAdjust), (18 bytes).
    Removing hal_spi.o(.ARM.exidx.text.SPI_SlaveAdjust), (8 bytes).
    Removing hal_spi.o(.text.exSPI_ITCmd), (18 bytes).
    Removing hal_spi.o(.ARM.exidx.text.exSPI_ITCmd), (8 bytes).
    Removing hal_spi.o(.text.exSPI_ITConfig), (20 bytes).
    Removing hal_spi.o(.ARM.exidx.text.exSPI_ITConfig), (8 bytes).
    Removing hal_spi.o(.text.exSPI_DMACmd), (20 bytes).
    Removing hal_spi.o(.ARM.exidx.text.exSPI_DMACmd), (8 bytes).
    Removing hal_spi.o(.text.exSPI_CSInternalSelected), (16 bytes).
    Removing hal_spi.o(.ARM.exidx.text.exSPI_CSInternalSelected), (8 bytes).
    Removing hal_spi.o(.text.exSPI_DataEdgeAdjust), (40 bytes).
    Removing hal_spi.o(.ARM.exidx.text.exSPI_DataEdgeAdjust), (8 bytes).
    Removing hal_tim.o(.text), (0 bytes).
    Removing hal_tim.o(.text.TIM_DeInit), (124 bytes).
    Removing hal_tim.o(.ARM.exidx.text.TIM_DeInit), (8 bytes).
    Removing hal_tim.o(.ARM.exidx.text.TIM_TimeBaseInit), (8 bytes).
    Removing hal_tim.o(.ARM.exidx.text.TIM_OC1Init), (8 bytes).
    Removing hal_tim.o(.ARM.exidx.text.TIM_OC2Init), (8 bytes).
    Removing hal_tim.o(.ARM.exidx.text.TIM_OC3Init), (8 bytes).
    Removing hal_tim.o(.ARM.exidx.text.TIM_OC4Init), (8 bytes).
    Removing hal_tim.o(.ARM.exidx.text.TIM_ICInit), (8 bytes).
    Removing hal_tim.o(.text.TIM_SetIC1Prescaler), (12 bytes).
    Removing hal_tim.o(.ARM.exidx.text.TIM_SetIC1Prescaler), (8 bytes).
    Removing hal_tim.o(.text.TIM_SetIC2Prescaler), (16 bytes).
    Removing hal_tim.o(.ARM.exidx.text.TIM_SetIC2Prescaler), (8 bytes).
    Removing hal_tim.o(.text.TIM_SetIC3Prescaler), (12 bytes).
    Removing hal_tim.o(.ARM.exidx.text.TIM_SetIC3Prescaler), (8 bytes).
    Removing hal_tim.o(.text.TIM_SetIC4Prescaler), (16 bytes).
    Removing hal_tim.o(.ARM.exidx.text.TIM_SetIC4Prescaler), (8 bytes).
    Removing hal_tim.o(.text.TIM_PWMIConfig), (216 bytes).
    Removing hal_tim.o(.ARM.exidx.text.TIM_PWMIConfig), (8 bytes).
    Removing hal_tim.o(.ARM.exidx.text.TIM_BDTRConfig), (8 bytes).
    Removing hal_tim.o(.ARM.exidx.text.TIM_TimeBaseStructInit), (8 bytes).
    Removing hal_tim.o(.ARM.exidx.text.TIM_OCStructInit), (8 bytes).
    Removing hal_tim.o(.ARM.exidx.text.TIM_ICStructInit), (8 bytes).
    Removing hal_tim.o(.ARM.exidx.text.TIM_BDTRStructInit), (8 bytes).
    Removing hal_tim.o(.ARM.exidx.text.TIM_Cmd), (8 bytes).
    Removing hal_tim.o(.ARM.exidx.text.TIM_CtrlPWMOutputs), (8 bytes).
    Removing hal_tim.o(.ARM.exidx.text.TIM_ITConfig), (8 bytes).
    Removing hal_tim.o(.ARM.exidx.text.TIM_GenerateEvent), (8 bytes).
    Removing hal_tim.o(.text.TIM_DMAConfig), (6 bytes).
    Removing hal_tim.o(.ARM.exidx.text.TIM_DMAConfig), (8 bytes).
    Removing hal_tim.o(.text.TIM_DMACmd), (20 bytes).
    Removing hal_tim.o(.ARM.exidx.text.TIM_DMACmd), (8 bytes).
    Removing hal_tim.o(.text.TIM_InternalClockConfig), (10 bytes).
    Removing hal_tim.o(.ARM.exidx.text.TIM_InternalClockConfig), (8 bytes).
    Removing hal_tim.o(.text.TIM_ITRxExternalClockConfig), (20 bytes).
    Removing hal_tim.o(.ARM.exidx.text.TIM_ITRxExternalClockConfig), (8 bytes).
    Removing hal_tim.o(.ARM.exidx.text.TIM_SelectInputTrigger), (8 bytes).
    Removing hal_tim.o(.text.TIM_TIxExternalClockConfig), (88 bytes).
    Removing hal_tim.o(.ARM.exidx.text.TIM_TIxExternalClockConfig), (8 bytes).
    Removing hal_tim.o(.text.TIM_ETRConfig), (50 bytes).
    Removing hal_tim.o(.ARM.exidx.text.TIM_ETRConfig), (8 bytes).
    Removing hal_tim.o(.text.TIM_ETRClockMode1Config), (58 bytes).
    Removing hal_tim.o(.ARM.exidx.text.TIM_ETRClockMode1Config), (8 bytes).
    Removing hal_tim.o(.text.TIM_ETRClockMode2Config), (56 bytes).
    Removing hal_tim.o(.ARM.exidx.text.TIM_ETRClockMode2Config), (8 bytes).
    Removing hal_tim.o(.text.TIM_PrescalerConfig), (6 bytes).
    Removing hal_tim.o(.ARM.exidx.text.TIM_PrescalerConfig), (8 bytes).
    Removing hal_tim.o(.text.TIM_CounterModeConfig), (12 bytes).
    Removing hal_tim.o(.ARM.exidx.text.TIM_CounterModeConfig), (8 bytes).
    Removing hal_tim.o(.text.TIM_EncoderInterfaceConfig), (48 bytes).
    Removing hal_tim.o(.ARM.exidx.text.TIM_EncoderInterfaceConfig), (8 bytes).
    Removing hal_tim.o(.text.TIM_ForcedOC1Config), (12 bytes).
    Removing hal_tim.o(.ARM.exidx.text.TIM_ForcedOC1Config), (8 bytes).
    Removing hal_tim.o(.text.TIM_ForcedOC2Config), (16 bytes).
    Removing hal_tim.o(.ARM.exidx.text.TIM_ForcedOC2Config), (8 bytes).
    Removing hal_tim.o(.text.TIM_ForcedOC3Config), (12 bytes).
    Removing hal_tim.o(.ARM.exidx.text.TIM_ForcedOC3Config), (8 bytes).
    Removing hal_tim.o(.text.TIM_ForcedOC4Config), (16 bytes).
    Removing hal_tim.o(.ARM.exidx.text.TIM_ForcedOC4Config), (8 bytes).
    Removing hal_tim.o(.text.TIM_ARRPreloadConfig), (18 bytes).
    Removing hal_tim.o(.ARM.exidx.text.TIM_ARRPreloadConfig), (8 bytes).
    Removing hal_tim.o(.text.TIM_SelectCOM), (18 bytes).
    Removing hal_tim.o(.ARM.exidx.text.TIM_SelectCOM), (8 bytes).
    Removing hal_tim.o(.text.TIM_SelectCCDMA), (18 bytes).
    Removing hal_tim.o(.ARM.exidx.text.TIM_SelectCCDMA), (8 bytes).
    Removing hal_tim.o(.ARM.exidx.text.TIM_CCPreloadControl), (8 bytes).
    Removing hal_tim.o(.text.TIM_OC1PreloadConfig), (12 bytes).
    Removing hal_tim.o(.ARM.exidx.text.TIM_OC1PreloadConfig), (8 bytes).
    Removing hal_tim.o(.text.TIM_OC2PreloadConfig), (16 bytes).
    Removing hal_tim.o(.ARM.exidx.text.TIM_OC2PreloadConfig), (8 bytes).
    Removing hal_tim.o(.text.TIM_OC3PreloadConfig), (12 bytes).
    Removing hal_tim.o(.ARM.exidx.text.TIM_OC3PreloadConfig), (8 bytes).
    Removing hal_tim.o(.text.TIM_OC4PreloadConfig), (16 bytes).
    Removing hal_tim.o(.ARM.exidx.text.TIM_OC4PreloadConfig), (8 bytes).
    Removing hal_tim.o(.text.TIM_OC1FastConfig), (12 bytes).
    Removing hal_tim.o(.ARM.exidx.text.TIM_OC1FastConfig), (8 bytes).
    Removing hal_tim.o(.text.TIM_OC2FastConfig), (16 bytes).
    Removing hal_tim.o(.ARM.exidx.text.TIM_OC2FastConfig), (8 bytes).
    Removing hal_tim.o(.text.TIM_OC3FastConfig), (12 bytes).
    Removing hal_tim.o(.ARM.exidx.text.TIM_OC3FastConfig), (8 bytes).
    Removing hal_tim.o(.text.TIM_OC4FastConfig), (16 bytes).
    Removing hal_tim.o(.ARM.exidx.text.TIM_OC4FastConfig), (8 bytes).
    Removing hal_tim.o(.text.TIM_ClearOC1Ref), (12 bytes).
    Removing hal_tim.o(.ARM.exidx.text.TIM_ClearOC1Ref), (8 bytes).
    Removing hal_tim.o(.text.TIM_ClearOC2Ref), (16 bytes).
    Removing hal_tim.o(.ARM.exidx.text.TIM_ClearOC2Ref), (8 bytes).
    Removing hal_tim.o(.text.TIM_ClearOC3Ref), (12 bytes).
    Removing hal_tim.o(.ARM.exidx.text.TIM_ClearOC3Ref), (8 bytes).
    Removing hal_tim.o(.text.TIM_ClearOC4Ref), (16 bytes).
    Removing hal_tim.o(.ARM.exidx.text.TIM_ClearOC4Ref), (8 bytes).
    Removing hal_tim.o(.text.TIM_OC1PolarityConfig), (12 bytes).
    Removing hal_tim.o(.ARM.exidx.text.TIM_OC1PolarityConfig), (8 bytes).
    Removing hal_tim.o(.text.TIM_OC1NPolarityConfig), (12 bytes).
    Removing hal_tim.o(.ARM.exidx.text.TIM_OC1NPolarityConfig), (8 bytes).
    Removing hal_tim.o(.text.TIM_OC2PolarityConfig), (14 bytes).
    Removing hal_tim.o(.ARM.exidx.text.TIM_OC2PolarityConfig), (8 bytes).
    Removing hal_tim.o(.text.TIM_OC2NPolarityConfig), (14 bytes).
    Removing hal_tim.o(.ARM.exidx.text.TIM_OC2NPolarityConfig), (8 bytes).
    Removing hal_tim.o(.text.TIM_OC3PolarityConfig), (16 bytes).
    Removing hal_tim.o(.ARM.exidx.text.TIM_OC3PolarityConfig), (8 bytes).
    Removing hal_tim.o(.text.TIM_OC3NPolarityConfig), (16 bytes).
    Removing hal_tim.o(.ARM.exidx.text.TIM_OC3NPolarityConfig), (8 bytes).
    Removing hal_tim.o(.text.TIM_OC4PolarityConfig), (16 bytes).
    Removing hal_tim.o(.ARM.exidx.text.TIM_OC4PolarityConfig), (8 bytes).
    Removing hal_tim.o(.text.TIM_CCxCmd), (16 bytes).
    Removing hal_tim.o(.ARM.exidx.text.TIM_CCxCmd), (8 bytes).
    Removing hal_tim.o(.text.TIM_CCxNCmd), (20 bytes).
    Removing hal_tim.o(.ARM.exidx.text.TIM_CCxNCmd), (8 bytes).
    Removing hal_tim.o(.text.TIM_SelectOCxM), (88 bytes).
    Removing hal_tim.o(.ARM.exidx.text.TIM_SelectOCxM), (8 bytes).
    Removing hal_tim.o(.text.TIM_UpdateDisableConfig), (18 bytes).
    Removing hal_tim.o(.ARM.exidx.text.TIM_UpdateDisableConfig), (8 bytes).
    Removing hal_tim.o(.ARM.exidx.text.TIM_UpdateRequestConfig), (8 bytes).
    Removing hal_tim.o(.ARM.exidx.text.TIM_SelectHallSensor), (8 bytes).
    Removing hal_tim.o(.text.TIM_SelectOnePulseMode), (12 bytes).
    Removing hal_tim.o(.ARM.exidx.text.TIM_SelectOnePulseMode), (8 bytes).
    Removing hal_tim.o(.text.TIM_SelectOutputTrigger), (12 bytes).
    Removing hal_tim.o(.ARM.exidx.text.TIM_SelectOutputTrigger), (8 bytes).
    Removing hal_tim.o(.ARM.exidx.text.TIM_SelectSlaveMode), (8 bytes).
    Removing hal_tim.o(.ARM.exidx.text.TIM_SelectMasterSlaveMode), (8 bytes).
    Removing hal_tim.o(.text.TIM_SetAutoreload), (4 bytes).
    Removing hal_tim.o(.ARM.exidx.text.TIM_SetAutoreload), (8 bytes).
    Removing hal_tim.o(.text.TIM_SetClockDivision), (14 bytes).
    Removing hal_tim.o(.ARM.exidx.text.TIM_SetClockDivision), (8 bytes).
    Removing hal_tim.o(.text.TIM_SetCounter), (18 bytes).
    Removing hal_tim.o(.ARM.exidx.text.TIM_SetCounter), (8 bytes).
    Removing hal_tim.o(.text.TIM_SetCompare1), (18 bytes).
    Removing hal_tim.o(.ARM.exidx.text.TIM_SetCompare1), (8 bytes).
    Removing hal_tim.o(.text.TIM_SetCompare2), (18 bytes).
    Removing hal_tim.o(.ARM.exidx.text.TIM_SetCompare2), (8 bytes).
    Removing hal_tim.o(.text.TIM_SetCompare3), (18 bytes).
    Removing hal_tim.o(.ARM.exidx.text.TIM_SetCompare3), (8 bytes).
    Removing hal_tim.o(.text.TIM_SetCompare4), (18 bytes).
    Removing hal_tim.o(.ARM.exidx.text.TIM_SetCompare4), (8 bytes).
    Removing hal_tim.o(.text.TIM_GetCapture1), (4 bytes).
    Removing hal_tim.o(.ARM.exidx.text.TIM_GetCapture1), (8 bytes).
    Removing hal_tim.o(.text.TIM_GetCapture2), (4 bytes).
    Removing hal_tim.o(.ARM.exidx.text.TIM_GetCapture2), (8 bytes).
    Removing hal_tim.o(.text.TIM_GetCapture3), (4 bytes).
    Removing hal_tim.o(.ARM.exidx.text.TIM_GetCapture3), (8 bytes).
    Removing hal_tim.o(.text.TIM_GetCapture4), (4 bytes).
    Removing hal_tim.o(.ARM.exidx.text.TIM_GetCapture4), (8 bytes).
    Removing hal_tim.o(.text.TIM_GetCounter), (4 bytes).
    Removing hal_tim.o(.ARM.exidx.text.TIM_GetCounter), (8 bytes).
    Removing hal_tim.o(.text.TIM_GetPrescaler), (6 bytes).
    Removing hal_tim.o(.ARM.exidx.text.TIM_GetPrescaler), (8 bytes).
    Removing hal_tim.o(.text.TIM_GetFlagStatus), (10 bytes).
    Removing hal_tim.o(.ARM.exidx.text.TIM_GetFlagStatus), (8 bytes).
    Removing hal_tim.o(.text.TIM_ClearFlag), (8 bytes).
    Removing hal_tim.o(.ARM.exidx.text.TIM_ClearFlag), (8 bytes).
    Removing hal_tim.o(.ARM.exidx.text.TIM_GetITStatus), (8 bytes).
    Removing hal_tim.o(.ARM.exidx.text.TIM_ClearITPendingBit), (8 bytes).
    Removing hal_tim.o(.text.exTIM_SetIC1Plority), (18 bytes).
    Removing hal_tim.o(.ARM.exidx.text.exTIM_SetIC1Plority), (8 bytes).
    Removing hal_tim.o(.text.exTIM_SetIC2Plority), (18 bytes).
    Removing hal_tim.o(.ARM.exidx.text.exTIM_SetIC2Plority), (8 bytes).
    Removing hal_tim.o(.text.exTIM_SetIC3Plority), (20 bytes).
    Removing hal_tim.o(.ARM.exidx.text.exTIM_SetIC3Plority), (8 bytes).
    Removing hal_tim.o(.text.exTIM_SetIC4Plority), (20 bytes).
    Removing hal_tim.o(.ARM.exidx.text.exTIM_SetIC4Plority), (8 bytes).
    Removing hal_tim.o(.text.exTIM_SetCompare5), (6 bytes).
    Removing hal_tim.o(.ARM.exidx.text.exTIM_SetCompare5), (8 bytes).
    Removing hal_tim.o(.text.exTIM_GetCapture5), (4 bytes).
    Removing hal_tim.o(.ARM.exidx.text.exTIM_GetCapture5), (8 bytes).
    Removing hal_tim.o(.text.exTIM_OC5Init), (72 bytes).
    Removing hal_tim.o(.ARM.exidx.text.exTIM_OC5Init), (8 bytes).
    Removing hal_tim.o(.text.exTIM_OC5PreloadConfig), (12 bytes).
    Removing hal_tim.o(.ARM.exidx.text.exTIM_OC5PreloadConfig), (8 bytes).
    Removing hal_tim.o(.text.exTIM_OC5PolarityConfig), (16 bytes).
    Removing hal_tim.o(.ARM.exidx.text.exTIM_OC5PolarityConfig), (8 bytes).
    Removing hal_tim.o(.text.exTIM_OC5FastConfig), (12 bytes).
    Removing hal_tim.o(.ARM.exidx.text.exTIM_OC5FastConfig), (8 bytes).
    Removing hal_tim.o(.text.exTIM_ClearOC5Ref), (12 bytes).
    Removing hal_tim.o(.ARM.exidx.text.exTIM_ClearOC5Ref), (8 bytes).
    Removing hal_tim.o(.text.exTIM_DirectOutput), (20 bytes).
    Removing hal_tim.o(.ARM.exidx.text.exTIM_DirectOutput), (8 bytes).
    Removing hal_uart.o(.text), (0 bytes).
    Removing hal_uart.o(.text.UART_DeInit), (44 bytes).
    Removing hal_uart.o(.ARM.exidx.text.UART_DeInit), (8 bytes).
    Removing hal_uart.o(.ARM.exidx.text.UART_Init), (8 bytes).
    Removing hal_uart.o(.ARM.exidx.text.UART_StructInit), (8 bytes).
    Removing hal_uart.o(.ARM.exidx.text.UART_Cmd), (8 bytes).
    Removing hal_uart.o(.text.UART_ITConfig), (20 bytes).
    Removing hal_uart.o(.ARM.exidx.text.UART_ITConfig), (8 bytes).
    Removing hal_uart.o(.ARM.exidx.text.UART_DMACmd), (8 bytes).
    Removing hal_uart.o(.ARM.exidx.text.UART_SendData), (8 bytes).
    Removing hal_uart.o(.text.UART_ReceiveData), (6 bytes).
    Removing hal_uart.o(.ARM.exidx.text.UART_ReceiveData), (8 bytes).
    Removing hal_uart.o(.ARM.exidx.text.UART_GetFlagStatus), (8 bytes).
    Removing hal_uart.o(.text.UART_GetITStatus), (10 bytes).
    Removing hal_uart.o(.ARM.exidx.text.UART_GetITStatus), (8 bytes).
    Removing hal_uart.o(.text.UART_ClearITPendingBit), (4 bytes).
    Removing hal_uart.o(.ARM.exidx.text.UART_ClearITPendingBit), (8 bytes).
    Removing hal_uart.o(.text.UART_WakeUpConfig), (14 bytes).
    Removing hal_uart.o(.ARM.exidx.text.UART_WakeUpConfig), (8 bytes).
    Removing hal_uart.o(.text.UART_ReceiverWakeUpCmd), (16 bytes).
    Removing hal_uart.o(.ARM.exidx.text.UART_ReceiverWakeUpCmd), (8 bytes).
    Removing hal_uart.o(.text.UART_SetRXAddress), (12 bytes).
    Removing hal_uart.o(.ARM.exidx.text.UART_SetRXAddress), (8 bytes).
    Removing hal_uart.o(.text.UART_SetRXMASK), (12 bytes).
    Removing hal_uart.o(.ARM.exidx.text.UART_SetRXMASK), (8 bytes).
    Removing hal_uart.o(.text.UART_Enable9bit), (16 bytes).
    Removing hal_uart.o(.ARM.exidx.text.UART_Enable9bit), (8 bytes).
    Removing hal_uart.o(.text.UART_Set9bitLevel), (16 bytes).
    Removing hal_uart.o(.ARM.exidx.text.UART_Set9bitLevel), (8 bytes).
    Removing hal_uart.o(.text.UART_Set9bitPolarity), (14 bytes).
    Removing hal_uart.o(.ARM.exidx.text.UART_Set9bitPolarity), (8 bytes).
    Removing hal_uart.o(.text.UART_Set9bitAutomaticToggle), (16 bytes).
    Removing hal_uart.o(.ARM.exidx.text.UART_Set9bitAutomaticToggle), (8 bytes).
    Removing hal_uart.o(.text.UART_HalfDuplexCmd), (16 bytes).
    Removing hal_uart.o(.ARM.exidx.text.UART_HalfDuplexCmd), (8 bytes).
    Removing hal_uart.o(.text.UART_SetGuardTime), (16 bytes).
    Removing hal_uart.o(.ARM.exidx.text.UART_SetGuardTime), (8 bytes).
    Removing hal_uart.o(.text.UART_SmartCardCmd), (12 bytes).
    Removing hal_uart.o(.ARM.exidx.text.UART_SmartCardCmd), (8 bytes).
    Removing hal_uart.o(.text.UART_SmartCardNACKCmd), (14 bytes).
    Removing hal_uart.o(.ARM.exidx.text.UART_SmartCardNACKCmd), (8 bytes).
    Removing hal_uart.o(.text.UART_SendBreak), (10 bytes).
    Removing hal_uart.o(.ARM.exidx.text.UART_SendBreak), (8 bytes).
    Removing hal_uid.o(.text), (0 bytes).
    Removing hal_uid.o(.text.GetChipUID), (28 bytes).
    Removing hal_uid.o(.ARM.exidx.text.GetChipUID), (8 bytes).
    Removing hal_uid.o(.bss.device_id_data), (12 bytes).
    Removing hal_ver.o(.text), (0 bytes).
    Removing hal_ver.o(.text.Get_MM32LibVersion), (8 bytes).
    Removing hal_ver.o(.ARM.exidx.text.Get_MM32LibVersion), (8 bytes).
    Removing hal_ver.o(.text.Get_MM32LibReleaseDate), (8 bytes).
    Removing hal_ver.o(.ARM.exidx.text.Get_MM32LibReleaseDate), (8 bytes).
    Removing hal_ver.o(.text.Get_ChipsetREVID), (16 bytes).
    Removing hal_ver.o(.ARM.exidx.text.Get_ChipsetREVID), (8 bytes).
    Removing hal_ver.o(.text.Get_ChipsetDEVID), (12 bytes).
    Removing hal_ver.o(.ARM.exidx.text.Get_ChipsetDEVID), (8 bytes).
    Removing hal_ver.o(.text.Get_ChipsetUIDw0), (12 bytes).
    Removing hal_ver.o(.ARM.exidx.text.Get_ChipsetUIDw0), (8 bytes).
    Removing hal_ver.o(.text.Get_ChipsetUIDw1), (12 bytes).
    Removing hal_ver.o(.ARM.exidx.text.Get_ChipsetUIDw1), (8 bytes).
    Removing hal_ver.o(.text.Get_ChipsetUIDw2), (12 bytes).
    Removing hal_ver.o(.ARM.exidx.text.Get_ChipsetUIDw2), (8 bytes).
    Removing hal_wwdg.o(.text), (0 bytes).
    Removing hal_wwdg.o(.text.WWDG_DeInit), (12 bytes).
    Removing hal_wwdg.o(.ARM.exidx.text.WWDG_DeInit), (8 bytes).
    Removing hal_wwdg.o(.text.WWDG_SetPrescaler), (20 bytes).
    Removing hal_wwdg.o(.ARM.exidx.text.WWDG_SetPrescaler), (8 bytes).
    Removing hal_wwdg.o(.text.WWDG_SetWindowValue), (20 bytes).
    Removing hal_wwdg.o(.ARM.exidx.text.WWDG_SetWindowValue), (8 bytes).
    Removing hal_wwdg.o(.text.WWDG_EnableIT), (20 bytes).
    Removing hal_wwdg.o(.ARM.exidx.text.WWDG_EnableIT), (8 bytes).
    Removing hal_wwdg.o(.text.WWDG_SetCounter), (16 bytes).
    Removing hal_wwdg.o(.ARM.exidx.text.WWDG_SetCounter), (8 bytes).
    Removing hal_wwdg.o(.text.WWDG_GetCounter), (16 bytes).
    Removing hal_wwdg.o(.ARM.exidx.text.WWDG_GetCounter), (8 bytes).
    Removing hal_wwdg.o(.text.WWDG_Enable), (16 bytes).
    Removing hal_wwdg.o(.ARM.exidx.text.WWDG_Enable), (8 bytes).
    Removing hal_wwdg.o(.text.WWDG_GetFlagStatus), (16 bytes).
    Removing hal_wwdg.o(.ARM.exidx.text.WWDG_GetFlagStatus), (8 bytes).
    Removing hal_wwdg.o(.text.WWDG_ClearFlag), (16 bytes).
    Removing hal_wwdg.o(.ARM.exidx.text.WWDG_ClearFlag), (8 bytes).
    Removing system_mm32spin06xx_s.o(.text), (0 bytes).
    Removing system_mm32spin06xx_s.o(.ARM.exidx.text.SystemInit), (8 bytes).
    Removing system_mm32spin06xx_s.o(.text.AutoCalPllFactor), (108 bytes).
    Removing system_mm32spin06xx_s.o(.ARM.exidx.text.AutoCalPllFactor), (8 bytes).
    Removing system_mm32spin06xx_s.o(.rodata.AHBPrescTable), (16 bytes).

830 unused section(s) (total 16313 bytes) removed from the image.

==============================================================================

Image Symbol Table

    Local Symbols

    Symbol Name                              Value     Ov Type        Size  Object(Section)

    ../clib/angel/boardlib.s                 0x00000000   Number         0  boardinit1.o ABSOLUTE
    ../clib/angel/boardlib.s                 0x00000000   Number         0  boardinit2.o ABSOLUTE
    ../clib/angel/boardlib.s                 0x00000000   Number         0  boardinit3.o ABSOLUTE
    ../clib/angel/boardlib.s                 0x00000000   Number         0  boardshut.o ABSOLUTE
    ../clib/angel/handlers.s                 0x00000000   Number         0  __scatter_copy.o ABSOLUTE
    ../clib/angel/handlers.s                 0x00000000   Number         0  __scatter_zi.o ABSOLUTE
    ../clib/angel/kernel.s                   0x00000000   Number         0  __rtentry.o ABSOLUTE
    ../clib/angel/kernel.s                   0x00000000   Number         0  __rtentry2.o ABSOLUTE
    ../clib/angel/kernel.s                   0x00000000   Number         0  __rtentry4.o ABSOLUTE
    ../clib/angel/kernel.s                   0x00000000   Number         0  rtexit.o ABSOLUTE
    ../clib/angel/kernel.s                   0x00000000   Number         0  rtexit2.o ABSOLUTE
    ../clib/angel/rt.s                       0x00000000   Number         0  aeabi_idiv0.o ABSOLUTE
    ../clib/angel/rt.s                       0x00000000   Number         0  aeabi_idiv0_sigfpe.o ABSOLUTE
    ../clib/angel/rt.s                       0x00000000   Number         0  rt_div0.o ABSOLUTE
    ../clib/angel/rt.s                       0x00000000   Number         0  rt_raise.o ABSOLUTE
    ../clib/angel/scatterp.s                 0x00000000   Number         0  __scatter.o ABSOLUTE
    ../clib/angel/startup.s                  0x00000000   Number         0  __main.o ABSOLUTE
    ../clib/angel/sys.s                      0x00000000   Number         0  sys_stackheap_outer.o ABSOLUTE
    ../clib/angel/sys.s                      0x00000000   Number         0  libspace.o ABSOLUTE
    ../clib/angel/sys.s                      0x00000000   Number         0  tempstk.o ABSOLUTE
    ../clib/angel/sys.s                      0x00000000   Number         0  use_no_semi.o ABSOLUTE
    ../clib/angel/sys.s                      0x00000000   Number         0  indicate_semi.o ABSOLUTE
    ../clib/angel/sysapp.c                   0x00000000   Number         0  sys_exit.o ABSOLUTE
    ../clib/angel/sysapp.c                   0x00000000   Number         0  sys_exit_hlt.o ABSOLUTE
    ../clib/angel/sysapp.c                   0x00000000   Number         0  sys_wrch.o ABSOLUTE
    ../clib/angel/sysapp.c                   0x00000000   Number         0  sys_wrch_hlt.o ABSOLUTE
    ../clib/angel/sysapp.c                   0x00000000   Number         0  sys_command.o ABSOLUTE
    ../clib/angel/sysapp.c                   0x00000000   Number         0  sys_command_hlt.o ABSOLUTE
    ../clib/armsys.c                         0x00000000   Number         0  argv_veneer.o ABSOLUTE
    ../clib/armsys.c                         0x00000000   Number         0  _get_argv_nomalloc.o ABSOLUTE
    ../clib/armsys.c                         0x00000000   Number         0  no_argv.o ABSOLUTE
    ../clib/division.s                       0x00000000   Number         0  aeabi_sdivfast.o ABSOLUTE
    ../clib/division.s                       0x00000000   Number         0  aeabi_sdivfast_div0.o ABSOLUTE
    ../clib/heapalloc.c                      0x00000000   Number         0  hrguard.o ABSOLUTE
    ../clib/heapaux.c                        0x00000000   Number         0  heapauxi.o ABSOLUTE
    ../clib/libinit.s                        0x00000000   Number         0  libinit.o ABSOLUTE
    ../clib/libinit.s                        0x00000000   Number         0  libinit2.o ABSOLUTE
    ../clib/libinit.s                        0x00000000   Number         0  libshutdown.o ABSOLUTE
    ../clib/libinit.s                        0x00000000   Number         0  libshutdown2.o ABSOLUTE
    ../clib/memcpset.c                       0x00000000   Number         0  rt_memcpy.o ABSOLUTE
    ../clib/memcpset.c                       0x00000000   Number         0  rt_memcpy.o ABSOLUTE
    ../clib/memcpset.c                       0x00000000   Number         0  rt_memclr.o ABSOLUTE
    ../clib/signal.c                         0x00000000   Number         0  defsig_fpe_outer.o ABSOLUTE
    ../clib/signal.c                         0x00000000   Number         0  defsig_fpe_formal.o ABSOLUTE
    ../clib/signal.c                         0x00000000   Number         0  defsig_exit.o ABSOLUTE
    ../clib/signal.c                         0x00000000   Number         0  defsig_fpe_inner.o ABSOLUTE
    ../clib/signal.c                         0x00000000   Number         0  __raise.o ABSOLUTE
    ../clib/signal.c                         0x00000000   Number         0  defsig_general.o ABSOLUTE
    ../clib/signal.c                         0x00000000   Number         0  defsig_abrt_inner.o ABSOLUTE
    ../clib/signal.c                         0x00000000   Number         0  defsig_rtred_inner.o ABSOLUTE
    ../clib/signal.c                         0x00000000   Number         0  defsig_rtmem_inner.o ABSOLUTE
    ../clib/signal.c                         0x00000000   Number         0  defsig_rtmem_outer.o ABSOLUTE
    ../clib/signal.c                         0x00000000   Number         0  defsig_rtmem_formal.o ABSOLUTE
    ../clib/signal.c                         0x00000000   Number         0  defsig_stak_inner.o ABSOLUTE
    ../clib/signal.c                         0x00000000   Number         0  defsig_pvfn_inner.o ABSOLUTE
    ../clib/signal.c                         0x00000000   Number         0  defsig_cppl_inner.o ABSOLUTE
    ../clib/signal.c                         0x00000000   Number         0  defsig_segv_inner.o ABSOLUTE
    ../clib/signal.c                         0x00000000   Number         0  defsig_other.o ABSOLUTE
    ../clib/signal.s                         0x00000000   Number         0  defsig.o ABSOLUTE
    ../clib/stdlib.c                         0x00000000   Number         0  exit.o ABSOLUTE
    ../fplib/cfplib/d2f.c                    0x00000000   Number         0  d2f.o ABSOLUTE
    ../fplib/cfplib/ddiv.c                   0x00000000   Number         0  ddiv.o ABSOLUTE
    ../fplib/cfplib/dmul.c                   0x00000000   Number         0  dmul.o ABSOLUTE
    ../fplib/cfplib/f2d.c                    0x00000000   Number         0  f2d.o ABSOLUTE
    ../fplib/cfplib/fdiv.c                   0x00000000   Number         0  fdiv.o ABSOLUTE
    ../fplib/cfplib/ffix.c                   0x00000000   Number         0  dfixi.o ABSOLUTE
    ../fplib/cfplib/ffix.c                   0x00000000   Number         0  ffixi.o ABSOLUTE
    ../fplib/cfplib/fflt.c                   0x00000000   Number         0  dflti.o ABSOLUTE
    ../fplib/cfplib/fflt.c                   0x00000000   Number         0  fflti.o ABSOLUTE
    ../fplib/cfplib/fpinit.c                 0x00000000   Number         0  fpinit.o ABSOLUTE
    ../fplib/fmul6m.s                        0x00000000   Number         0  fmul.o ABSOLUTE
    ../fplib/usenofp.s                       0x00000000   Number         0  usenofp.o ABSOLUTE
    FOC_Math.c                               0x00000000   Number         0  foc_math.o ABSOLUTE
    PID.c                                    0x00000000   Number         0  pid.o ABSOLUTE
    RTE/Device/MM32SPIN05PF/startup_mm32spin06xx_s_keil.s 0x00000000   Number         0  startup_mm32spin06xx_s_keil.o ABSOLUTE
    bldc.c                                   0x00000000   Number         0  bldc.o ABSOLUTE
    calculation.c                            0x00000000   Number         0  calculation.o ABSOLUTE
    clarke.c                                 0x00000000   Number         0  clarke.o ABSOLUTE
    dc.s                                     0x00000000   Number         0  dc.o ABSOLUTE
    delay.c                                  0x00000000   Number         0  delay.o ABSOLUTE
    hal_adc.c                                0x00000000   Number         0  hal_adc.o ABSOLUTE
    hal_comp.c                               0x00000000   Number         0  hal_comp.o ABSOLUTE
    hal_crc.c                                0x00000000   Number         0  hal_crc.o ABSOLUTE
    hal_dbg.c                                0x00000000   Number         0  hal_dbg.o ABSOLUTE
    hal_div.c                                0x00000000   Number         0  hal_div.o ABSOLUTE
    hal_dma.c                                0x00000000   Number         0  hal_dma.o ABSOLUTE
    hal_exti.c                               0x00000000   Number         0  hal_exti.o ABSOLUTE
    hal_flash.c                              0x00000000   Number         0  hal_flash.o ABSOLUTE
    hal_gpio.c                               0x00000000   Number         0  hal_gpio.o ABSOLUTE
    hal_i2c.c                                0x00000000   Number         0  hal_i2c.o ABSOLUTE
    hal_iwdg.c                               0x00000000   Number         0  hal_iwdg.o ABSOLUTE
    hal_misc.c                               0x00000000   Number         0  hal_misc.o ABSOLUTE
    hal_pwr.c                                0x00000000   Number         0  hal_pwr.o ABSOLUTE
    hal_rcc.c                                0x00000000   Number         0  hal_rcc.o ABSOLUTE
    hal_spi.c                                0x00000000   Number         0  hal_spi.o ABSOLUTE
    hal_tim.c                                0x00000000   Number         0  hal_tim.o ABSOLUTE
    hal_uart.c                               0x00000000   Number         0  hal_uart.o ABSOLUTE
    hal_uid.c                                0x00000000   Number         0  hal_uid.o ABSOLUTE
    hal_ver.c                                0x00000000   Number         0  hal_ver.o ABSOLUTE
    hal_wwdg.c                               0x00000000   Number         0  hal_wwdg.o ABSOLUTE
    hallhandle.c                             0x00000000   Number         0  hallhandle.o ABSOLUTE
    hardware.c                               0x00000000   Number         0  hardware.o ABSOLUTE
    initialize.c                             0x00000000   Number         0  initialize.o ABSOLUTE
    interrupt.c                              0x00000000   Number         0  interrupt.o ABSOLUTE
    ipark.c                                  0x00000000   Number         0  ipark.o ABSOLUTE
    main.c                                   0x00000000   Number         0  main.o ABSOLUTE
    park.c                                   0x00000000   Number         0  park.o ABSOLUTE
    pwm_gen.c                                0x00000000   Number         0  pwm_gen.o ABSOLUTE
    remoteUartBus.c                          0x00000000   Number         0  remoteuartbus.o ABSOLUTE
    sim_eeprom.c                             0x00000000   Number         0  sim_eeprom.o ABSOLUTE
    system_mm32spin06xx_s.c                  0x00000000   Number         0  system_mm32spin06xx_s.o ABSOLUTE
    uart.c                                   0x00000000   Number         0  uart.o ABSOLUTE
    RESET                                    0x08000000   Section      192  startup_mm32spin06xx_s_keil.o(RESET)
    !!!main                                  0x080000c0   Section        8  __main.o(!!!main)
    !!!scatter                               0x080000c8   Section       60  __scatter.o(!!!scatter)
    !!handler_copy                           0x08000104   Section       26  __scatter_copy.o(!!handler_copy)
    !!handler_zi                             0x08000120   Section       28  __scatter_zi.o(!!handler_zi)
    .ARM.Collect$$libinit$$00000000          0x0800013c   Section        2  libinit.o(.ARM.Collect$$libinit$$00000000)
    .ARM.Collect$$libinit$$00000002          0x0800013e   Section        0  libinit2.o(.ARM.Collect$$libinit$$00000002)
    .ARM.Collect$$libinit$$00000004          0x0800013e   Section        0  libinit2.o(.ARM.Collect$$libinit$$00000004)
    .ARM.Collect$$libinit$$00000006          0x0800013e   Section        0  libinit2.o(.ARM.Collect$$libinit$$00000006)
    .ARM.Collect$$libinit$$0000000C          0x0800013e   Section        0  libinit2.o(.ARM.Collect$$libinit$$0000000C)
    .ARM.Collect$$libinit$$0000000E          0x0800013e   Section        0  libinit2.o(.ARM.Collect$$libinit$$0000000E)
    .ARM.Collect$$libinit$$00000010          0x0800013e   Section        0  libinit2.o(.ARM.Collect$$libinit$$00000010)
    .ARM.Collect$$libinit$$00000013          0x0800013e   Section        0  libinit2.o(.ARM.Collect$$libinit$$00000013)
    .ARM.Collect$$libinit$$00000015          0x0800013e   Section        0  libinit2.o(.ARM.Collect$$libinit$$00000015)
    .ARM.Collect$$libinit$$00000017          0x0800013e   Section        0  libinit2.o(.ARM.Collect$$libinit$$00000017)
    .ARM.Collect$$libinit$$00000019          0x0800013e   Section        0  libinit2.o(.ARM.Collect$$libinit$$00000019)
    .ARM.Collect$$libinit$$0000001B          0x0800013e   Section        0  libinit2.o(.ARM.Collect$$libinit$$0000001B)
    .ARM.Collect$$libinit$$0000001D          0x0800013e   Section        0  libinit2.o(.ARM.Collect$$libinit$$0000001D)
    .ARM.Collect$$libinit$$0000001F          0x0800013e   Section        0  libinit2.o(.ARM.Collect$$libinit$$0000001F)
    .ARM.Collect$$libinit$$00000021          0x0800013e   Section        0  libinit2.o(.ARM.Collect$$libinit$$00000021)
    .ARM.Collect$$libinit$$00000023          0x0800013e   Section        0  libinit2.o(.ARM.Collect$$libinit$$00000023)
    .ARM.Collect$$libinit$$00000025          0x0800013e   Section        0  libinit2.o(.ARM.Collect$$libinit$$00000025)
    .ARM.Collect$$libinit$$00000027          0x0800013e   Section        0  libinit2.o(.ARM.Collect$$libinit$$00000027)
    .ARM.Collect$$libinit$$0000002E          0x0800013e   Section        0  libinit2.o(.ARM.Collect$$libinit$$0000002E)
    .ARM.Collect$$libinit$$00000030          0x0800013e   Section        0  libinit2.o(.ARM.Collect$$libinit$$00000030)
    .ARM.Collect$$libinit$$00000032          0x0800013e   Section        0  libinit2.o(.ARM.Collect$$libinit$$00000032)
    .ARM.Collect$$libinit$$00000034          0x0800013e   Section        0  libinit2.o(.ARM.Collect$$libinit$$00000034)
    .ARM.Collect$$libinit$$00000035          0x0800013e   Section        2  libinit2.o(.ARM.Collect$$libinit$$00000035)
    .ARM.Collect$$libshutdown$$00000000      0x08000140   Section        2  libshutdown.o(.ARM.Collect$$libshutdown$$00000000)
    .ARM.Collect$$libshutdown$$00000002      0x08000142   Section        0  libshutdown2.o(.ARM.Collect$$libshutdown$$00000002)
    .ARM.Collect$$libshutdown$$00000004      0x08000142   Section        0  libshutdown2.o(.ARM.Collect$$libshutdown$$00000004)
    .ARM.Collect$$libshutdown$$00000007      0x08000142   Section        0  libshutdown2.o(.ARM.Collect$$libshutdown$$00000007)
    .ARM.Collect$$libshutdown$$0000000A      0x08000142   Section        0  libshutdown2.o(.ARM.Collect$$libshutdown$$0000000A)
    .ARM.Collect$$libshutdown$$0000000C      0x08000142   Section        0  libshutdown2.o(.ARM.Collect$$libshutdown$$0000000C)
    .ARM.Collect$$libshutdown$$0000000F      0x08000142   Section        0  libshutdown2.o(.ARM.Collect$$libshutdown$$0000000F)
    .ARM.Collect$$libshutdown$$00000010      0x08000142   Section        2  libshutdown2.o(.ARM.Collect$$libshutdown$$00000010)
    .ARM.Collect$$rtentry$$00000000          0x08000144   Section        0  __rtentry.o(.ARM.Collect$$rtentry$$00000000)
    .ARM.Collect$$rtentry$$00000002          0x08000144   Section        0  __rtentry2.o(.ARM.Collect$$rtentry$$00000002)
    .ARM.Collect$$rtentry$$00000004          0x08000144   Section        6  __rtentry4.o(.ARM.Collect$$rtentry$$00000004)
    .ARM.Collect$$rtentry$$00000009          0x0800014a   Section        0  __rtentry2.o(.ARM.Collect$$rtentry$$00000009)
    .ARM.Collect$$rtentry$$0000000A          0x0800014a   Section        4  __rtentry2.o(.ARM.Collect$$rtentry$$0000000A)
    .ARM.Collect$$rtentry$$0000000C          0x0800014e   Section        0  __rtentry2.o(.ARM.Collect$$rtentry$$0000000C)
    .ARM.Collect$$rtentry$$0000000D          0x0800014e   Section        8  __rtentry2.o(.ARM.Collect$$rtentry$$0000000D)
    .ARM.Collect$$rtexit$$00000000           0x08000156   Section        2  rtexit.o(.ARM.Collect$$rtexit$$00000000)
    .ARM.Collect$$rtexit$$00000002           0x08000158   Section        0  rtexit2.o(.ARM.Collect$$rtexit$$00000002)
    .ARM.Collect$$rtexit$$00000003           0x08000158   Section        4  rtexit2.o(.ARM.Collect$$rtexit$$00000003)
    .ARM.Collect$$rtexit$$00000004           0x0800015c   Section        6  rtexit2.o(.ARM.Collect$$rtexit$$00000004)
    .emb_text                                0x08000164   Section       56  rt_memcpy.o(.emb_text)
    .text                                    0x0800019c   Section      124  startup_mm32spin06xx_s_keil.o(.text)
    .text                                    0x08000218   Section        0  rt_memcpy.o(.text)
    .text                                    0x0800029a   Section        0  rt_memclr.o(.text)
    .text                                    0x080002da   Section        0  heapauxi.o(.text)
    .text                                    0x080002e0   Section        0  d2f.o(.text)
    .text                                    0x0800035c   Section        0  ddiv.o(.text)
    .text                                    0x080007a4   Section        0  dfixi.o(.text)
    .text                                    0x08000810   Section        0  dflti.o(.text)
    .text                                    0x08000868   Section        0  dmul.o(.text)
    .text                                    0x08000ab0   Section        0  f2d.o(.text)
    .text                                    0x08000b04   Section        0  fdiv.o(.text)
    .text                                    0x08000c64   Section        0  fflti.o(.text)
    .text                                    0x08000cc2   Section       62  sys_stackheap_outer.o(.text)
    .text                                    0x08000d00   Section        0  exit.o(.text)
    .text                                    0x08000d10   Section        8  libspace.o(.text)
    .text                                    0x08000d18   Section        0  sys_exit.o(.text)
    .text                                    0x08000d24   Section        2  use_no_semi.o(.text)
    .text                                    0x08000d26   Section        0  indicate_semi.o(.text)
    [Anonymous Symbol]                       0x08000d28   Section        0  interrupt.o(.text.ADC1_COMP_IRQHandler)
    __arm_cp.3_0                             0x08000ff0   Number         4  interrupt.o(.text.ADC1_COMP_IRQHandler)
    __arm_cp.3_1                             0x08000ff4   Number         4  interrupt.o(.text.ADC1_COMP_IRQHandler)
    __arm_cp.3_2                             0x08000ff8   Number         4  interrupt.o(.text.ADC1_COMP_IRQHandler)
    __arm_cp.3_3                             0x08000ffc   Number         4  interrupt.o(.text.ADC1_COMP_IRQHandler)
    __arm_cp.3_4                             0x08001000   Number         4  interrupt.o(.text.ADC1_COMP_IRQHandler)
    __arm_cp.3_5                             0x08001004   Number         4  interrupt.o(.text.ADC1_COMP_IRQHandler)
    __arm_cp.3_6                             0x08001008   Number         4  interrupt.o(.text.ADC1_COMP_IRQHandler)
    __arm_cp.3_7                             0x0800100c   Number         4  interrupt.o(.text.ADC1_COMP_IRQHandler)
    __arm_cp.3_8                             0x08001010   Number         4  interrupt.o(.text.ADC1_COMP_IRQHandler)
    __arm_cp.3_9                             0x08001014   Number         4  interrupt.o(.text.ADC1_COMP_IRQHandler)
    __arm_cp.3_10                            0x08001018   Number         4  interrupt.o(.text.ADC1_COMP_IRQHandler)
    __arm_cp.3_11                            0x0800101c   Number         4  interrupt.o(.text.ADC1_COMP_IRQHandler)
    __arm_cp.3_12                            0x08001020   Number         4  interrupt.o(.text.ADC1_COMP_IRQHandler)
    __arm_cp.3_13                            0x08001024   Number         4  interrupt.o(.text.ADC1_COMP_IRQHandler)
    __arm_cp.3_14                            0x08001028   Number         4  interrupt.o(.text.ADC1_COMP_IRQHandler)
    __arm_cp.3_15                            0x0800102c   Number         4  interrupt.o(.text.ADC1_COMP_IRQHandler)
    __arm_cp.3_16                            0x08001030   Number         4  interrupt.o(.text.ADC1_COMP_IRQHandler)
    __arm_cp.3_17                            0x08001034   Number         4  interrupt.o(.text.ADC1_COMP_IRQHandler)
    __arm_cp.3_18                            0x08001038   Number         4  interrupt.o(.text.ADC1_COMP_IRQHandler)
    __arm_cp.3_19                            0x0800103c   Number         4  interrupt.o(.text.ADC1_COMP_IRQHandler)
    __arm_cp.3_20                            0x08001040   Number         4  interrupt.o(.text.ADC1_COMP_IRQHandler)
    __arm_cp.3_21                            0x08001044   Number         4  interrupt.o(.text.ADC1_COMP_IRQHandler)
    __arm_cp.3_22                            0x08001048   Number         4  interrupt.o(.text.ADC1_COMP_IRQHandler)
    __arm_cp.3_23                            0x0800104c   Number         4  interrupt.o(.text.ADC1_COMP_IRQHandler)
    __arm_cp.3_24                            0x08001050   Number         4  interrupt.o(.text.ADC1_COMP_IRQHandler)
    __arm_cp.3_25                            0x08001054   Number         4  interrupt.o(.text.ADC1_COMP_IRQHandler)
    __arm_cp.3_26                            0x08001058   Number         4  interrupt.o(.text.ADC1_COMP_IRQHandler)
    __arm_cp.3_27                            0x0800105c   Number         4  interrupt.o(.text.ADC1_COMP_IRQHandler)
    __arm_cp.3_28                            0x08001060   Number         4  interrupt.o(.text.ADC1_COMP_IRQHandler)
    __arm_cp.3_29                            0x08001064   Number         4  interrupt.o(.text.ADC1_COMP_IRQHandler)
    __arm_cp.3_30                            0x08001068   Number         4  interrupt.o(.text.ADC1_COMP_IRQHandler)
    __arm_cp.3_31                            0x0800106c   Number         4  interrupt.o(.text.ADC1_COMP_IRQHandler)
    __arm_cp.3_32                            0x08001070   Number         4  interrupt.o(.text.ADC1_COMP_IRQHandler)
    [Anonymous Symbol]                       0x08001074   Section        0  hal_adc.o(.text.ADC_AnalogWatchdogCmd)
    [Anonymous Symbol]                       0x08001086   Section        0  hal_adc.o(.text.ADC_AnalogWatchdogSingleChannelConfig)
    [Anonymous Symbol]                       0x0800109a   Section        0  hal_adc.o(.text.ADC_AnalogWatchdogThresholdsConfig)
    [Anonymous Symbol]                       0x080010a2   Section        0  hal_adc.o(.text.ADC_ClearFlag)
    [Anonymous Symbol]                       0x080010b0   Section        0  hal_adc.o(.text.ADC_ClearITPendingBit)
    [Anonymous Symbol]                       0x080010be   Section        0  hal_adc.o(.text.ADC_Cmd)
    [Anonymous Symbol]                       0x080010ce   Section        0  hal_adc.o(.text.ADC_ExternalTrigConvCmd)
    [Anonymous Symbol]                       0x080010e0   Section        0  hal_adc.o(.text.ADC_GetFlagStatus)
    [Anonymous Symbol]                       0x080010f0   Section        0  hal_adc.o(.text.ADC_GetITStatus)
    [Anonymous Symbol]                       0x08001100   Section        0  hal_adc.o(.text.ADC_ITConfig)
    [Anonymous Symbol]                       0x08001120   Section        0  hal_adc.o(.text.ADC_Init)
    __arm_cp.1_0                             0x08001150   Number         4  hal_adc.o(.text.ADC_Init)
    __arm_cp.1_1                             0x08001154   Number         4  hal_adc.o(.text.ADC_Init)
    [Anonymous Symbol]                       0x08001158   Section        0  hal_adc.o(.text.ADC_RegularChannelConfig)
    [Anonymous Symbol]                       0x08001194   Section        0  hal_adc.o(.text.ADC_SoftwareStartConvCmd)
    [Anonymous Symbol]                       0x080011a8   Section        0  hal_adc.o(.text.ADC_VrefintCmd)
    __arm_cp.19_0                            0x080011c0   Number         4  hal_adc.o(.text.ADC_VrefintCmd)
    [Anonymous Symbol]                       0x080011c4   Section        0  initialize.o(.text.BLDC_init)
    __arm_cp.4_0                             0x08001264   Number         4  initialize.o(.text.BLDC_init)
    __arm_cp.4_1                             0x08001268   Number         4  initialize.o(.text.BLDC_init)
    [Anonymous Symbol]                       0x0800126c   Section        0  clarke.o(.text.CLARKE_MACRO1)
    __arm_cp.0_0                             0x0800129c   Number         4  clarke.o(.text.CLARKE_MACRO1)
    __arm_cp.0_1                             0x080012a0   Number         4  clarke.o(.text.CLARKE_MACRO1)
    __arm_cp.0_2                             0x080012a4   Number         4  clarke.o(.text.CLARKE_MACRO1)
    __arm_cp.0_3                             0x080012a8   Number         4  clarke.o(.text.CLARKE_MACRO1)
    [Anonymous Symbol]                       0x080012ac   Section        0  pid.o(.text.CalcPI)
    [Anonymous Symbol]                       0x080012ec   Section        0  delay.o(.text.DELAY_Init)
    __arm_cp.0_0                             0x08001328   Number         4  delay.o(.text.DELAY_Init)
    __arm_cp.0_1                             0x0800132c   Number         4  delay.o(.text.DELAY_Init)
    __arm_cp.0_2                             0x08001330   Number         4  delay.o(.text.DELAY_Init)
    __arm_cp.0_3                             0x08001334   Number         4  delay.o(.text.DELAY_Init)
    [Anonymous Symbol]                       0x08001338   Section        0  delay.o(.text.DELAY_Ms)
    __arm_cp.2_0                             0x0800134c   Number         4  delay.o(.text.DELAY_Ms)
    [Anonymous Symbol]                       0x08001350   Section        0  interrupt.o(.text.DMA1_Channel2_3_IRQHandler)
    [Anonymous Symbol]                       0x0800136a   Section        0  interrupt.o(.text.DMA1_Channel4_5_IRQHandler)
    [Anonymous Symbol]                       0x08001384   Section        0  hal_dma.o(.text.DMA_ClearITPendingBit)
    [Anonymous Symbol]                       0x0800138c   Section        0  hal_dma.o(.text.DMA_Cmd)
    [Anonymous Symbol]                       0x08001398   Section        0  hal_dma.o(.text.DMA_DeInit)
    __arm_cp.0_0                             0x080013c4   Number         4  hal_dma.o(.text.DMA_DeInit)
    [Anonymous Symbol]                       0x080013c8   Section        0  hal_dma.o(.text.DMA_GetITStatus)
    __arm_cp.8_0                             0x080013d4   Number         4  hal_dma.o(.text.DMA_GetITStatus)
    [Anonymous Symbol]                       0x080013d8   Section        0  hal_dma.o(.text.DMA_ITConfig)
    [Anonymous Symbol]                       0x080013ec   Section        0  hal_dma.o(.text.DMA_Init)
    __arm_cp.1_0                             0x08001434   Number         4  hal_dma.o(.text.DMA_Init)
    [Anonymous Symbol]                       0x08001438   Section        0  initialize.o(.text.DMA_NVIC_Config)
    [Anonymous Symbol]                       0x08001494   Section        0  hal_dma.o(.text.DMA_StructInit)
    [Anonymous Symbol]                       0x080014aa   Section        0  hal_gpio.o(.text.GPIO_Init)
    [Anonymous Symbol]                       0x0800153a   Section        0  hal_gpio.o(.text.GPIO_PinAFConfig)
    [Anonymous Symbol]                       0x0800155a   Section        0  hal_gpio.o(.text.GPIO_ReadInputDataBit)
    [Anonymous Symbol]                       0x08001564   Section        0  hal_gpio.o(.text.GPIO_StructInit)
    __arm_cp.3_0                             0x08001570   Number         4  hal_gpio.o(.text.GPIO_StructInit)
    __arm_cp.3_1                             0x08001574   Number         4  hal_gpio.o(.text.GPIO_StructInit)
    [Anonymous Symbol]                       0x08001578   Section        0  hal_gpio.o(.text.GPIO_WriteBit)
    [Anonymous Symbol]                       0x08001588   Section        0  hallhandle.o(.text.HALLModuleCalc)
    __arm_cp.1_1                             0x08001620   Number         4  hallhandle.o(.text.HALLModuleCalc)
    __arm_cp.1_2                             0x08001624   Number         4  hallhandle.o(.text.HALLModuleCalc)
    __arm_cp.1_3                             0x08001628   Number         4  hallhandle.o(.text.HALLModuleCalc)
    __arm_cp.1_5                             0x0800162c   Number         4  hallhandle.o(.text.HALLModuleCalc)
    [Anonymous Symbol]                       0x08001630   Section        0  hallhandle.o(.text.HALLModuleInit)
    __arm_cp.0_0                             0x08001684   Number         4  hallhandle.o(.text.HALLModuleInit)
    __arm_cp.0_1                             0x08001688   Number         4  hallhandle.o(.text.HALLModuleInit)
    __arm_cp.0_2                             0x0800168c   Number         4  hallhandle.o(.text.HALLModuleInit)
    __arm_cp.0_3                             0x08001690   Number         4  hallhandle.o(.text.HALLModuleInit)
    __arm_cp.0_4                             0x08001694   Number         4  hallhandle.o(.text.HALLModuleInit)
    __arm_cp.0_5                             0x08001698   Number         4  hallhandle.o(.text.HALLModuleInit)
    __arm_cp.0_6                             0x0800169c   Number         4  hallhandle.o(.text.HALLModuleInit)
    __arm_cp.0_7                             0x080016a0   Number         4  hallhandle.o(.text.HALLModuleInit)
    __arm_cp.0_8                             0x080016a4   Number         4  hallhandle.o(.text.HALLModuleInit)
    [Anonymous Symbol]                       0x080016a8   Section        0  initialize.o(.text.HALLTIM_Init)
    __arm_cp.2_0                             0x080017a8   Number         4  initialize.o(.text.HALLTIM_Init)
    __arm_cp.2_2                             0x080017ac   Number         4  initialize.o(.text.HALLTIM_Init)
    [Anonymous Symbol]                       0x080017b0   Section        0  initialize.o(.text.HALL_Init)
    __arm_cp.1_0                             0x080017d0   Number         4  initialize.o(.text.HALL_Init)
    [Anonymous Symbol]                       0x080017d4   Section        0  ipark.o(.text.IPARK_MACRO1)
    [Anonymous Symbol]                       0x08001810   Section        0  hal_iwdg.o(.text.IWDG_ReloadCounter)
    __arm_cp.6_0                             0x08001818   Number         4  hal_iwdg.o(.text.IWDG_ReloadCounter)
    __arm_cp.6_1                             0x0800181c   Number         4  hal_iwdg.o(.text.IWDG_ReloadCounter)
    [Anonymous Symbol]                       0x08001820   Section        0  foc_math.o(.text.InitNormalization)
    [Anonymous Symbol]                       0x08001850   Section        0  pid.o(.text.InitPI)
    __arm_cp.0_0                             0x08001890   Number         4  pid.o(.text.InitPI)
    __arm_cp.0_1                             0x08001894   Number         4  pid.o(.text.InitPI)
    __arm_cp.0_2                             0x08001898   Number         4  pid.o(.text.InitPI)
    __arm_cp.0_3                             0x0800189c   Number         4  pid.o(.text.InitPI)
    __arm_cp.0_4                             0x080018a0   Number         4  pid.o(.text.InitPI)
    [Anonymous Symbol]                       0x080018a4   Section        0  foc_math.o(.text.MCM_Trig_Functions)
    __arm_cp.0_0                             0x08001914   Number         4  foc_math.o(.text.MCM_Trig_Functions)
    [Anonymous Symbol]                       0x08001918   Section        0  foc_math.o(.text.MovingAvgCal)
    [Anonymous Symbol]                       0x08001948   Section        0  foc_math.o(.text.MovingAvgInit)
    [Anonymous Symbol]                       0x08001962   Section        0  initialize.o(.text.NVIC_Configure)
    [Anonymous Symbol]                       0x0800197c   Section        0  hal_misc.o(.text.NVIC_Init)
    __arm_cp.0_0                             0x080019c0   Number         4  hal_misc.o(.text.NVIC_Init)
    __arm_cp.0_1                             0x080019c4   Number         4  hal_misc.o(.text.NVIC_Init)
    __arm_cp.0_2                             0x080019c8   Number         4  hal_misc.o(.text.NVIC_Init)
    [Anonymous Symbol]                       0x080019cc   Section        0  park.o(.text.PARK_MACRO1)
    [Anonymous Symbol]                       0x080019fc   Section        0  pwm_gen.o(.text.PWM_GEN_calc)
    __arm_cp.1_0                             0x08001bc0   Number         4  pwm_gen.o(.text.PWM_GEN_calc)
    [Anonymous Symbol]                       0x08001bc4   Section        0  pwm_gen.o(.text.PWM_GEN_init)
    [Anonymous Symbol]                       0x08001bdc   Section        0  hal_rcc.o(.text.RCC_AHBPeriphClockCmd)
    __arm_cp.18_0                            0x08001bf4   Number         4  hal_rcc.o(.text.RCC_AHBPeriphClockCmd)
    [Anonymous Symbol]                       0x08001bf8   Section        0  hal_rcc.o(.text.RCC_APB1PeriphClockCmd)
    __arm_cp.20_0                            0x08001c10   Number         4  hal_rcc.o(.text.RCC_APB1PeriphClockCmd)
    [Anonymous Symbol]                       0x08001c14   Section        0  hal_rcc.o(.text.RCC_APB2PeriphClockCmd)
    __arm_cp.19_0                            0x08001c2c   Number         4  hal_rcc.o(.text.RCC_APB2PeriphClockCmd)
    [Anonymous Symbol]                       0x08001c30   Section        0  hal_rcc.o(.text.RCC_GetPCLK1Freq)
    [Anonymous Symbol]                       0x08001c5c   Section        0  hal_rcc.o(.text.RCC_GetPCLK2Freq)
    __arm_cp.16_0                            0x08001c88   Number         4  hal_rcc.o(.text.RCC_GetPCLK2Freq)
    __arm_cp.16_1                            0x08001c8c   Number         4  hal_rcc.o(.text.RCC_GetPCLK2Freq)
    __arm_cp.16_2                            0x08001c90   Number         4  hal_rcc.o(.text.RCC_GetPCLK2Freq)
    __arm_cp.16_3                            0x08001c94   Number         4  hal_rcc.o(.text.RCC_GetPCLK2Freq)
    [Anonymous Symbol]                       0x08001c98   Section        0  remoteuartbus.o(.text.RemoteUpdate)
    __arm_cp.1_0                             0x08001d4c   Number         4  remoteuartbus.o(.text.RemoteUpdate)
    __arm_cp.1_1                             0x08001d50   Number         4  remoteuartbus.o(.text.RemoteUpdate)
    __arm_cp.1_3                             0x08001d54   Number         4  remoteuartbus.o(.text.RemoteUpdate)
    __arm_cp.1_4                             0x08001d58   Number         4  remoteuartbus.o(.text.RemoteUpdate)
    __arm_cp.1_5                             0x08001d5c   Number         4  remoteuartbus.o(.text.RemoteUpdate)
    __arm_cp.1_6                             0x08001d60   Number         4  remoteuartbus.o(.text.RemoteUpdate)
    __arm_cp.1_7                             0x08001d64   Number         4  remoteuartbus.o(.text.RemoteUpdate)
    __arm_cp.1_9                             0x08001d68   Number         4  remoteuartbus.o(.text.RemoteUpdate)
    __arm_cp.1_10                            0x08001d6c   Number         4  remoteuartbus.o(.text.RemoteUpdate)
    [Anonymous Symbol]                       0x08001d70   Section        0  delay.o(.text.SysTick_Handler)
    __arm_cp.1_0                             0x08001d88   Number         4  delay.o(.text.SysTick_Handler)
    [Anonymous Symbol]                       0x08001d8c   Section        0  system_mm32spin06xx_s.o(.text.SystemInit)
    __arm_cp.0_0                             0x08001ed8   Number         4  system_mm32spin06xx_s.o(.text.SystemInit)
    __arm_cp.0_1                             0x08001edc   Number         4  system_mm32spin06xx_s.o(.text.SystemInit)
    __arm_cp.0_2                             0x08001ee0   Number         4  system_mm32spin06xx_s.o(.text.SystemInit)
    __arm_cp.0_3                             0x08001ee4   Number         4  system_mm32spin06xx_s.o(.text.SystemInit)
    __arm_cp.0_4                             0x08001ee8   Number         4  system_mm32spin06xx_s.o(.text.SystemInit)
    __arm_cp.0_5                             0x08001eec   Number         4  system_mm32spin06xx_s.o(.text.SystemInit)
    __arm_cp.0_6                             0x08001ef0   Number         4  system_mm32spin06xx_s.o(.text.SystemInit)
    __arm_cp.0_7                             0x08001ef4   Number         4  system_mm32spin06xx_s.o(.text.SystemInit)
    __arm_cp.0_8                             0x08001ef8   Number         4  system_mm32spin06xx_s.o(.text.SystemInit)
    __arm_cp.0_9                             0x08001efc   Number         4  system_mm32spin06xx_s.o(.text.SystemInit)
    [Anonymous Symbol]                       0x08001f00   Section        0  interrupt.o(.text.TIM1_BRK_UP_TRG_COM_IRQHandler)
    [Anonymous Symbol]                       0x08001f0c   Section        0  initialize.o(.text.TIM1_init)
    __arm_cp.5_1                             0x08002018   Number         4  initialize.o(.text.TIM1_init)
    __arm_cp.5_2                             0x0800201c   Number         4  initialize.o(.text.TIM1_init)
    __arm_cp.5_3                             0x08002020   Number         4  initialize.o(.text.TIM1_init)
    [Anonymous Symbol]                       0x08002024   Section        0  interrupt.o(.text.TIM2_IRQHandler)
    __arm_cp.4_2                             0x08002074   Number         4  interrupt.o(.text.TIM2_IRQHandler)
    __arm_cp.4_4                             0x08002078   Number         4  interrupt.o(.text.TIM2_IRQHandler)
    [Anonymous Symbol]                       0x0800207c   Section        0  interrupt.o(.text.TIM3_IRQHandler)
    __arm_cp.5_0                             0x080020c8   Number         4  interrupt.o(.text.TIM3_IRQHandler)
    __arm_cp.5_1                             0x080020cc   Number         4  interrupt.o(.text.TIM3_IRQHandler)
    __arm_cp.5_2                             0x080020d0   Number         4  interrupt.o(.text.TIM3_IRQHandler)
    __arm_cp.5_3                             0x080020d4   Number         4  interrupt.o(.text.TIM3_IRQHandler)
    __arm_cp.5_4                             0x080020d8   Number         4  interrupt.o(.text.TIM3_IRQHandler)
    __arm_cp.5_5                             0x080020dc   Number         4  interrupt.o(.text.TIM3_IRQHandler)
    [Anonymous Symbol]                       0x080020e0   Section        0  hal_tim.o(.text.TIM_BDTRConfig)
    [Anonymous Symbol]                       0x080020fe   Section        0  hal_tim.o(.text.TIM_BDTRStructInit)
    [Anonymous Symbol]                       0x08002110   Section        0  hal_tim.o(.text.TIM_CCPreloadControl)
    [Anonymous Symbol]                       0x08002120   Section        0  hal_tim.o(.text.TIM_ClearITPendingBit)
    [Anonymous Symbol]                       0x08002128   Section        0  hal_tim.o(.text.TIM_Cmd)
    [Anonymous Symbol]                       0x08002138   Section        0  hal_tim.o(.text.TIM_CtrlPWMOutputs)
    [Anonymous Symbol]                       0x0800214c   Section        0  hal_tim.o(.text.TIM_GenerateEvent)
    [Anonymous Symbol]                       0x08002150   Section        0  hal_tim.o(.text.TIM_GetITStatus)
    [Anonymous Symbol]                       0x08002164   Section        0  hal_tim.o(.text.TIM_ICInit)
    [Anonymous Symbol]                       0x08002256   Section        0  hal_tim.o(.text.TIM_ICStructInit)
    [Anonymous Symbol]                       0x08002262   Section        0  hal_tim.o(.text.TIM_ITConfig)
    [Anonymous Symbol]                       0x08002278   Section        0  hal_tim.o(.text.TIM_OC1Init)
    __arm_cp.2_0                             0x080022d0   Number         4  hal_tim.o(.text.TIM_OC1Init)
    [Anonymous Symbol]                       0x080022d4   Section        0  hal_tim.o(.text.TIM_OC2Init)
    [Anonymous Symbol]                       0x08002330   Section        0  hal_tim.o(.text.TIM_OC3Init)
    [Anonymous Symbol]                       0x08002388   Section        0  hal_tim.o(.text.TIM_OC4Init)
    __arm_cp.5_0                             0x080023d0   Number         4  hal_tim.o(.text.TIM_OC4Init)
    [Anonymous Symbol]                       0x080023d4   Section        0  hal_tim.o(.text.TIM_OCStructInit)
    [Anonymous Symbol]                       0x080023e2   Section        0  hal_tim.o(.text.TIM_SelectHallSensor)
    [Anonymous Symbol]                       0x080023f4   Section        0  hal_tim.o(.text.TIM_SelectInputTrigger)
    [Anonymous Symbol]                       0x08002400   Section        0  hal_tim.o(.text.TIM_SelectMasterSlaveMode)
    [Anonymous Symbol]                       0x0800240c   Section        0  hal_tim.o(.text.TIM_SelectSlaveMode)
    [Anonymous Symbol]                       0x08002418   Section        0  hal_tim.o(.text.TIM_TimeBaseInit)
    __arm_cp.1_0                             0x08002488   Number         4  hal_tim.o(.text.TIM_TimeBaseInit)
    __arm_cp.1_1                             0x0800248c   Number         4  hal_tim.o(.text.TIM_TimeBaseInit)
    __arm_cp.1_2                             0x08002490   Number         4  hal_tim.o(.text.TIM_TimeBaseInit)
    __arm_cp.1_3                             0x08002494   Number         4  hal_tim.o(.text.TIM_TimeBaseInit)
    __arm_cp.1_4                             0x08002498   Number         4  hal_tim.o(.text.TIM_TimeBaseInit)
    [Anonymous Symbol]                       0x0800249c   Section        0  hal_tim.o(.text.TIM_TimeBaseStructInit)
    [Anonymous Symbol]                       0x080024ac   Section        0  hal_tim.o(.text.TIM_UpdateRequestConfig)
    [Anonymous Symbol]                       0x080024b8   Section        0  initialize.o(.text.UARTX_Init)
    [Anonymous Symbol]                       0x08002514   Section        0  hal_uart.o(.text.UART_Cmd)
    [Anonymous Symbol]                       0x08002520   Section        0  hal_uart.o(.text.UART_DMACmd)
    [Anonymous Symbol]                       0x08002530   Section        0  initialize.o(.text.UART_GPIO_Init)
    __arm_cp.7_0                             0x08002574   Number         4  initialize.o(.text.UART_GPIO_Init)
    [Anonymous Symbol]                       0x08002578   Section        0  hal_uart.o(.text.UART_GetFlagStatus)
    [Anonymous Symbol]                       0x08002584   Section        0  hal_uart.o(.text.UART_Init)
    __arm_cp.1_1                             0x080025f4   Number         4  hal_uart.o(.text.UART_Init)
    [Anonymous Symbol]                       0x080025f8   Section        0  hal_uart.o(.text.UART_SendData)
    [Anonymous Symbol]                       0x08002600   Section        0  uart.o(.text.UART_SendString)
    [Anonymous Symbol]                       0x08002648   Section        0  uart.o(.text.UART_Send_Group)
    __arm_cp.1_0                             0x08002698   Number         4  uart.o(.text.UART_Send_Group)
    __arm_cp.1_1                             0x0800269c   Number         4  uart.o(.text.UART_Send_Group)
    __arm_cp.1_2                             0x080026a0   Number         4  uart.o(.text.UART_Send_Group)
    [Anonymous Symbol]                       0x080026a4   Section        0  hal_uart.o(.text.UART_StructInit)
    [Anonymous Symbol]                       0x080026bc   Section        0  pwm_gen.o(.text.Update_PWM)
    __arm_cp.2_0                             0x080026d4   Number         4  pwm_gen.o(.text.Update_PWM)
    [Anonymous Symbol]                       0x080026d8   Section        0  initialize.o(.text.adc_Init)
    __arm_cp.9_0                             0x080027dc   Number         4  initialize.o(.text.adc_Init)
    __arm_cp.9_1                             0x080027e0   Number         4  initialize.o(.text.adc_Init)
    [Anonymous Symbol]                       0x080027e4   Section        0  hardware.o(.text.analogRead)
    __arm_cp.4_0                             0x0800286c   Number         4  hardware.o(.text.analogRead)
    __arm_cp.4_1                             0x08002870   Number         4  hardware.o(.text.analogRead)
    [Anonymous Symbol]                       0x08002874   Section        0  calculation.o(.text.avgItotal)
    __arm_cp.4_0                             0x080028a8   Number         4  calculation.o(.text.avgItotal)
    __arm_cp.4_1                             0x080028ac   Number         4  calculation.o(.text.avgItotal)
    __arm_cp.4_2                             0x080028b0   Number         4  calculation.o(.text.avgItotal)
    __arm_cp.4_3                             0x080028b4   Number         4  calculation.o(.text.avgItotal)
    __arm_cp.4_4                             0x080028b8   Number         4  calculation.o(.text.avgItotal)
    [Anonymous Symbol]                       0x080028bc   Section        0  calculation.o(.text.avgspeed)
    __arm_cp.2_0                             0x080028f0   Number         4  calculation.o(.text.avgspeed)
    __arm_cp.2_1                             0x080028f4   Number         4  calculation.o(.text.avgspeed)
    __arm_cp.2_2                             0x080028f8   Number         4  calculation.o(.text.avgspeed)
    __arm_cp.2_3                             0x080028fc   Number         4  calculation.o(.text.avgspeed)
    __arm_cp.2_4                             0x08002900   Number         4  calculation.o(.text.avgspeed)
    [Anonymous Symbol]                       0x08002904   Section        0  calculation.o(.text.avgvbat)
    __arm_cp.3_0                             0x08002938   Number         4  calculation.o(.text.avgvbat)
    __arm_cp.3_1                             0x0800293c   Number         4  calculation.o(.text.avgvbat)
    __arm_cp.3_2                             0x08002940   Number         4  calculation.o(.text.avgvbat)
    __arm_cp.3_3                             0x08002944   Number         4  calculation.o(.text.avgvbat)
    __arm_cp.3_4                             0x08002948   Number         4  calculation.o(.text.avgvbat)
    [Anonymous Symbol]                       0x0800294c   Section        0  hardware.o(.text.digitalRead)
    [Anonymous Symbol]                       0x08002984   Section        0  hardware.o(.text.digitalWrite)
    __arm_cp.3_0                             0x080029bc   Number         4  hardware.o(.text.digitalWrite)
    __arm_cp.3_1                             0x080029c0   Number         4  hardware.o(.text.digitalWrite)
    __arm_cp.3_2                             0x080029c4   Number         4  hardware.o(.text.digitalWrite)
    __arm_cp.3_3                             0x080029c8   Number         4  hardware.o(.text.digitalWrite)
    [Anonymous Symbol]                       0x080029cc   Section        0  bldc.o(.text.hallpos)
    [Anonymous Symbol]                       0x08002a00   Section        0  initialize.o(.text.io_init)
    __arm_cp.0_0                             0x08002a7c   Number         4  initialize.o(.text.io_init)
    [Anonymous Symbol]                       0x08002a80   Section        0  main.o(.text.main)
    __arm_cp.0_0                             0x08002d20   Number         4  main.o(.text.main)
    __arm_cp.0_1                             0x08002d24   Number         4  main.o(.text.main)
    __arm_cp.0_2                             0x08002d28   Number         4  main.o(.text.main)
    __arm_cp.0_3                             0x08002d2c   Number         4  main.o(.text.main)
    __arm_cp.0_4                             0x08002d30   Number         4  main.o(.text.main)
    __arm_cp.0_5                             0x08002d34   Number         4  main.o(.text.main)
    __arm_cp.0_6                             0x08002d38   Number         4  main.o(.text.main)
    __arm_cp.0_7                             0x08002d3c   Number         4  main.o(.text.main)
    __arm_cp.0_8                             0x08002d40   Number         4  main.o(.text.main)
    __arm_cp.0_9                             0x08002d44   Number         4  main.o(.text.main)
    __arm_cp.0_11                            0x08002d58   Number         4  main.o(.text.main)
    __arm_cp.0_12                            0x08002d5c   Number         4  main.o(.text.main)
    __arm_cp.0_13                            0x08002d60   Number         4  main.o(.text.main)
    __arm_cp.0_14                            0x08002d64   Number         4  main.o(.text.main)
    __arm_cp.0_15                            0x08002d68   Number         4  main.o(.text.main)
    __arm_cp.0_16                            0x08002d6c   Number         4  main.o(.text.main)
    __arm_cp.0_17                            0x08002d70   Number         4  main.o(.text.main)
    __arm_cp.0_19                            0x08002d74   Number         4  main.o(.text.main)
    __arm_cp.0_20                            0x08002d78   Number         4  main.o(.text.main)
    __arm_cp.0_21                            0x08002d7c   Number         4  main.o(.text.main)
    __arm_cp.0_22                            0x08002d80   Number         4  main.o(.text.main)
    [Anonymous Symbol]                       0x08002d84   Section        0  hardware.o(.text.pinMode)
    __arm_cp.0_4                             0x08002dc4   Number         4  hardware.o(.text.pinMode)
    [Anonymous Symbol]                       0x08002dc8   Section        0  hardware.o(.text.pinModeAF)
    __arm_cp.1_0                             0x08002e00   Number         4  hardware.o(.text.pinModeAF)
    __arm_cp.1_1                             0x08002e04   Number         4  hardware.o(.text.pinModeAF)
    __arm_cp.1_2                             0x08002e08   Number         4  hardware.o(.text.pinModeAF)
    __arm_cp.1_3                             0x08002e0c   Number         4  hardware.o(.text.pinModeAF)
    [Anonymous Symbol]                       0x08002e10   Section        0  sim_eeprom.o(.text.restorecfg)
    __arm_cp.5_0                             0x08002eec   Number         4  sim_eeprom.o(.text.restorecfg)
    __arm_cp.5_1                             0x08002ef0   Number         4  sim_eeprom.o(.text.restorecfg)
    __arm_cp.5_3                             0x08002ef4   Number         4  sim_eeprom.o(.text.restorecfg)
    [Anonymous Symbol]                       0x08002ef8   Section        0  remoteuartbus.o(.text.serialit)
    __arm_cp.3_0                             0x08002ff0   Number         4  remoteuartbus.o(.text.serialit)
    __arm_cp.3_1                             0x08002ff4   Number         4  remoteuartbus.o(.text.serialit)
    __arm_cp.3_2                             0x08002ff8   Number         4  remoteuartbus.o(.text.serialit)
    __arm_cp.3_3                             0x08002ffc   Number         4  remoteuartbus.o(.text.serialit)
    __arm_cp.3_4                             0x08003000   Number         4  remoteuartbus.o(.text.serialit)
    __arm_cp.3_5                             0x08003004   Number         4  remoteuartbus.o(.text.serialit)
    __arm_cp.3_7                             0x08003008   Number         4  remoteuartbus.o(.text.serialit)
    __arm_cp.3_8                             0x0800300c   Number         4  remoteuartbus.o(.text.serialit)
    __arm_cp.3_9                             0x08003010   Number         4  remoteuartbus.o(.text.serialit)
    __arm_cp.3_10                            0x08003014   Number         4  remoteuartbus.o(.text.serialit)
    __arm_cp.3_12                            0x08003018   Number         4  remoteuartbus.o(.text.serialit)
    [Anonymous Symbol]                       0x0800301c   Section        0  bldc.o(.text.speedupdate)
    __arm_cp.2_0                             0x08003078   Number         4  bldc.o(.text.speedupdate)
    __arm_cp.2_1                             0x0800307c   Number         4  bldc.o(.text.speedupdate)
    __arm_cp.2_2                             0x08003080   Number         4  bldc.o(.text.speedupdate)
    __arm_cp.2_3                             0x08003084   Number         4  bldc.o(.text.speedupdate)
    __arm_cp.2_4                             0x08003088   Number         4  bldc.o(.text.speedupdate)
    __arm_cp.2_5                             0x0800308c   Number         4  bldc.o(.text.speedupdate)
    __arm_cp.2_6                             0x08003090   Number         4  bldc.o(.text.speedupdate)
    __arm_cp.2_7                             0x08003094   Number         4  bldc.o(.text.speedupdate)
    __arm_cp.2_8                             0x08003098   Number         4  bldc.o(.text.speedupdate)
    [Anonymous Symbol]                       0x0800309c   Section        0  calculation.o(.text.updateMotorRPM)
    __arm_cp.6_0                             0x080030b4   Number         4  calculation.o(.text.updateMotorRPM)
    __arm_cp.6_1                             0x080030b8   Number         4  calculation.o(.text.updateMotorRPM)
    .text_divfast                            0x080030bc   Section      502  aeabi_sdivfast.o(.text_divfast)
    ddiv_reciptbl                            0x080032b2   Data         128  ddiv.o(.constdata)
    .constdata                               0x080032b2   Section      128  ddiv.o(.constdata)
    x$fpl$usenofp                            0x080032b2   Section        0  usenofp.o(x$fpl$usenofp)
    fdiv_tab                                 0x08003332   Data          64  fdiv.o(.constdata)
    .constdata                               0x08003332   Section       64  fdiv.o(.constdata)
    .bss                                     0x20000098   Section       96  libspace.o(.bss)
    HALLModuleCalc.i                         0x20000188   Data           1  hallhandle.o(.bss.HALLModuleCalc.i)
    [Anonymous Symbol]                       0x20000188   Section        0  hallhandle.o(.bss.HALLModuleCalc.i)
    aReceiveBuffer                           0x200002a2   Data         255  remoteuartbus.o(.bss.aReceiveBuffer)
    [Anonymous Symbol]                       0x200002a2   Section        0  remoteuartbus.o(.bss.aReceiveBuffer)
    iReceivePos                              0x20000554   Data           2  remoteuartbus.o(.bss.iReceivePos)
    [Anonymous Symbol]                       0x20000554   Section        0  remoteuartbus.o(.bss.iReceivePos)
    sTimingDelay                             0x200005ec   Data           4  delay.o(.bss.sTimingDelay)
    [Anonymous Symbol]                       0x200005ec   Section        0  delay.o(.bss.sTimingDelay)
    Heap_Mem                                 0x20000688   Data         512  startup_mm32spin06xx_s_keil.o(HEAP)
    HEAP                                     0x20000688   Section      512  startup_mm32spin06xx_s_keil.o(HEAP)
    Stack_Mem                                0x20000888   Data        1024  startup_mm32spin06xx_s_keil.o(STACK)
    STACK                                    0x20000888   Section     1024  startup_mm32spin06xx_s_keil.o(STACK)
    __initial_sp                             0x20000c88   Data           0  startup_mm32spin06xx_s_keil.o(STACK)

    Global Symbols

    Symbol Name                              Value     Ov Type        Size  Object(Section)

    BuildAttributes$$THM_ISAv3M$S$PE$A:L22$X:L11$S22$IEEE1$IW$~IW$USESV6$~STKCKD$USESV7$~SHL$OTIME$ROPI$EBA8$UX$STANDARDLIB$REQ8$PRES8$EABIv2 0x00000000   Number         0  anon$$obj.o ABSOLUTE
    __ARM_exceptions_init                     - Undefined Weak Reference
    __alloca_initialize                       - Undefined Weak Reference
    __arm_preinit_                            - Undefined Weak Reference
    __arm_relocate_pie_                       - Undefined Weak Reference
    __cpp_initialize__aeabi_                  - Undefined Weak Reference
    __cxa_finalize                            - Undefined Weak Reference
    __rt_locale                               - Undefined Weak Reference
    __sigvec_lookup                           - Undefined Weak Reference
    _atexit_init                              - Undefined Weak Reference
    _call_atexit_fns                          - Undefined Weak Reference
    _clock_init                               - Undefined Weak Reference
    _fp_trap_init                             - Undefined Weak Reference
    _fp_trap_shutdown                         - Undefined Weak Reference
    _get_lc_collate                           - Undefined Weak Reference
    _get_lc_ctype                             - Undefined Weak Reference
    _get_lc_monetary                          - Undefined Weak Reference
    _get_lc_numeric                           - Undefined Weak Reference
    _get_lc_time                              - Undefined Weak Reference
    _getenv_init                              - Undefined Weak Reference
    _handle_redirection                       - Undefined Weak Reference
    _init_alloc                               - Undefined Weak Reference
    _init_user_alloc                          - Undefined Weak Reference
    _initio                                   - Undefined Weak Reference
    _rand_init                                - Undefined Weak Reference
    _signal_finish                            - Undefined Weak Reference
    _signal_init                              - Undefined Weak Reference
    _terminate_alloc                          - Undefined Weak Reference
    _terminate_user_alloc                     - Undefined Weak Reference
    _terminateio                              - Undefined Weak Reference
    __Vectors_Size                           0x000000c0   Number         0  startup_mm32spin06xx_s_keil.o ABSOLUTE
    __Vectors                                0x08000000   Data           4  startup_mm32spin06xx_s_keil.o(RESET)
    __Vectors_End                            0x080000c0   Data           0  startup_mm32spin06xx_s_keil.o(RESET)
    __main                                   0x080000c1   Thumb Code     8  __main.o(!!!main)
    __scatterload                            0x080000c9   Thumb Code     0  __scatter.o(!!!scatter)
    __scatterload_rt2                        0x080000c9   Thumb Code    52  __scatter.o(!!!scatter)
    __scatterload_rt2_thumb_only             0x080000c9   Thumb Code     0  __scatter.o(!!!scatter)
    __scatterload_null                       0x080000d9   Thumb Code     0  __scatter.o(!!!scatter)
    __scatterload_copy                       0x08000105   Thumb Code    26  __scatter_copy.o(!!handler_copy)
    __scatterload_zeroinit                   0x08000121   Thumb Code    28  __scatter_zi.o(!!handler_zi)
    __rt_lib_init                            0x0800013d   Thumb Code     0  libinit.o(.ARM.Collect$$libinit$$00000000)
    __rt_lib_init_alloca_1                   0x0800013f   Thumb Code     0  libinit2.o(.ARM.Collect$$libinit$$00000030)
    __rt_lib_init_argv_1                     0x0800013f   Thumb Code     0  libinit2.o(.ARM.Collect$$libinit$$0000002E)
    __rt_lib_init_atexit_1                   0x0800013f   Thumb Code     0  libinit2.o(.ARM.Collect$$libinit$$0000001D)
    __rt_lib_init_clock_1                    0x0800013f   Thumb Code     0  libinit2.o(.ARM.Collect$$libinit$$00000023)
    __rt_lib_init_cpp_1                      0x0800013f   Thumb Code     0  libinit2.o(.ARM.Collect$$libinit$$00000034)
    __rt_lib_init_exceptions_1               0x0800013f   Thumb Code     0  libinit2.o(.ARM.Collect$$libinit$$00000032)
    __rt_lib_init_fp_1                       0x0800013f   Thumb Code     0  libinit2.o(.ARM.Collect$$libinit$$00000002)
    __rt_lib_init_fp_trap_1                  0x0800013f   Thumb Code     0  libinit2.o(.ARM.Collect$$libinit$$00000021)
    __rt_lib_init_getenv_1                   0x0800013f   Thumb Code     0  libinit2.o(.ARM.Collect$$libinit$$00000025)
    __rt_lib_init_heap_1                     0x0800013f   Thumb Code     0  libinit2.o(.ARM.Collect$$libinit$$0000000C)
    __rt_lib_init_lc_collate_1               0x0800013f   Thumb Code     0  libinit2.o(.ARM.Collect$$libinit$$00000013)
    __rt_lib_init_lc_ctype_1                 0x0800013f   Thumb Code     0  libinit2.o(.ARM.Collect$$libinit$$00000015)
    __rt_lib_init_lc_monetary_1              0x0800013f   Thumb Code     0  libinit2.o(.ARM.Collect$$libinit$$00000017)
    __rt_lib_init_lc_numeric_1               0x0800013f   Thumb Code     0  libinit2.o(.ARM.Collect$$libinit$$00000019)
    __rt_lib_init_lc_time_1                  0x0800013f   Thumb Code     0  libinit2.o(.ARM.Collect$$libinit$$0000001B)
    __rt_lib_init_preinit_1                  0x0800013f   Thumb Code     0  libinit2.o(.ARM.Collect$$libinit$$00000006)
    __rt_lib_init_rand_1                     0x0800013f   Thumb Code     0  libinit2.o(.ARM.Collect$$libinit$$00000010)
    __rt_lib_init_relocate_pie_1             0x0800013f   Thumb Code     0  libinit2.o(.ARM.Collect$$libinit$$00000004)
    __rt_lib_init_return                     0x0800013f   Thumb Code     0  libinit2.o(.ARM.Collect$$libinit$$00000035)
    __rt_lib_init_signal_1                   0x0800013f   Thumb Code     0  libinit2.o(.ARM.Collect$$libinit$$0000001F)
    __rt_lib_init_stdio_1                    0x0800013f   Thumb Code     0  libinit2.o(.ARM.Collect$$libinit$$00000027)
    __rt_lib_init_user_alloc_1               0x0800013f   Thumb Code     0  libinit2.o(.ARM.Collect$$libinit$$0000000E)
    __rt_lib_shutdown                        0x08000141   Thumb Code     0  libshutdown.o(.ARM.Collect$$libshutdown$$00000000)
    __rt_lib_shutdown_cpp_1                  0x08000143   Thumb Code     0  libshutdown2.o(.ARM.Collect$$libshutdown$$00000002)
    __rt_lib_shutdown_fp_trap_1              0x08000143   Thumb Code     0  libshutdown2.o(.ARM.Collect$$libshutdown$$00000007)
    __rt_lib_shutdown_heap_1                 0x08000143   Thumb Code     0  libshutdown2.o(.ARM.Collect$$libshutdown$$0000000F)
    __rt_lib_shutdown_return                 0x08000143   Thumb Code     0  libshutdown2.o(.ARM.Collect$$libshutdown$$00000010)
    __rt_lib_shutdown_signal_1               0x08000143   Thumb Code     0  libshutdown2.o(.ARM.Collect$$libshutdown$$0000000A)
    __rt_lib_shutdown_stdio_1                0x08000143   Thumb Code     0  libshutdown2.o(.ARM.Collect$$libshutdown$$00000004)
    __rt_lib_shutdown_user_alloc_1           0x08000143   Thumb Code     0  libshutdown2.o(.ARM.Collect$$libshutdown$$0000000C)
    __rt_entry                               0x08000145   Thumb Code     0  __rtentry.o(.ARM.Collect$$rtentry$$00000000)
    __rt_entry_presh_1                       0x08000145   Thumb Code     0  __rtentry2.o(.ARM.Collect$$rtentry$$00000002)
    __rt_entry_sh                            0x08000145   Thumb Code     0  __rtentry4.o(.ARM.Collect$$rtentry$$00000004)
    __rt_entry_li                            0x0800014b   Thumb Code     0  __rtentry2.o(.ARM.Collect$$rtentry$$0000000A)
    __rt_entry_postsh_1                      0x0800014b   Thumb Code     0  __rtentry2.o(.ARM.Collect$$rtentry$$00000009)
    __rt_entry_main                          0x0800014f   Thumb Code     0  __rtentry2.o(.ARM.Collect$$rtentry$$0000000D)
    __rt_entry_postli_1                      0x0800014f   Thumb Code     0  __rtentry2.o(.ARM.Collect$$rtentry$$0000000C)
    __rt_exit                                0x08000157   Thumb Code     0  rtexit.o(.ARM.Collect$$rtexit$$00000000)
    __rt_exit_ls                             0x08000159   Thumb Code     0  rtexit2.o(.ARM.Collect$$rtexit$$00000003)
    __rt_exit_prels_1                        0x08000159   Thumb Code     0  rtexit2.o(.ARM.Collect$$rtexit$$00000002)
    __rt_exit_exit                           0x0800015d   Thumb Code     0  rtexit2.o(.ARM.Collect$$rtexit$$00000004)
    __aeabi_memcpy4                          0x08000165   Thumb Code    56  rt_memcpy.o(.emb_text)
    __aeabi_memcpy8                          0x08000165   Thumb Code     0  rt_memcpy.o(.emb_text)
    Reset_Handler                            0x0800019d   Thumb Code    44  startup_mm32spin06xx_s_keil.o(.text)
    NMI_Handler                              0x080001c9   Thumb Code     2  startup_mm32spin06xx_s_keil.o(.text)
    HardFault_Handler                        0x080001cb   Thumb Code     2  startup_mm32spin06xx_s_keil.o(.text)
    SVC_Handler                              0x080001cd   Thumb Code     2  startup_mm32spin06xx_s_keil.o(.text)
    PendSV_Handler                           0x080001cf   Thumb Code     2  startup_mm32spin06xx_s_keil.o(.text)
    CAN_IRQHandler                           0x080001d3   Thumb Code     0  startup_mm32spin06xx_s_keil.o(.text)
    DMA1_Channel1_IRQHandler                 0x080001d3   Thumb Code     0  startup_mm32spin06xx_s_keil.o(.text)
    EXTI0_1_IRQHandler                       0x080001d3   Thumb Code     0  startup_mm32spin06xx_s_keil.o(.text)
    EXTI2_3_IRQHandler                       0x080001d3   Thumb Code     0  startup_mm32spin06xx_s_keil.o(.text)
    EXTI4_15_IRQHandler                      0x080001d3   Thumb Code     0  startup_mm32spin06xx_s_keil.o(.text)
    FLASH_IRQHandler                         0x080001d3   Thumb Code     0  startup_mm32spin06xx_s_keil.o(.text)
    HWDIV_IRQHandler                         0x080001d3   Thumb Code     0  startup_mm32spin06xx_s_keil.o(.text)
    I2C1_IRQHandler                          0x080001d3   Thumb Code     0  startup_mm32spin06xx_s_keil.o(.text)
    PVD_IRQHandler                           0x080001d3   Thumb Code     0  startup_mm32spin06xx_s_keil.o(.text)
    RCC_CRS_IRQHandler                       0x080001d3   Thumb Code     0  startup_mm32spin06xx_s_keil.o(.text)
    RTC_BKP_IRQHandler                       0x080001d3   Thumb Code     0  startup_mm32spin06xx_s_keil.o(.text)
    SPI1_IRQHandler                          0x080001d3   Thumb Code     0  startup_mm32spin06xx_s_keil.o(.text)
    SPI2_IRQHandler                          0x080001d3   Thumb Code     0  startup_mm32spin06xx_s_keil.o(.text)
    TIM14_IRQHandler                         0x080001d3   Thumb Code     0  startup_mm32spin06xx_s_keil.o(.text)
    TIM16_IRQHandler                         0x080001d3   Thumb Code     0  startup_mm32spin06xx_s_keil.o(.text)
    TIM17_IRQHandler                         0x080001d3   Thumb Code     0  startup_mm32spin06xx_s_keil.o(.text)
    TIM1_CC_IRQHandler                       0x080001d3   Thumb Code     0  startup_mm32spin06xx_s_keil.o(.text)
    UART1_IRQHandler                         0x080001d3   Thumb Code     0  startup_mm32spin06xx_s_keil.o(.text)
    UART2_IRQHandler                         0x080001d3   Thumb Code     0  startup_mm32spin06xx_s_keil.o(.text)
    WWDG_IRQHandler                          0x080001d3   Thumb Code     0  startup_mm32spin06xx_s_keil.o(.text)
    __user_initial_stackheap                 0x080001d5   Thumb Code     0  startup_mm32spin06xx_s_keil.o(.text)
    __aeabi_memcpy                           0x08000219   Thumb Code   130  rt_memcpy.o(.text)
    __rt_memcpy                              0x08000219   Thumb Code     0  rt_memcpy.o(.text)
    _memset_w                                0x0800029b   Thumb Code    26  rt_memclr.o(.text)
    _memset                                  0x080002b5   Thumb Code    30  rt_memclr.o(.text)
    __aeabi_memclr                           0x080002d3   Thumb Code     4  rt_memclr.o(.text)
    __rt_memclr                              0x080002d3   Thumb Code     0  rt_memclr.o(.text)
    __aeabi_memclr4                          0x080002d7   Thumb Code     0  rt_memclr.o(.text)
    __aeabi_memclr8                          0x080002d7   Thumb Code     0  rt_memclr.o(.text)
    __rt_memclr_w                            0x080002d7   Thumb Code     4  rt_memclr.o(.text)
    __use_two_region_memory                  0x080002db   Thumb Code     2  heapauxi.o(.text)
    __rt_heap_escrow$2region                 0x080002dd   Thumb Code     2  heapauxi.o(.text)
    __rt_heap_expand$2region                 0x080002df   Thumb Code     2  heapauxi.o(.text)
    __aeabi_d2f                              0x080002e1   Thumb Code     0  d2f.o(.text)
    _d2f                                     0x080002e1   Thumb Code   120  d2f.o(.text)
    __aeabi_ddiv                             0x0800035d   Thumb Code     0  ddiv.o(.text)
    _ddiv                                    0x0800035d   Thumb Code  1072  ddiv.o(.text)
    _drdiv                                   0x0800078d   Thumb Code    20  ddiv.o(.text)
    __aeabi_d2iz                             0x080007a5   Thumb Code     0  dfixi.o(.text)
    _dfix                                    0x080007a5   Thumb Code    98  dfixi.o(.text)
    __aeabi_i2d_normalise                    0x08000811   Thumb Code    66  dflti.o(.text)
    __aeabi_i2d                              0x08000853   Thumb Code    16  dflti.o(.text)
    _dflt                                    0x08000853   Thumb Code     0  dflti.o(.text)
    __aeabi_ui2d                             0x08000863   Thumb Code     6  dflti.o(.text)
    _dfltu                                   0x08000863   Thumb Code     0  dflti.o(.text)
    __aeabi_dmul                             0x08000869   Thumb Code     0  dmul.o(.text)
    _dmul                                    0x08000869   Thumb Code   558  dmul.o(.text)
    __aeabi_f2d                              0x08000ab1   Thumb Code     0  f2d.o(.text)
    _f2d                                     0x08000ab1   Thumb Code    80  f2d.o(.text)
    __aeabi_fdiv                             0x08000b05   Thumb Code     0  fdiv.o(.text)
    _fdiv                                    0x08000b05   Thumb Code   334  fdiv.o(.text)
    _frdiv                                   0x08000c53   Thumb Code     8  fdiv.o(.text)
    __aeabi_i2f_normalise                    0x08000c65   Thumb Code    72  fflti.o(.text)
    __aeabi_i2f                              0x08000cad   Thumb Code    16  fflti.o(.text)
    _fflt                                    0x08000cad   Thumb Code     0  fflti.o(.text)
    __aeabi_ui2f                             0x08000cbd   Thumb Code     6  fflti.o(.text)
    _ffltu                                   0x08000cbd   Thumb Code     0  fflti.o(.text)
    __user_setup_stackheap                   0x08000cc3   Thumb Code    62  sys_stackheap_outer.o(.text)
    exit                                     0x08000d01   Thumb Code    16  exit.o(.text)
    __user_libspace                          0x08000d11   Thumb Code     8  libspace.o(.text)
    __user_perproc_libspace                  0x08000d11   Thumb Code     0  libspace.o(.text)
    __user_perthread_libspace                0x08000d11   Thumb Code     0  libspace.o(.text)
    _sys_exit                                0x08000d19   Thumb Code     8  sys_exit.o(.text)
    __I$use$semihosting                      0x08000d25   Thumb Code     0  use_no_semi.o(.text)
    __use_no_semihosting_swi                 0x08000d25   Thumb Code     2  use_no_semi.o(.text)
    __semihosting_library_function           0x08000d27   Thumb Code     0  indicate_semi.o(.text)
    ADC1_COMP_IRQHandler                     0x08000d29   Thumb Code   712  interrupt.o(.text.ADC1_COMP_IRQHandler)
    ADC_AnalogWatchdogCmd                    0x08001075   Thumb Code    18  hal_adc.o(.text.ADC_AnalogWatchdogCmd)
    ADC_AnalogWatchdogSingleChannelConfig    0x08001087   Thumb Code    20  hal_adc.o(.text.ADC_AnalogWatchdogSingleChannelConfig)
    ADC_AnalogWatchdogThresholdsConfig       0x0800109b   Thumb Code     8  hal_adc.o(.text.ADC_AnalogWatchdogThresholdsConfig)
    ADC_ClearFlag                            0x080010a3   Thumb Code    14  hal_adc.o(.text.ADC_ClearFlag)
    ADC_ClearITPendingBit                    0x080010b1   Thumb Code    14  hal_adc.o(.text.ADC_ClearITPendingBit)
    ADC_Cmd                                  0x080010bf   Thumb Code    16  hal_adc.o(.text.ADC_Cmd)
    ADC_ExternalTrigConvCmd                  0x080010cf   Thumb Code    18  hal_adc.o(.text.ADC_ExternalTrigConvCmd)
    ADC_GetFlagStatus                        0x080010e1   Thumb Code    16  hal_adc.o(.text.ADC_GetFlagStatus)
    ADC_GetITStatus                          0x080010f1   Thumb Code    16  hal_adc.o(.text.ADC_GetITStatus)
    ADC_ITConfig                             0x08001101   Thumb Code    30  hal_adc.o(.text.ADC_ITConfig)
    ADC_Init                                 0x08001121   Thumb Code    48  hal_adc.o(.text.ADC_Init)
    ADC_RegularChannelConfig                 0x08001159   Thumb Code    60  hal_adc.o(.text.ADC_RegularChannelConfig)
    ADC_SoftwareStartConvCmd                 0x08001195   Thumb Code    20  hal_adc.o(.text.ADC_SoftwareStartConvCmd)
    ADC_VrefintCmd                           0x080011a9   Thumb Code    24  hal_adc.o(.text.ADC_VrefintCmd)
    BLDC_init                                0x080011c5   Thumb Code   160  initialize.o(.text.BLDC_init)
    CLARKE_MACRO1                            0x0800126d   Thumb Code    48  clarke.o(.text.CLARKE_MACRO1)
    CalcPI                                   0x080012ad   Thumb Code    64  pid.o(.text.CalcPI)
    DELAY_Init                               0x080012ed   Thumb Code    60  delay.o(.text.DELAY_Init)
    DELAY_Ms                                 0x08001339   Thumb Code    20  delay.o(.text.DELAY_Ms)
    DMA1_Channel2_3_IRQHandler               0x08001351   Thumb Code    26  interrupt.o(.text.DMA1_Channel2_3_IRQHandler)
    DMA1_Channel4_5_IRQHandler               0x0800136b   Thumb Code    26  interrupt.o(.text.DMA1_Channel4_5_IRQHandler)
    DMA_ClearITPendingBit                    0x08001385   Thumb Code     8  hal_dma.o(.text.DMA_ClearITPendingBit)
    DMA_Cmd                                  0x0800138d   Thumb Code    12  hal_dma.o(.text.DMA_Cmd)
    DMA_DeInit                               0x08001399   Thumb Code    44  hal_dma.o(.text.DMA_DeInit)
    DMA_GetITStatus                          0x080013c9   Thumb Code    12  hal_dma.o(.text.DMA_GetITStatus)
    DMA_ITConfig                             0x080013d9   Thumb Code    20  hal_dma.o(.text.DMA_ITConfig)
    DMA_Init                                 0x080013ed   Thumb Code    72  hal_dma.o(.text.DMA_Init)
    DMA_NVIC_Config                          0x08001439   Thumb Code    92  initialize.o(.text.DMA_NVIC_Config)
    DMA_StructInit                           0x08001495   Thumb Code    22  hal_dma.o(.text.DMA_StructInit)
    GPIO_Init                                0x080014ab   Thumb Code   144  hal_gpio.o(.text.GPIO_Init)
    GPIO_PinAFConfig                         0x0800153b   Thumb Code    32  hal_gpio.o(.text.GPIO_PinAFConfig)
    GPIO_ReadInputDataBit                    0x0800155b   Thumb Code    10  hal_gpio.o(.text.GPIO_ReadInputDataBit)
    GPIO_StructInit                          0x08001565   Thumb Code    12  hal_gpio.o(.text.GPIO_StructInit)
    GPIO_WriteBit                            0x08001579   Thumb Code    16  hal_gpio.o(.text.GPIO_WriteBit)
    HALLModuleCalc                           0x08001589   Thumb Code   152  hallhandle.o(.text.HALLModuleCalc)
    HALLModuleInit                           0x08001631   Thumb Code    84  hallhandle.o(.text.HALLModuleInit)
    HALLTIM_Init                             0x080016a9   Thumb Code   256  initialize.o(.text.HALLTIM_Init)
    HALL_Init                                0x080017b1   Thumb Code    32  initialize.o(.text.HALL_Init)
    IPARK_MACRO1                             0x080017d5   Thumb Code    60  ipark.o(.text.IPARK_MACRO1)
    IWDG_ReloadCounter                       0x08001811   Thumb Code     8  hal_iwdg.o(.text.IWDG_ReloadCounter)
    InitNormalization                        0x08001821   Thumb Code    48  foc_math.o(.text.InitNormalization)
    InitPI                                   0x08001851   Thumb Code    64  pid.o(.text.InitPI)
    MCM_Trig_Functions                       0x080018a5   Thumb Code   112  foc_math.o(.text.MCM_Trig_Functions)
    MovingAvgCal                             0x08001919   Thumb Code    48  foc_math.o(.text.MovingAvgCal)
    MovingAvgInit                            0x08001949   Thumb Code    26  foc_math.o(.text.MovingAvgInit)
    NVIC_Configure                           0x08001963   Thumb Code    24  initialize.o(.text.NVIC_Configure)
    NVIC_Init                                0x0800197d   Thumb Code    68  hal_misc.o(.text.NVIC_Init)
    PARK_MACRO1                              0x080019cd   Thumb Code    48  park.o(.text.PARK_MACRO1)
    PWM_GEN_calc                             0x080019fd   Thumb Code   452  pwm_gen.o(.text.PWM_GEN_calc)
    PWM_GEN_init                             0x08001bc5   Thumb Code    24  pwm_gen.o(.text.PWM_GEN_init)
    RCC_AHBPeriphClockCmd                    0x08001bdd   Thumb Code    24  hal_rcc.o(.text.RCC_AHBPeriphClockCmd)
    RCC_APB1PeriphClockCmd                   0x08001bf9   Thumb Code    24  hal_rcc.o(.text.RCC_APB1PeriphClockCmd)
    RCC_APB2PeriphClockCmd                   0x08001c15   Thumb Code    24  hal_rcc.o(.text.RCC_APB2PeriphClockCmd)
    RCC_GetPCLK1Freq                         0x08001c31   Thumb Code    44  hal_rcc.o(.text.RCC_GetPCLK1Freq)
    RCC_GetPCLK2Freq                         0x08001c5d   Thumb Code    44  hal_rcc.o(.text.RCC_GetPCLK2Freq)
    RemoteUpdate                             0x08001c99   Thumb Code   180  remoteuartbus.o(.text.RemoteUpdate)
    SysTick_Handler                          0x08001d71   Thumb Code    24  delay.o(.text.SysTick_Handler)
    SystemInit                               0x08001d8d   Thumb Code   332  system_mm32spin06xx_s.o(.text.SystemInit)
    TIM1_BRK_UP_TRG_COM_IRQHandler           0x08001f01   Thumb Code    12  interrupt.o(.text.TIM1_BRK_UP_TRG_COM_IRQHandler)
    TIM1_init                                0x08001f0d   Thumb Code   268  initialize.o(.text.TIM1_init)
    TIM2_IRQHandler                          0x08002025   Thumb Code    80  interrupt.o(.text.TIM2_IRQHandler)
    TIM3_IRQHandler                          0x0800207d   Thumb Code    76  interrupt.o(.text.TIM3_IRQHandler)
    TIM_BDTRConfig                           0x080020e1   Thumb Code    30  hal_tim.o(.text.TIM_BDTRConfig)
    TIM_BDTRStructInit                       0x080020ff   Thumb Code    18  hal_tim.o(.text.TIM_BDTRStructInit)
    TIM_CCPreloadControl                     0x08002111   Thumb Code    16  hal_tim.o(.text.TIM_CCPreloadControl)
    TIM_ClearITPendingBit                    0x08002121   Thumb Code     8  hal_tim.o(.text.TIM_ClearITPendingBit)
    TIM_Cmd                                  0x08002129   Thumb Code    16  hal_tim.o(.text.TIM_Cmd)
    TIM_CtrlPWMOutputs                       0x08002139   Thumb Code    20  hal_tim.o(.text.TIM_CtrlPWMOutputs)
    TIM_GenerateEvent                        0x0800214d   Thumb Code     4  hal_tim.o(.text.TIM_GenerateEvent)
    TIM_GetITStatus                          0x08002151   Thumb Code    20  hal_tim.o(.text.TIM_GetITStatus)
    TIM_ICInit                               0x08002165   Thumb Code   242  hal_tim.o(.text.TIM_ICInit)
    TIM_ICStructInit                         0x08002257   Thumb Code    12  hal_tim.o(.text.TIM_ICStructInit)
    TIM_ITConfig                             0x08002263   Thumb Code    20  hal_tim.o(.text.TIM_ITConfig)
    TIM_OC1Init                              0x08002279   Thumb Code    88  hal_tim.o(.text.TIM_OC1Init)
    TIM_OC2Init                              0x080022d5   Thumb Code    92  hal_tim.o(.text.TIM_OC2Init)
    TIM_OC3Init                              0x08002331   Thumb Code    88  hal_tim.o(.text.TIM_OC3Init)
    TIM_OC4Init                              0x08002389   Thumb Code    72  hal_tim.o(.text.TIM_OC4Init)
    TIM_OCStructInit                         0x080023d5   Thumb Code    14  hal_tim.o(.text.TIM_OCStructInit)
    TIM_SelectHallSensor                     0x080023e3   Thumb Code    18  hal_tim.o(.text.TIM_SelectHallSensor)
    TIM_SelectInputTrigger                   0x080023f5   Thumb Code    12  hal_tim.o(.text.TIM_SelectInputTrigger)
    TIM_SelectMasterSlaveMode                0x08002401   Thumb Code    12  hal_tim.o(.text.TIM_SelectMasterSlaveMode)
    TIM_SelectSlaveMode                      0x0800240d   Thumb Code    12  hal_tim.o(.text.TIM_SelectSlaveMode)
    TIM_TimeBaseInit                         0x08002419   Thumb Code   112  hal_tim.o(.text.TIM_TimeBaseInit)
    TIM_TimeBaseStructInit                   0x0800249d   Thumb Code    16  hal_tim.o(.text.TIM_TimeBaseStructInit)
    TIM_UpdateRequestConfig                  0x080024ad   Thumb Code    12  hal_tim.o(.text.TIM_UpdateRequestConfig)
    UARTX_Init                               0x080024b9   Thumb Code    92  initialize.o(.text.UARTX_Init)
    UART_Cmd                                 0x08002515   Thumb Code    12  hal_uart.o(.text.UART_Cmd)
    UART_DMACmd                              0x08002521   Thumb Code    14  hal_uart.o(.text.UART_DMACmd)
    UART_GPIO_Init                           0x08002531   Thumb Code    68  initialize.o(.text.UART_GPIO_Init)
    UART_GetFlagStatus                       0x08002579   Thumb Code    10  hal_uart.o(.text.UART_GetFlagStatus)
    UART_Init                                0x08002585   Thumb Code   112  hal_uart.o(.text.UART_Init)
    UART_SendData                            0x080025f9   Thumb Code     6  hal_uart.o(.text.UART_SendData)
    UART_SendString                          0x08002601   Thumb Code    72  uart.o(.text.UART_SendString)
    UART_Send_Group                          0x08002649   Thumb Code    80  uart.o(.text.UART_Send_Group)
    UART_StructInit                          0x080026a5   Thumb Code    24  hal_uart.o(.text.UART_StructInit)
    Update_PWM                               0x080026bd   Thumb Code    24  pwm_gen.o(.text.Update_PWM)
    adc_Init                                 0x080026d9   Thumb Code   260  initialize.o(.text.adc_Init)
    analogRead                               0x080027e5   Thumb Code   136  hardware.o(.text.analogRead)
    avgItotal                                0x08002875   Thumb Code    52  calculation.o(.text.avgItotal)
    avgspeed                                 0x080028bd   Thumb Code    52  calculation.o(.text.avgspeed)
    avgvbat                                  0x08002905   Thumb Code    52  calculation.o(.text.avgvbat)
    digitalRead                              0x0800294d   Thumb Code    56  hardware.o(.text.digitalRead)
    digitalWrite                             0x08002985   Thumb Code    56  hardware.o(.text.digitalWrite)
    hallpos                                  0x080029cd   Thumb Code    52  bldc.o(.text.hallpos)
    io_init                                  0x08002a01   Thumb Code   124  initialize.o(.text.io_init)
    main                                     0x08002a81   Thumb Code   672  main.o(.text.main)
    pinMode                                  0x08002d85   Thumb Code    64  hardware.o(.text.pinMode)
    pinModeAF                                0x08002dc9   Thumb Code    56  hardware.o(.text.pinModeAF)
    restorecfg                               0x08002e11   Thumb Code   220  sim_eeprom.o(.text.restorecfg)
    serialit                                 0x08002ef9   Thumb Code   248  remoteuartbus.o(.text.serialit)
    speedupdate                              0x0800301d   Thumb Code    92  bldc.o(.text.speedupdate)
    updateMotorRPM                           0x0800309d   Thumb Code    24  calculation.o(.text.updateMotorRPM)
    __aeabi_uidiv                            0x080030bd   Thumb Code    68  aeabi_sdivfast.o(.text_divfast)
    __aeabi_idiv                             0x08003101   Thumb Code   434  aeabi_sdivfast.o(.text_divfast)
    __I$use$fp                               0x080032b2   Number         0  usenofp.o(x$fpl$usenofp)
    adcs                                     0x08003372   Data          40  hardware.o(.rodata.adcs)
    hSin_Cos_Table                           0x0800339a   Data         512  foc_math.o(.rodata.hSin_Cos_Table)
    hall_to_pos                              0x0800359a   Data           8  bldc.o(.rodata.hall_to_pos)
    halltims                                 0x080035a2   Data          42  hardware.o(.rodata.halltims)
    ocps                                     0x080035cc   Data          16  hardware.o(.rodata.ocps)
    pins                                     0x080035dc   Data         198  hardware.o(.rodata.pins)
    uarts                                    0x080036a2   Data          40  hardware.o(.rodata.uarts)
    Region$$Table$$Base                      0x080036cc   Number         0  anon$$obj.o(Region$$Table)
    Region$$Table$$Limit                     0x080036ec   Number         0  anon$$obj.o(Region$$Table)
    SystemCoreClock                          0x20000000   Data           4  system_mm32spin06xx_s.o(.data.SystemCoreClock)
    dir                                      0x20000004   Data           1  main.o(.data.dir)
    hallposprev                              0x20000005   Data           1  main.o(.data.hallposprev)
    pinstorage                               0x20000006   Data         128  main.o(.data.pinstorage)
    tbPresc                                  0x20000086   Data          16  hal_rcc.o(.data.tbPresc)
    uarten                                   0x20000096   Data           1  main.o(.data.uarten)
    __libspace_start                         0x20000098   Data          96  libspace.o(.bss)
    CWShift                                  0x200000f8   Data           2  hallhandle.o(.bss.CWShift)
    __temporary_stack_top$libspace           0x200000f8   Data           0  libspace.o(.bss)
    ChangeTime                               0x200000fc   Data           4  hallhandle.o(.bss.ChangeTime)
    CurID                                    0x20000100   Data          32  pid.o(.bss.CurID)
    CurIQ                                    0x20000120   Data          32  pid.o(.bss.CurIQ)
    GPIO_InitStruct                          0x20000140   Data           4  hardware.o(.bss.GPIO_InitStruct)
    HALL1                                    0x20000144   Data          68  hallhandle.o(.bss.HALL1)
    IDData                                   0x2000018c   Data          76  foc_math.o(.bss.IDData)
    IQData                                   0x200001d8   Data          76  foc_math.o(.bss.IQData)
    RP                                       0x20000224   Data          16  foc_math.o(.bss.RP)
    Speed                                    0x20000234   Data          32  pid.o(.bss.Speed)
    SpeedFdk                                 0x20000254   Data          76  foc_math.o(.bss.SpeedFdk)
    TestAngle                                0x200002a0   Data           2  interrupt.o(.bss.TestAngle)
    aavgarr                                  0x200003a4   Data         256  calculation.o(.bss.aavgarr)
    abspwm                                   0x200004a4   Data           2  bldc.o(.bss.abspwm)
    adatasum                                 0x200004a8   Data           4  calculation.o(.bss.adatasum)
    aindex                                   0x200004ac   Data           1  calculation.o(.bss.aindex)
    avgarr                                   0x200004b0   Data         128  calculation.o(.bss.avgarr)
    bAnswerMaster                            0x20000530   Data           1  remoteuartbus.o(.bss.bAnswerMaster)
    clarke1                                  0x20000532   Data          10  clarke.o(.bss.clarke1)
    datasum                                  0x2000053c   Data           4  calculation.o(.bss.datasum)
    fitotal                                  0x20000540   Data           4  main.o(.bss.fitotal)
    flicker                                  0x20000544   Data           1  main.o(.bss.flicker)
    frealspeed                               0x20000548   Data           4  main.o(.bss.frealspeed)
    fvbat                                    0x2000054c   Data           4  main.o(.bss.fvbat)
    iOdom                                    0x20000550   Data           4  main.o(.bss.iOdom)
    iRxDataSize                              0x20000556   Data           1  remoteuartbus.o(.bss.iRxDataSize)
    iRxDataType                              0x20000557   Data           1  remoteuartbus.o(.bss.iRxDataType)
    iTimeLastRx                              0x20000558   Data           4  remoteuartbus.o(.bss.iTimeLastRx)
    index                                    0x2000055c   Data           1  calculation.o(.bss.index)
    ipark1                                   0x20000560   Data          24  ipark.o(.bss.ipark1)
    iphasea                                  0x20000578   Data           4  interrupt.o(.bss.iphasea)
    iphaseaoffset                            0x2000057c   Data           4  interrupt.o(.bss.iphaseaoffset)
    iphaseb                                  0x20000580   Data           4  interrupt.o(.bss.iphaseb)
    iphaseboffset                            0x20000584   Data           4  interrupt.o(.bss.iphaseboffset)
    itotal                                   0x20000588   Data           4  main.o(.bss.itotal)
    itotaloffset                             0x2000058c   Data           4  interrupt.o(.bss.itotaloffset)
    lastcommutate                            0x20000590   Data           4  bldc.o(.bss.lastcommutate)
    lastflicker                              0x20000594   Data           4  main.o(.bss.lastflicker)
    lastupdate                               0x20000598   Data           4  main.o(.bss.lastupdate)
    millis                                   0x2000059c   Data           4  main.o(.bss.millis)
    park1                                    0x200005a0   Data          28  park.o(.bss.park1)
    poweron                                  0x200005bc   Data           1  interrupt.o(.bss.poweron)
    pwm                                      0x200005c0   Data           4  main.o(.bss.pwm)
    pwm_gen                                  0x200005c4   Data          20  pwm_gen.o(.bss.pwm_gen)
    realdir                                  0x200005d8   Data           1  interrupt.o(.bss.realdir)
    realspeed                                0x200005dc   Data           4  main.o(.bss.realspeed)
    sRxBuffer                                0x200005e0   Data          10  main.o(.bss.sRxBuffer)
    speed                                    0x200005f0   Data           4  main.o(.bss.speed)
    vavgarr                                  0x200005f4   Data         128  calculation.o(.bss.vavgarr)
    vbat                                     0x20000674   Data           4  main.o(.bss.vbat)
    vcc                                      0x20000678   Data           4  interrupt.o(.bss.vcc)
    vdatasum                                 0x2000067c   Data           4  calculation.o(.bss.vdatasum)
    vindex                                   0x20000680   Data           1  calculation.o(.bss.vindex)
    wState                                   0x20000681   Data           1  main.o(.bss.wState)



==============================================================================

Memory Map of the image

  Image Entry point : 0x080000c1

  Load Region LR_IROM1 (Base: 0x08000000, Size: 0x00003788, Max: 0x00008000, ABSOLUTE)

    Execution Region ER_IROM1 (Exec base: 0x08000000, Load base: 0x08000000, Size: 0x000036ec, Max: 0x00008000, ABSOLUTE)

    Exec Addr    Load Addr    Size         Type   Attr      Idx    E Section Name        Object

    0x08000000   0x08000000   0x000000c0   Data   RO         1262    RESET               startup_mm32spin06xx_s_keil.o
    0x080000c0   0x080000c0   0x00000008   Code   RO         1301  * !!!main             c_p.l(__main.o)
    0x080000c8   0x080000c8   0x0000003c   Code   RO         1501    !!!scatter          c_p.l(__scatter.o)
    0x08000104   0x08000104   0x0000001a   Code   RO         1503    !!handler_copy      c_p.l(__scatter_copy.o)
    0x0800011e   0x0800011e   0x00000002   PAD
    0x08000120   0x08000120   0x0000001c   Code   RO         1505    !!handler_zi        c_p.l(__scatter_zi.o)
    0x0800013c   0x0800013c   0x00000002   Code   RO         1362    .ARM.Collect$$libinit$$00000000  c_p.l(libinit.o)
    0x0800013e   0x0800013e   0x00000000   Code   RO         1376    .ARM.Collect$$libinit$$00000002  c_p.l(libinit2.o)
    0x0800013e   0x0800013e   0x00000000   Code   RO         1378    .ARM.Collect$$libinit$$00000004  c_p.l(libinit2.o)
    0x0800013e   0x0800013e   0x00000000   Code   RO         1380    .ARM.Collect$$libinit$$00000006  c_p.l(libinit2.o)
    0x0800013e   0x0800013e   0x00000000   Code   RO         1383    .ARM.Collect$$libinit$$0000000C  c_p.l(libinit2.o)
    0x0800013e   0x0800013e   0x00000000   Code   RO         1385    .ARM.Collect$$libinit$$0000000E  c_p.l(libinit2.o)
    0x0800013e   0x0800013e   0x00000000   Code   RO         1387    .ARM.Collect$$libinit$$00000010  c_p.l(libinit2.o)
    0x0800013e   0x0800013e   0x00000000   Code   RO         1390    .ARM.Collect$$libinit$$00000013  c_p.l(libinit2.o)
    0x0800013e   0x0800013e   0x00000000   Code   RO         1392    .ARM.Collect$$libinit$$00000015  c_p.l(libinit2.o)
    0x0800013e   0x0800013e   0x00000000   Code   RO         1394    .ARM.Collect$$libinit$$00000017  c_p.l(libinit2.o)
    0x0800013e   0x0800013e   0x00000000   Code   RO         1396    .ARM.Collect$$libinit$$00000019  c_p.l(libinit2.o)
    0x0800013e   0x0800013e   0x00000000   Code   RO         1398    .ARM.Collect$$libinit$$0000001B  c_p.l(libinit2.o)
    0x0800013e   0x0800013e   0x00000000   Code   RO         1400    .ARM.Collect$$libinit$$0000001D  c_p.l(libinit2.o)
    0x0800013e   0x0800013e   0x00000000   Code   RO         1402    .ARM.Collect$$libinit$$0000001F  c_p.l(libinit2.o)
    0x0800013e   0x0800013e   0x00000000   Code   RO         1404    .ARM.Collect$$libinit$$00000021  c_p.l(libinit2.o)
    0x0800013e   0x0800013e   0x00000000   Code   RO         1406    .ARM.Collect$$libinit$$00000023  c_p.l(libinit2.o)
    0x0800013e   0x0800013e   0x00000000   Code   RO         1408    .ARM.Collect$$libinit$$00000025  c_p.l(libinit2.o)
    0x0800013e   0x0800013e   0x00000000   Code   RO         1410    .ARM.Collect$$libinit$$00000027  c_p.l(libinit2.o)
    0x0800013e   0x0800013e   0x00000000   Code   RO         1414    .ARM.Collect$$libinit$$0000002E  c_p.l(libinit2.o)
    0x0800013e   0x0800013e   0x00000000   Code   RO         1416    .ARM.Collect$$libinit$$00000030  c_p.l(libinit2.o)
    0x0800013e   0x0800013e   0x00000000   Code   RO         1418    .ARM.Collect$$libinit$$00000032  c_p.l(libinit2.o)
    0x0800013e   0x0800013e   0x00000000   Code   RO         1420    .ARM.Collect$$libinit$$00000034  c_p.l(libinit2.o)
    0x0800013e   0x0800013e   0x00000002   Code   RO         1421    .ARM.Collect$$libinit$$00000035  c_p.l(libinit2.o)
    0x08000140   0x08000140   0x00000002   Code   RO         1456    .ARM.Collect$$libshutdown$$00000000  c_p.l(libshutdown.o)
    0x08000142   0x08000142   0x00000000   Code   RO         1484    .ARM.Collect$$libshutdown$$00000002  c_p.l(libshutdown2.o)
    0x08000142   0x08000142   0x00000000   Code   RO         1486    .ARM.Collect$$libshutdown$$00000004  c_p.l(libshutdown2.o)
    0x08000142   0x08000142   0x00000000   Code   RO         1489    .ARM.Collect$$libshutdown$$00000007  c_p.l(libshutdown2.o)
    0x08000142   0x08000142   0x00000000   Code   RO         1492    .ARM.Collect$$libshutdown$$0000000A  c_p.l(libshutdown2.o)
    0x08000142   0x08000142   0x00000000   Code   RO         1494    .ARM.Collect$$libshutdown$$0000000C  c_p.l(libshutdown2.o)
    0x08000142   0x08000142   0x00000000   Code   RO         1497    .ARM.Collect$$libshutdown$$0000000F  c_p.l(libshutdown2.o)
    0x08000142   0x08000142   0x00000002   Code   RO         1498    .ARM.Collect$$libshutdown$$00000010  c_p.l(libshutdown2.o)
    0x08000144   0x08000144   0x00000000   Code   RO         1325    .ARM.Collect$$rtentry$$00000000  c_p.l(__rtentry.o)
    0x08000144   0x08000144   0x00000000   Code   RO         1332    .ARM.Collect$$rtentry$$00000002  c_p.l(__rtentry2.o)
    0x08000144   0x08000144   0x00000006   Code   RO         1344    .ARM.Collect$$rtentry$$00000004  c_p.l(__rtentry4.o)
    0x0800014a   0x0800014a   0x00000000   Code   RO         1334    .ARM.Collect$$rtentry$$00000009  c_p.l(__rtentry2.o)
    0x0800014a   0x0800014a   0x00000004   Code   RO         1335    .ARM.Collect$$rtentry$$0000000A  c_p.l(__rtentry2.o)
    0x0800014e   0x0800014e   0x00000000   Code   RO         1337    .ARM.Collect$$rtentry$$0000000C  c_p.l(__rtentry2.o)
    0x0800014e   0x0800014e   0x00000008   Code   RO         1338    .ARM.Collect$$rtentry$$0000000D  c_p.l(__rtentry2.o)
    0x08000156   0x08000156   0x00000002   Code   RO         1367    .ARM.Collect$$rtexit$$00000000  c_p.l(rtexit.o)
    0x08000158   0x08000158   0x00000000   Code   RO         1427    .ARM.Collect$$rtexit$$00000002  c_p.l(rtexit2.o)
    0x08000158   0x08000158   0x00000004   Code   RO         1428    .ARM.Collect$$rtexit$$00000003  c_p.l(rtexit2.o)
    0x0800015c   0x0800015c   0x00000006   Code   RO         1429    .ARM.Collect$$rtexit$$00000004  c_p.l(rtexit2.o)
    0x08000162   0x08000162   0x00000002   PAD
    0x08000164   0x08000164   0x00000038   Code   RO         1285    .emb_text           c_p.l(rt_memcpy.o)
    0x0800019c   0x0800019c   0x0000007c   Code   RO         1263    .text               startup_mm32spin06xx_s_keil.o
    0x08000218   0x08000218   0x00000082   Code   RO         1286    .text               c_p.l(rt_memcpy.o)
    0x0800029a   0x0800029a   0x00000040   Code   RO         1289    .text               c_p.l(rt_memclr.o)
    0x080002da   0x080002da   0x00000006   Code   RO         1299    .text               c_p.l(heapauxi.o)
    0x080002e0   0x080002e0   0x0000007c   Code   RO         1303    .text               fz_ps.l(d2f.o)
    0x0800035c   0x0800035c   0x00000448   Code   RO         1305    .text               fz_ps.l(ddiv.o)
    0x080007a4   0x080007a4   0x0000006c   Code   RO         1308    .text               fz_ps.l(dfixi.o)
    0x08000810   0x08000810   0x00000058   Code   RO         1310    .text               fz_ps.l(dflti.o)
    0x08000868   0x08000868   0x00000248   Code   RO         1312    .text               fz_ps.l(dmul.o)
    0x08000ab0   0x08000ab0   0x00000054   Code   RO         1314    .text               fz_ps.l(f2d.o)
    0x08000b04   0x08000b04   0x00000160   Code   RO         1316    .text               fz_ps.l(fdiv.o)
    0x08000c64   0x08000c64   0x0000005e   Code   RO         1321    .text               fz_ps.l(fflti.o)
    0x08000cc2   0x08000cc2   0x0000003e   Code   RO         1348    .text               c_p.l(sys_stackheap_outer.o)
    0x08000d00   0x08000d00   0x00000010   Code   RO         1351    .text               c_p.l(exit.o)
    0x08000d10   0x08000d10   0x00000008   Code   RO         1363    .text               c_p.l(libspace.o)
    0x08000d18   0x08000d18   0x0000000c   Code   RO         1422    .text               c_p.l(sys_exit.o)
    0x08000d24   0x08000d24   0x00000002   Code   RO         1445    .text               c_p.l(use_no_semi.o)
    0x08000d26   0x08000d26   0x00000000   Code   RO         1447    .text               c_p.l(indicate_semi.o)
    0x08000d26   0x08000d26   0x00000002   PAD
    0x08000d28   0x08000d28   0x0000034c   Code   RO          108    .text.ADC1_COMP_IRQHandler  interrupt.o
    0x08001074   0x08001074   0x00000012   Code   RO          388    .text.ADC_AnalogWatchdogCmd  hal_adc.o
    0x08001086   0x08001086   0x00000014   Code   RO          392    .text.ADC_AnalogWatchdogSingleChannelConfig  hal_adc.o
    0x0800109a   0x0800109a   0x00000008   Code   RO          390    .text.ADC_AnalogWatchdogThresholdsConfig  hal_adc.o
    0x080010a2   0x080010a2   0x0000000e   Code   RO          402    .text.ADC_ClearFlag  hal_adc.o
    0x080010b0   0x080010b0   0x0000000e   Code   RO          406    .text.ADC_ClearITPendingBit  hal_adc.o
    0x080010be   0x080010be   0x00000010   Code   RO          364    .text.ADC_Cmd       hal_adc.o
    0x080010ce   0x080010ce   0x00000012   Code   RO          378    .text.ADC_ExternalTrigConvCmd  hal_adc.o
    0x080010e0   0x080010e0   0x00000010   Code   RO          400    .text.ADC_GetFlagStatus  hal_adc.o
    0x080010f0   0x080010f0   0x00000010   Code   RO          404    .text.ADC_GetITStatus  hal_adc.o
    0x08001100   0x08001100   0x0000001e   Code   RO          368    .text.ADC_ITConfig  hal_adc.o
    0x0800111e   0x0800111e   0x00000002   PAD
    0x08001120   0x08001120   0x00000038   Code   RO          360    .text.ADC_Init      hal_adc.o
    0x08001158   0x08001158   0x0000003c   Code   RO          374    .text.ADC_RegularChannelConfig  hal_adc.o
    0x08001194   0x08001194   0x00000014   Code   RO          370    .text.ADC_SoftwareStartConvCmd  hal_adc.o
    0x080011a8   0x080011a8   0x0000001c   Code   RO          396    .text.ADC_VrefintCmd  hal_adc.o
    0x080011c4   0x080011c4   0x000000a8   Code   RO           80    .text.BLDC_init     initialize.o
    0x0800126c   0x0800126c   0x00000040   Code   RO          306    .text.CLARKE_MACRO1  clarke.o
    0x080012ac   0x080012ac   0x00000040   Code   RO          345    .text.CalcPI        pid.o
    0x080012ec   0x080012ec   0x0000004c   Code   RO           37    .text.DELAY_Init    delay.o
    0x08001338   0x08001338   0x00000018   Code   RO           41    .text.DELAY_Ms      delay.o
    0x08001350   0x08001350   0x0000001a   Code   RO          104    .text.DMA1_Channel2_3_IRQHandler  interrupt.o
    0x0800136a   0x0800136a   0x0000001a   Code   RO          106    .text.DMA1_Channel4_5_IRQHandler  interrupt.o
    0x08001384   0x08001384   0x00000008   Code   RO          507    .text.DMA_ClearITPendingBit  hal_dma.o
    0x0800138c   0x0800138c   0x0000000c   Code   RO          495    .text.DMA_Cmd       hal_dma.o
    0x08001398   0x08001398   0x00000030   Code   RO          489    .text.DMA_DeInit    hal_dma.o
    0x080013c8   0x080013c8   0x00000010   Code   RO          505    .text.DMA_GetITStatus  hal_dma.o
    0x080013d8   0x080013d8   0x00000014   Code   RO          497    .text.DMA_ITConfig  hal_dma.o
    0x080013ec   0x080013ec   0x0000004c   Code   RO          491    .text.DMA_Init      hal_dma.o
    0x08001438   0x08001438   0x0000005c   Code   RO           88    .text.DMA_NVIC_Config  initialize.o
    0x08001494   0x08001494   0x00000016   Code   RO          493    .text.DMA_StructInit  hal_dma.o
    0x080014aa   0x080014aa   0x00000090   Code   RO          633    .text.GPIO_Init     hal_gpio.o
    0x0800153a   0x0800153a   0x00000020   Code   RO          657    .text.GPIO_PinAFConfig  hal_gpio.o
    0x0800155a   0x0800155a   0x0000000a   Code   RO          637    .text.GPIO_ReadInputDataBit  hal_gpio.o
    0x08001564   0x08001564   0x00000014   Code   RO          635    .text.GPIO_StructInit  hal_gpio.o
    0x08001578   0x08001578   0x00000010   Code   RO          649    .text.GPIO_WriteBit  hal_gpio.o
    0x08001588   0x08001588   0x000000a8   Code   RO          319    .text.HALLModuleCalc  hallhandle.o
    0x08001630   0x08001630   0x00000078   Code   RO          317    .text.HALLModuleInit  hallhandle.o
    0x080016a8   0x080016a8   0x00000108   Code   RO           76    .text.HALLTIM_Init  initialize.o
    0x080017b0   0x080017b0   0x00000024   Code   RO           74    .text.HALL_Init     initialize.o
    0x080017d4   0x080017d4   0x0000003c   Code   RO          248    .text.IPARK_MACRO1  ipark.o
    0x08001810   0x08001810   0x00000010   Code   RO          741    .text.IWDG_ReloadCounter  hal_iwdg.o
    0x08001820   0x08001820   0x00000030   Code   RO          287    .text.InitNormalization  foc_math.o
    0x08001850   0x08001850   0x00000054   Code   RO          343    .text.InitPI        pid.o
    0x080018a4   0x080018a4   0x00000074   Code   RO          273    .text.MCM_Trig_Functions  foc_math.o
    0x08001918   0x08001918   0x00000030   Code   RO          281    .text.MovingAvgCal  foc_math.o
    0x08001948   0x08001948   0x0000001a   Code   RO          279    .text.MovingAvgInit  foc_math.o
    0x08001962   0x08001962   0x00000018   Code   RO           78    .text.NVIC_Configure  initialize.o
    0x0800197a   0x0800197a   0x00000002   PAD
    0x0800197c   0x0800197c   0x00000050   Code   RO          765    .text.NVIC_Init     hal_misc.o
    0x080019cc   0x080019cc   0x00000030   Code   RO          333    .text.PARK_MACRO1   park.o
    0x080019fc   0x080019fc   0x000001c8   Code   RO          260    .text.PWM_GEN_calc  pwm_gen.o
    0x08001bc4   0x08001bc4   0x00000018   Code   RO          258    .text.PWM_GEN_init  pwm_gen.o
    0x08001bdc   0x08001bdc   0x0000001c   Code   RO          843    .text.RCC_AHBPeriphClockCmd  hal_rcc.o
    0x08001bf8   0x08001bf8   0x0000001c   Code   RO          847    .text.RCC_APB1PeriphClockCmd  hal_rcc.o
    0x08001c14   0x08001c14   0x0000001c   Code   RO          845    .text.RCC_APB2PeriphClockCmd  hal_rcc.o
    0x08001c30   0x08001c30   0x0000002c   Code   RO          837    .text.RCC_GetPCLK1Freq  hal_rcc.o
    0x08001c5c   0x08001c5c   0x0000003c   Code   RO          839    .text.RCC_GetPCLK2Freq  hal_rcc.o
    0x08001c98   0x08001c98   0x000000d8   Code   RO          147    .text.RemoteUpdate  remoteuartbus.o
    0x08001d70   0x08001d70   0x0000001c   Code   RO           39    .text.SysTick_Handler  delay.o
    0x08001d8c   0x08001d8c   0x00000174   Code   RO         1270    .text.SystemInit    system_mm32spin06xx_s.o
    0x08001f00   0x08001f00   0x0000000c   Code   RO          102    .text.TIM1_BRK_UP_TRG_COM_IRQHandler  interrupt.o
    0x08001f0c   0x08001f0c   0x00000118   Code   RO           82    .text.TIM1_init     initialize.o
    0x08002024   0x08002024   0x00000058   Code   RO          110    .text.TIM2_IRQHandler  interrupt.o
    0x0800207c   0x0800207c   0x00000064   Code   RO          112    .text.TIM3_IRQHandler  interrupt.o
    0x080020e0   0x080020e0   0x0000001e   Code   RO          966    .text.TIM_BDTRConfig  hal_tim.o
    0x080020fe   0x080020fe   0x00000012   Code   RO          974    .text.TIM_BDTRStructInit  hal_tim.o
    0x08002110   0x08002110   0x00000010   Code   RO         1022    .text.TIM_CCPreloadControl  hal_tim.o
    0x08002120   0x08002120   0x00000008   Code   RO         1114    .text.TIM_ClearITPendingBit  hal_tim.o
    0x08002128   0x08002128   0x00000010   Code   RO          976    .text.TIM_Cmd       hal_tim.o
    0x08002138   0x08002138   0x00000014   Code   RO          978    .text.TIM_CtrlPWMOutputs  hal_tim.o
    0x0800214c   0x0800214c   0x00000004   Code   RO          982    .text.TIM_GenerateEvent  hal_tim.o
    0x08002150   0x08002150   0x00000014   Code   RO         1112    .text.TIM_GetITStatus  hal_tim.o
    0x08002164   0x08002164   0x000000f2   Code   RO          954    .text.TIM_ICInit    hal_tim.o
    0x08002256   0x08002256   0x0000000c   Code   RO          972    .text.TIM_ICStructInit  hal_tim.o
    0x08002262   0x08002262   0x00000014   Code   RO          980    .text.TIM_ITConfig  hal_tim.o
    0x08002276   0x08002276   0x00000002   PAD
    0x08002278   0x08002278   0x0000005c   Code   RO          946    .text.TIM_OC1Init   hal_tim.o
    0x080022d4   0x080022d4   0x0000005c   Code   RO          948    .text.TIM_OC2Init   hal_tim.o
    0x08002330   0x08002330   0x00000058   Code   RO          950    .text.TIM_OC3Init   hal_tim.o
    0x08002388   0x08002388   0x0000004c   Code   RO          952    .text.TIM_OC4Init   hal_tim.o
    0x080023d4   0x080023d4   0x0000000e   Code   RO          970    .text.TIM_OCStructInit  hal_tim.o
    0x080023e2   0x080023e2   0x00000012   Code   RO         1072    .text.TIM_SelectHallSensor  hal_tim.o
    0x080023f4   0x080023f4   0x0000000c   Code   RO          992    .text.TIM_SelectInputTrigger  hal_tim.o
    0x08002400   0x08002400   0x0000000c   Code   RO         1080    .text.TIM_SelectMasterSlaveMode  hal_tim.o
    0x0800240c   0x0800240c   0x0000000c   Code   RO         1078    .text.TIM_SelectSlaveMode  hal_tim.o
    0x08002418   0x08002418   0x00000084   Code   RO          944    .text.TIM_TimeBaseInit  hal_tim.o
    0x0800249c   0x0800249c   0x00000010   Code   RO          968    .text.TIM_TimeBaseStructInit  hal_tim.o
    0x080024ac   0x080024ac   0x0000000c   Code   RO         1070    .text.TIM_UpdateRequestConfig  hal_tim.o
    0x080024b8   0x080024b8   0x0000005c   Code   RO           84    .text.UARTX_Init    initialize.o
    0x08002514   0x08002514   0x0000000c   Code   RO         1154    .text.UART_Cmd      hal_uart.o
    0x08002520   0x08002520   0x0000000e   Code   RO         1158    .text.UART_DMACmd   hal_uart.o
    0x0800252e   0x0800252e   0x00000002   PAD
    0x08002530   0x08002530   0x00000048   Code   RO           86    .text.UART_GPIO_Init  initialize.o
    0x08002578   0x08002578   0x0000000a   Code   RO         1164    .text.UART_GetFlagStatus  hal_uart.o
    0x08002582   0x08002582   0x00000002   PAD
    0x08002584   0x08002584   0x00000074   Code   RO         1150    .text.UART_Init     hal_uart.o
    0x080025f8   0x080025f8   0x00000006   Code   RO         1160    .text.UART_SendData  hal_uart.o
    0x080025fe   0x080025fe   0x00000002   PAD
    0x08002600   0x08002600   0x00000048   Code   RO          135    .text.UART_SendString  uart.o
    0x08002648   0x08002648   0x0000005c   Code   RO          133    .text.UART_Send_Group  uart.o
    0x080026a4   0x080026a4   0x00000018   Code   RO         1152    .text.UART_StructInit  hal_uart.o
    0x080026bc   0x080026bc   0x0000001c   Code   RO          262    .text.Update_PWM    pwm_gen.o
    0x080026d8   0x080026d8   0x0000010c   Code   RO           90    .text.adc_Init      initialize.o
    0x080027e4   0x080027e4   0x00000090   Code   RO          212    .text.analogRead    hardware.o
    0x08002874   0x08002874   0x00000048   Code   RO          176    .text.avgItotal     calculation.o
    0x080028bc   0x080028bc   0x00000048   Code   RO          172    .text.avgspeed      calculation.o
    0x08002904   0x08002904   0x00000048   Code   RO          174    .text.avgvbat       calculation.o
    0x0800294c   0x0800294c   0x00000038   Code   RO          208    .text.digitalRead   hardware.o
    0x08002984   0x08002984   0x00000048   Code   RO          210    .text.digitalWrite  hardware.o
    0x080029cc   0x080029cc   0x00000034   Code   RO           52    .text.hallpos       bldc.o
    0x08002a00   0x08002a00   0x00000080   Code   RO           72    .text.io_init       initialize.o
    0x08002a80   0x08002a80   0x00000304   Code   RO            2    .text.main          main.o
    0x08002d84   0x08002d84   0x00000044   Code   RO          204    .text.pinMode       hardware.o
    0x08002dc8   0x08002dc8   0x00000048   Code   RO          206    .text.pinModeAF     hardware.o
    0x08002e10   0x08002e10   0x000000e8   Code   RO          238    .text.restorecfg    sim_eeprom.o
    0x08002ef8   0x08002ef8   0x00000124   Code   RO          151    .text.serialit      remoteuartbus.o
    0x0800301c   0x0800301c   0x00000080   Code   RO           56    .text.speedupdate   bldc.o
    0x0800309c   0x0800309c   0x00000020   Code   RO          180    .text.updateMotorRPM  calculation.o
    0x080030bc   0x080030bc   0x000001f6   Code   RO         1292    .text_divfast       c_p.l(aeabi_sdivfast.o)
    0x080032b2   0x080032b2   0x00000000   Code   RO         1330    x$fpl$usenofp       fz_ps.l(usenofp.o)
    0x080032b2   0x080032b2   0x00000080   Data   RO         1306    .constdata          fz_ps.l(ddiv.o)
    0x08003332   0x08003332   0x00000040   Data   RO         1317    .constdata          fz_ps.l(fdiv.o)
    0x08003372   0x08003372   0x00000028   Data   RO          215    .rodata.adcs        hardware.o
    0x0800339a   0x0800339a   0x00000200   Data   RO          291    .rodata.hSin_Cos_Table  foc_math.o
    0x0800359a   0x0800359a   0x00000008   Data   RO           60    .rodata.hall_to_pos  bldc.o
    0x080035a2   0x080035a2   0x0000002a   Data   RO          216    .rodata.halltims    hardware.o
    0x080035cc   0x080035cc   0x00000010   Data   RO          218    .rodata.ocps        hardware.o
    0x080035dc   0x080035dc   0x000000c6   Data   RO          214    .rodata.pins        hardware.o
    0x080036a2   0x080036a2   0x00000028   Data   RO          217    .rodata.uarts       hardware.o
    0x080036ca   0x080036ca   0x00000002   PAD
    0x080036cc   0x080036cc   0x00000020   Data   RO         1500    Region$$Table       anon$$obj.o


    Execution Region RW_IRAM1 (Exec base: 0x20000000, Load base: 0x080036f0, Size: 0x00000c88, Max: 0x00001000, ABSOLUTE)

    Exec Addr    Load Addr    Size         Type   Attr      Idx    E Section Name        Object

    0x20000000   0x080036f0   0x00000004   Data   RW         1274    .data.SystemCoreClock  system_mm32spin06xx_s.o
    0x20000004   0x080036f4   0x00000001   Data   RW            6    .data.dir           main.o
    0x20000005   0x080036f5   0x00000001   Data   RW            9    .data.hallposprev   main.o
    0x20000006   0x080036f6   0x00000080   Data   RW           16    .data.pinstorage    main.o
    0x20000086   0x08003776   0x00000010   Data   RW          877    .data.tbPresc       hal_rcc.o
    0x20000096   0x08003786   0x00000001   Data   RW           15    .data.uarten        main.o
    0x20000097   0x08003787   0x00000001   PAD
    0x20000098        -       0x00000060   Zero   RW         1364    .bss                c_p.l(libspace.o)
    0x200000f8        -       0x00000002   Zero   RW          321    .bss.CWShift        hallhandle.o
    0x200000fa   0x08003787   0x00000002   PAD
    0x200000fc        -       0x00000004   Zero   RW          323    .bss.ChangeTime     hallhandle.o
    0x20000100        -       0x00000020   Zero   RW          347    .bss.CurID          pid.o
    0x20000120        -       0x00000020   Zero   RW          348    .bss.CurIQ          pid.o
    0x20000140        -       0x00000004   Zero   RW          219    .bss.GPIO_InitStruct  hardware.o
    0x20000144        -       0x00000044   Zero   RW          322    .bss.HALL1          hallhandle.o
    0x20000188        -       0x00000001   Zero   RW          324    .bss.HALLModuleCalc.i  hallhandle.o
    0x20000189   0x08003787   0x00000003   PAD
    0x2000018c        -       0x0000004c   Zero   RW          294    .bss.IDData         foc_math.o
    0x200001d8        -       0x0000004c   Zero   RW          295    .bss.IQData         foc_math.o
    0x20000224        -       0x00000010   Zero   RW          297    .bss.RP             foc_math.o
    0x20000234        -       0x00000020   Zero   RW          349    .bss.Speed          pid.o
    0x20000254        -       0x0000004c   Zero   RW          296    .bss.SpeedFdk       foc_math.o
    0x200002a0        -       0x00000002   Zero   RW          119    .bss.TestAngle      interrupt.o
    0x200002a2        -       0x000000ff   Zero   RW          157    .bss.aReceiveBuffer  remoteuartbus.o
    0x200003a1   0x08003787   0x00000003   PAD
    0x200003a4        -       0x00000100   Zero   RW          195    .bss.aavgarr        calculation.o
    0x200004a4        -       0x00000002   Zero   RW           61    .bss.abspwm         bldc.o
    0x200004a6   0x08003787   0x00000002   PAD
    0x200004a8        -       0x00000004   Zero   RW          194    .bss.adatasum       calculation.o
    0x200004ac        -       0x00000001   Zero   RW          193    .bss.aindex         calculation.o
    0x200004ad   0x08003787   0x00000003   PAD
    0x200004b0        -       0x00000080   Zero   RW          189    .bss.avgarr         calculation.o
    0x20000530        -       0x00000001   Zero   RW          153    .bss.bAnswerMaster  remoteuartbus.o
    0x20000531   0x08003787   0x00000001   PAD
    0x20000532        -       0x0000000a   Zero   RW          308    .bss.clarke1        clarke.o
    0x2000053c        -       0x00000004   Zero   RW          188    .bss.datasum        calculation.o
    0x20000540        -       0x00000004   Zero   RW           27    .bss.fitotal        main.o
    0x20000544        -       0x00000001   Zero   RW           14    .bss.flicker        main.o
    0x20000545   0x08003787   0x00000003   PAD
    0x20000548        -       0x00000004   Zero   RW           13    .bss.frealspeed     main.o
    0x2000054c        -       0x00000004   Zero   RW           26    .bss.fvbat          main.o
    0x20000550        -       0x00000004   Zero   RW           22    .bss.iOdom          main.o
    0x20000554        -       0x00000002   Zero   RW          156    .bss.iReceivePos    remoteuartbus.o
    0x20000556        -       0x00000001   Zero   RW          159    .bss.iRxDataSize    remoteuartbus.o
    0x20000557        -       0x00000001   Zero   RW          158    .bss.iRxDataType    remoteuartbus.o
    0x20000558        -       0x00000004   Zero   RW          154    .bss.iTimeLastRx    remoteuartbus.o
    0x2000055c        -       0x00000001   Zero   RW          187    .bss.index          calculation.o
    0x2000055d   0x08003787   0x00000003   PAD
    0x20000560        -       0x00000018   Zero   RW          250    .bss.ipark1         ipark.o
    0x20000578        -       0x00000004   Zero   RW          121    .bss.iphasea        interrupt.o
    0x2000057c        -       0x00000004   Zero   RW          116    .bss.iphaseaoffset  interrupt.o
    0x20000580        -       0x00000004   Zero   RW          122    .bss.iphaseb        interrupt.o
    0x20000584        -       0x00000004   Zero   RW          117    .bss.iphaseboffset  interrupt.o
    0x20000588        -       0x00000004   Zero   RW           25    .bss.itotal         main.o
    0x2000058c        -       0x00000004   Zero   RW          114    .bss.itotaloffset   interrupt.o
    0x20000590        -       0x00000004   Zero   RW           62    .bss.lastcommutate  bldc.o
    0x20000594        -       0x00000004   Zero   RW           20    .bss.lastflicker    main.o
    0x20000598        -       0x00000004   Zero   RW           19    .bss.lastupdate     main.o
    0x2000059c        -       0x00000004   Zero   RW           18    .bss.millis         main.o
    0x200005a0        -       0x0000001c   Zero   RW          335    .bss.park1          park.o
    0x200005bc        -       0x00000001   Zero   RW          115    .bss.poweron        interrupt.o
    0x200005bd   0x08003787   0x00000003   PAD
    0x200005c0        -       0x00000004   Zero   RW           11    .bss.pwm            main.o
    0x200005c4        -       0x00000014   Zero   RW          264    .bss.pwm_gen        pwm_gen.o
    0x200005d8        -       0x00000001   Zero   RW          118    .bss.realdir        interrupt.o
    0x200005d9   0x08003787   0x00000003   PAD
    0x200005dc        -       0x00000004   Zero   RW           12    .bss.realspeed      main.o
    0x200005e0        -       0x0000000a   Zero   RW            8    .bss.sRxBuffer      main.o
    0x200005ea   0x08003787   0x00000002   PAD
    0x200005ec        -       0x00000004   Zero   RW           43    .bss.sTimingDelay   delay.o
    0x200005f0        -       0x00000004   Zero   RW           10    .bss.speed          main.o
    0x200005f4        -       0x00000080   Zero   RW          192    .bss.vavgarr        calculation.o
    0x20000674        -       0x00000004   Zero   RW           17    .bss.vbat           main.o
    0x20000678        -       0x00000004   Zero   RW          120    .bss.vcc            interrupt.o
    0x2000067c        -       0x00000004   Zero   RW          191    .bss.vdatasum       calculation.o
    0x20000680        -       0x00000001   Zero   RW          190    .bss.vindex         calculation.o
    0x20000681        -       0x00000001   Zero   RW           28    .bss.wState         main.o
    0x20000682   0x08003787   0x00000006   PAD
    0x20000688        -       0x00000200   Zero   RW         1261    HEAP                startup_mm32spin06xx_s_keil.o
    0x20000888        -       0x00000400   Zero   RW         1260    STACK               startup_mm32spin06xx_s_keil.o


==============================================================================

Image component sizes


      Code (inc. data)   RO Data    RW Data    ZI Data      Debug   Object Name

       180         36          8          0          6       3260   bldc.o
       248         68          0          0        527       2525   calculation.o
        64         16          0          0         10        945   clarke.o
       128         24          0          0          4       3160   delay.o
       238          8        512          0        244       4879   foc_math.o
       334         12          0          0          0       9140   hal_adc.o
       202         12          0          0          0       4655   hal_dma.o
       222          8          0          0          0       5407   hal_gpio.o
        16          8          0          0          0       2973   hal_iwdg.o
        80         12          0          0          0       2933   hal_misc.o
       188         28          0         16          0      11530   hal_rcc.o
       982         32          0          0          0      27808   hal_tim.o
       182          4          0          0          0       6348   hal_uart.o
       288         52          0          0         75       2579   hallhandle.o
       412         70        336          0          4       4747   hardware.o
      1424         48          0          0          0      17566   initialize.o
      1096        164          0          0         28       5265   interrupt.o
        60          0          0          0         24       1048   ipark.o
       772        100          0        131         60       5887   main.o
        48          0          0          0         28       1061   park.o
       148         20          0          0         96       1227   pid.o
       508         44          0          0         20       4421   pwm_gen.o
       508         80          0          0        264       3698   remoteuartbus.o
       232         12          0          0          0       6670   sim_eeprom.o
       124         58        192          0       1536        740   startup_mm32spin06xx_s_keil.o
       372         40          0          4          0       3445   system_mm32spin06xx_s.o
       164         12          0          0          0       1964   uart.o

    ----------------------------------------------------------------------
      9232        968       1082        152       2960     145881   Object Totals
         0          0         32          0          0          0   (incl. Generated)
        12          0          2          1         34          0   (incl. Padding)

    ----------------------------------------------------------------------

      Code (inc. data)   RO Data    RW Data    ZI Data      Debug   Library Member Name

         8          0          0          0          0         68   __main.o
         0          0          0          0          0          0   __rtentry.o
        12          0          0          0          0          0   __rtentry2.o
         6          0          0          0          0          0   __rtentry4.o
        60          8          0          0          0          0   __scatter.o
        26          0          0          0          0          0   __scatter_copy.o
        28          0          0          0          0          0   __scatter_zi.o
       502          0          0          0          0         92   aeabi_sdivfast.o
        16          0          0          0          0         68   exit.o
         6          0          0          0          0        136   heapauxi.o
         0          0          0          0          0          0   indicate_semi.o
         2          0          0          0          0          0   libinit.o
         2          0          0          0          0          0   libinit2.o
         2          0          0          0          0          0   libshutdown.o
         2          0          0          0          0          0   libshutdown2.o
         8          4          0          0         96         68   libspace.o
        64          0          0          0          0        108   rt_memclr.o
       186          0          0          0          0        144   rt_memcpy.o
         2          0          0          0          0          0   rtexit.o
        10          0          0          0          0          0   rtexit2.o
        12          4          0          0          0         60   sys_exit.o
        62          0          0          0          0         80   sys_stackheap_outer.o
         2          0          0          0          0         68   use_no_semi.o
       124          4          0          0          0         72   d2f.o
      1096         26        128          0          0        112   ddiv.o
       108         10          0          0          0         72   dfixi.o
        88          0          0          0          0         92   dflti.o
       584         26          0          0          0         84   dmul.o
        84          4          0          0          0         60   f2d.o
       352         10         64          0          0         92   fdiv.o
        94          0          0          0          0         92   fflti.o
         0          0          0          0          0          0   usenofp.o

    ----------------------------------------------------------------------
      3554         96        192          0         96       1568   Library Totals
         6          0          0          0          0          0   (incl. Padding)

    ----------------------------------------------------------------------

      Code (inc. data)   RO Data    RW Data    ZI Data      Debug   Library Name

      1018         16          0          0         96        892   c_p.l
      2530         80        192          0          0        676   fz_ps.l

    ----------------------------------------------------------------------
      3554         96        192          0         96       1568   Library Totals

    ----------------------------------------------------------------------

==============================================================================


      Code (inc. data)   RO Data    RW Data    ZI Data      Debug   

     12786       1064       1274        152       3056     146313   Grand Totals
     12786       1064       1274        152       3056     146313   ELF Image Totals
     12786       1064       1274        152          0          0   ROM Totals

==============================================================================

    Total RO  Size (Code + RO Data)                14060 (  13.73kB)
    Total RW  Size (RW Data + ZI Data)              3208 (   3.13kB)
    Total ROM Size (Code + RO Data + RW Data)      14212 (  13.88kB)

==============================================================================

