Component: Arm Compiler for Embedded 6.19 Tool: armlink [5e73cb00]

==============================================================================

Section Cross References

    main.o(.text.main) refers to hal_rcc.o(.text.RCC_AHBPeriphClockCmd) for RCC_AHBPeriphClockCmd
    main.o(.text.main) refers to autodetect.o(.text.selfhold) for selfhold
    main.o(.text.main) refers to delay.o(.text.DELAY_Init) for DELAY_Init
    main.o(.text.main) refers to initialize.o(.text.BLDC_init) for BLDC_init
    main.o(.text.main) refers to initialize.o(.text.TIM1_init) for TIM1_init
    main.o(.text.main) refers to initialize.o(.text.UARTX_Init) for UARTX_Init
    main.o(.text.main) refers to initialize.o(.text.exNVIC_Configure) for exNVIC_Configure
    main.o(.text.main) refers to initialize.o(.text.DMA_NVIC_Config) for DMA_NVIC_Config
    main.o(.text.main) refers to delay.o(.text.DELAY_Ms) for DELAY_Ms
    main.o(.text.main) refers to autodetect.o(.text.detectSelfHold) for detectSelfHold
    main.o(.text.main) refers to autodetect.o(.text.autoDetectInit) for autoDetectInit
    main.o(.text.main) refers to autodetect.o(.text.printvoltage) for printvoltage
    main.o(.text.main) refers to uart.o(.text.UART_SendString) for UART_SendString
    main.o(.text.main) refers to uart.o(.text.UART_Send_Group) for UART_Send_Group
    main.o(.text.main) refers to autodetect.o(.text.simhallupdate) for simhallupdate
    main.o(.text.main) refers to autodetect.o(.text.blinkLEDupdate) for blinkLEDupdate
    main.o(.text.main) refers to autodetect.o(.data.pinstorage) for pinstorage
    main.o(.text.main) refers to main.o(.bss.sRxBuffer) for sRxBuffer
    main.o(.text.main) refers to main.o(.bss.masterslave) for masterslave
    main.o(.text.main) refers to autodetect.o(.bss.mode) for mode
    main.o(.text.main) refers to autodetect.o(.bss.init) for init
    main.o(.text.main) refers to autodetect.o(.rodata.banner) for banner
    main.o(.ARM.exidx.text.main) refers to main.o(.text.main) for [Anonymous Symbol]
    delay.o(.text.DELAY_Init) refers to aeabi_sdivfast.o(.text_divfast) for __aeabi_uidiv
    delay.o(.text.DELAY_Init) refers to system_mm32spin06xx_s.o(.data.SystemCoreClock) for SystemCoreClock
    delay.o(.ARM.exidx.text.DELAY_Init) refers to delay.o(.text.DELAY_Init) for [Anonymous Symbol]
    delay.o(.text.SysTick_Handler) refers to delay.o(.bss.sTimingDelay) for sTimingDelay
    delay.o(.text.SysTick_Handler) refers to main.o(.bss.millis) for millis
    delay.o(.ARM.exidx.text.SysTick_Handler) refers to delay.o(.text.SysTick_Handler) for [Anonymous Symbol]
    delay.o(.text.DELAY_Ms) refers to delay.o(.bss.sTimingDelay) for sTimingDelay
    delay.o(.ARM.exidx.text.DELAY_Ms) refers to delay.o(.text.DELAY_Ms) for [Anonymous Symbol]
    bldc.o(.text.hallpos) refers to hal_gpio.o(.text.GPIO_ReadInputDataBit) for GPIO_ReadInputDataBit
    bldc.o(.text.hallpos) refers to bldc.o(.rodata.hall_to_pos) for hall_to_pos
    bldc.o(.ARM.exidx.text.hallpos) refers to bldc.o(.text.hallpos) for [Anonymous Symbol]
    bldc.o(.text.commutate) refers to hal_tim.o(.text.TIM_CCxCmd) for TIM_CCxCmd
    bldc.o(.text.commutate) refers to hal_tim.o(.text.TIM_CCxNCmd) for TIM_CCxNCmd
    bldc.o(.text.commutate) refers to hal_tim.o(.text.TIM_SelectOCxM) for TIM_SelectOCxM
    bldc.o(.text.commutate) refers to hal_tim.o(.text.TIM_GenerateEvent) for TIM_GenerateEvent
    bldc.o(.text.commutate) refers to main.o(.data.step) for step
    bldc.o(.ARM.exidx.text.commutate) refers to bldc.o(.text.commutate) for [Anonymous Symbol]
    bldc.o(.text.speedupdate) refers to remoteuartbus.o(.text.RemoteUpdate) for RemoteUpdate
    bldc.o(.text.speedupdate) refers to calculation.o(.text.avgspeed) for avgspeed
    bldc.o(.text.speedupdate) refers to calculation.o(.text.PID) for PID
    bldc.o(.text.speedupdate) refers to aeabi_sdivfast.o(.text_divfast) for __aeabi_idiv
    bldc.o(.text.speedupdate) refers to calculation.o(.text.PID2PWM) for PID2PWM
    bldc.o(.text.speedupdate) refers to dflti.o(.text) for __aeabi_i2d
    bldc.o(.text.speedupdate) refers to dfixui.o(.text) for __aeabi_d2uiz
    bldc.o(.text.speedupdate) refers to interrupt.o(.bss.poweron) for poweron
    bldc.o(.text.speedupdate) refers to bldc.o(.bss.lastcommutate) for lastcommutate
    bldc.o(.text.speedupdate) refers to main.o(.bss.millis) for millis
    bldc.o(.text.speedupdate) refers to main.o(.bss.frealspeed) for frealspeed
    bldc.o(.text.speedupdate) refers to main.o(.bss.realspeed) for realspeed
    bldc.o(.text.speedupdate) refers to main.o(.bss.speed) for speed
    bldc.o(.text.speedupdate) refers to main.o(.bss.pwm) for pwm
    bldc.o(.text.speedupdate) refers to main.o(.data.dir) for dir
    bldc.o(.ARM.exidx.text.speedupdate) refers to bldc.o(.text.speedupdate) for [Anonymous Symbol]
    initialize.o(.text.io_init) refers to hal_rcc.o(.text.RCC_AHBPeriphClockCmd) for RCC_AHBPeriphClockCmd
    initialize.o(.text.io_init) refers to hal_gpio.o(.text.GPIO_Init) for GPIO_Init
    initialize.o(.ARM.exidx.text.io_init) refers to initialize.o(.text.io_init) for [Anonymous Symbol]
    initialize.o(.text.HALL_Init) refers to hal_gpio.o(.text.GPIO_PinAFConfig) for GPIO_PinAFConfig
    initialize.o(.text.HALL_Init) refers to hal_gpio.o(.text.GPIO_Init) for GPIO_Init
    initialize.o(.ARM.exidx.text.HALL_Init) refers to initialize.o(.text.HALL_Init) for [Anonymous Symbol]
    initialize.o(.text.HALLTIM_Init) refers to hal_rcc.o(.text.RCC_APB1PeriphClockCmd) for RCC_APB1PeriphClockCmd
    initialize.o(.text.HALLTIM_Init) refers to hal_tim.o(.text.TIM_TimeBaseStructInit) for TIM_TimeBaseStructInit
    initialize.o(.text.HALLTIM_Init) refers to hal_tim.o(.text.TIM_TimeBaseInit) for TIM_TimeBaseInit
    initialize.o(.text.HALLTIM_Init) refers to hal_tim.o(.text.TIM_ICStructInit) for TIM_ICStructInit
    initialize.o(.text.HALLTIM_Init) refers to hal_tim.o(.text.TIM_ICInit) for TIM_ICInit
    initialize.o(.text.HALLTIM_Init) refers to hal_tim.o(.text.TIM_ITConfig) for TIM_ITConfig
    initialize.o(.text.HALLTIM_Init) refers to hal_tim.o(.text.TIM_SelectHallSensor) for TIM_SelectHallSensor
    initialize.o(.text.HALLTIM_Init) refers to hal_tim.o(.text.TIM_UpdateRequestConfig) for TIM_UpdateRequestConfig
    initialize.o(.text.HALLTIM_Init) refers to hal_tim.o(.text.TIM_SelectInputTrigger) for TIM_SelectInputTrigger
    initialize.o(.text.HALLTIM_Init) refers to hal_tim.o(.text.TIM_SelectSlaveMode) for TIM_SelectSlaveMode
    initialize.o(.text.HALLTIM_Init) refers to hal_tim.o(.text.TIM_SelectMasterSlaveMode) for TIM_SelectMasterSlaveMode
    initialize.o(.text.HALLTIM_Init) refers to hal_tim.o(.text.TIM_Cmd) for TIM_Cmd
    initialize.o(.ARM.exidx.text.HALLTIM_Init) refers to initialize.o(.text.HALLTIM_Init) for [Anonymous Symbol]
    initialize.o(.text.BLDC_init) refers to hal_gpio.o(.text.GPIO_PinAFConfig) for GPIO_PinAFConfig
    initialize.o(.text.BLDC_init) refers to hal_gpio.o(.text.GPIO_StructInit) for GPIO_StructInit
    initialize.o(.text.BLDC_init) refers to hal_gpio.o(.text.GPIO_Init) for GPIO_Init
    initialize.o(.ARM.exidx.text.BLDC_init) refers to initialize.o(.text.BLDC_init) for [Anonymous Symbol]
    initialize.o(.text.TIM1_init) refers to hal_rcc.o(.text.RCC_APB2PeriphClockCmd) for RCC_APB2PeriphClockCmd
    initialize.o(.text.TIM1_init) refers to hal_tim.o(.text.TIM_TimeBaseStructInit) for TIM_TimeBaseStructInit
    initialize.o(.text.TIM1_init) refers to hal_tim.o(.text.TIM_TimeBaseInit) for TIM_TimeBaseInit
    initialize.o(.text.TIM1_init) refers to hal_tim.o(.text.TIM_OCStructInit) for TIM_OCStructInit
    initialize.o(.text.TIM1_init) refers to hal_tim.o(.text.TIM_OC1Init) for TIM_OC1Init
    initialize.o(.text.TIM1_init) refers to hal_tim.o(.text.TIM_OC2Init) for TIM_OC2Init
    initialize.o(.text.TIM1_init) refers to hal_tim.o(.text.TIM_OC3Init) for TIM_OC3Init
    initialize.o(.text.TIM1_init) refers to hal_tim.o(.text.TIM_CCPreloadControl) for TIM_CCPreloadControl
    initialize.o(.text.TIM1_init) refers to hal_tim.o(.text.TIM_ITConfig) for TIM_ITConfig
    initialize.o(.text.TIM1_init) refers to hal_tim.o(.text.TIM_CtrlPWMOutputs) for TIM_CtrlPWMOutputs
    initialize.o(.text.TIM1_init) refers to hal_tim.o(.text.TIM_BDTRStructInit) for TIM_BDTRStructInit
    initialize.o(.text.TIM1_init) refers to hal_tim.o(.text.TIM_BDTRConfig) for TIM_BDTRConfig
    initialize.o(.text.TIM1_init) refers to hal_tim.o(.text.TIM_Cmd) for TIM_Cmd
    initialize.o(.ARM.exidx.text.TIM1_init) refers to initialize.o(.text.TIM1_init) for [Anonymous Symbol]
    initialize.o(.text.NVIC_Configure) refers to hal_misc.o(.text.NVIC_Init) for NVIC_Init
    initialize.o(.ARM.exidx.text.NVIC_Configure) refers to initialize.o(.text.NVIC_Configure) for [Anonymous Symbol]
    initialize.o(.text.exNVIC_Configure) refers to hal_misc.o(.text.exNVIC_Init) for exNVIC_Init
    initialize.o(.ARM.exidx.text.exNVIC_Configure) refers to initialize.o(.text.exNVIC_Configure) for [Anonymous Symbol]
    initialize.o(.text.UARTX_Init) refers to hal_rcc.o(.text.RCC_APB2PeriphClockCmd) for RCC_APB2PeriphClockCmd
    initialize.o(.text.UARTX_Init) refers to hal_rcc.o(.text.RCC_APB1PeriphClockCmd) for RCC_APB1PeriphClockCmd
    initialize.o(.text.UARTX_Init) refers to hal_uart.o(.text.UART_StructInit) for UART_StructInit
    initialize.o(.text.UARTX_Init) refers to hal_uart.o(.text.UART_Init) for UART_Init
    initialize.o(.text.UARTX_Init) refers to hal_uart.o(.text.UART_Cmd) for UART_Cmd
    initialize.o(.text.UARTX_Init) refers to hal_gpio.o(.text.GPIO_PinAFConfig) for GPIO_PinAFConfig
    initialize.o(.text.UARTX_Init) refers to hal_gpio.o(.text.GPIO_StructInit) for GPIO_StructInit
    initialize.o(.text.UARTX_Init) refers to hal_gpio.o(.text.GPIO_Init) for GPIO_Init
    initialize.o(.ARM.exidx.text.UARTX_Init) refers to initialize.o(.text.UARTX_Init) for [Anonymous Symbol]
    initialize.o(.text.UART_GPIO_Init) refers to hal_gpio.o(.text.GPIO_PinAFConfig) for GPIO_PinAFConfig
    initialize.o(.text.UART_GPIO_Init) refers to hal_gpio.o(.text.GPIO_StructInit) for GPIO_StructInit
    initialize.o(.text.UART_GPIO_Init) refers to hal_gpio.o(.text.GPIO_Init) for GPIO_Init
    initialize.o(.ARM.exidx.text.UART_GPIO_Init) refers to initialize.o(.text.UART_GPIO_Init) for [Anonymous Symbol]
    initialize.o(.text.DMA_NVIC_Config) refers to hal_rcc.o(.text.RCC_AHBPeriphClockCmd) for RCC_AHBPeriphClockCmd
    initialize.o(.text.DMA_NVIC_Config) refers to hal_dma.o(.text.DMA_DeInit) for DMA_DeInit
    initialize.o(.text.DMA_NVIC_Config) refers to hal_dma.o(.text.DMA_StructInit) for DMA_StructInit
    initialize.o(.text.DMA_NVIC_Config) refers to hal_dma.o(.text.DMA_Init) for DMA_Init
    initialize.o(.text.DMA_NVIC_Config) refers to hal_dma.o(.text.DMA_ITConfig) for DMA_ITConfig
    initialize.o(.text.DMA_NVIC_Config) refers to hal_uart.o(.text.UART_DMACmd) for UART_DMACmd
    initialize.o(.text.DMA_NVIC_Config) refers to hal_dma.o(.text.DMA_Cmd) for DMA_Cmd
    initialize.o(.ARM.exidx.text.DMA_NVIC_Config) refers to initialize.o(.text.DMA_NVIC_Config) for [Anonymous Symbol]
    initialize.o(.text.adc_Init) refers to hal_gpio.o(.text.GPIO_StructInit) for GPIO_StructInit
    initialize.o(.text.adc_Init) refers to hal_rcc.o(.text.RCC_APB2PeriphClockCmd) for RCC_APB2PeriphClockCmd
    initialize.o(.text.adc_Init) refers to hal_gpio.o(.text.GPIO_Init) for GPIO_Init
    initialize.o(.text.adc_Init) refers to hal_adc.o(.text.ADC_Init) for ADC_Init
    initialize.o(.text.adc_Init) refers to hal_adc.o(.text.ADC_ExternalTrigConvCmd) for ADC_ExternalTrigConvCmd
    initialize.o(.text.adc_Init) refers to hal_adc.o(.text.ADC_Cmd) for ADC_Cmd
    initialize.o(.text.adc_Init) refers to hal_adc.o(.text.ADC_RegularChannelConfig) for ADC_RegularChannelConfig
    initialize.o(.text.adc_Init) refers to hal_adc.o(.text.ADC_ITConfig) for ADC_ITConfig
    initialize.o(.ARM.exidx.text.adc_Init) refers to initialize.o(.text.adc_Init) for [Anonymous Symbol]
    initialize.o(.text.Iwdg_Init) refers to hal_rcc.o(.text.RCC_LSICmd) for RCC_LSICmd
    initialize.o(.text.Iwdg_Init) refers to hal_rcc.o(.text.RCC_GetFlagStatus) for RCC_GetFlagStatus
    initialize.o(.text.Iwdg_Init) refers to hal_iwdg.o(.text.PVU_CheckStatus) for PVU_CheckStatus
    initialize.o(.text.Iwdg_Init) refers to hal_iwdg.o(.text.IWDG_WriteAccessCmd) for IWDG_WriteAccessCmd
    initialize.o(.text.Iwdg_Init) refers to hal_iwdg.o(.text.IWDG_SetPrescaler) for IWDG_SetPrescaler
    initialize.o(.text.Iwdg_Init) refers to hal_iwdg.o(.text.RVU_CheckStatus) for RVU_CheckStatus
    initialize.o(.text.Iwdg_Init) refers to hal_iwdg.o(.text.IWDG_SetReload) for IWDG_SetReload
    initialize.o(.text.Iwdg_Init) refers to hal_iwdg.o(.text.IWDG_ReloadCounter) for IWDG_ReloadCounter
    initialize.o(.text.Iwdg_Init) refers to hal_iwdg.o(.text.IWDG_Enable) for IWDG_Enable
    initialize.o(.ARM.exidx.text.Iwdg_Init) refers to initialize.o(.text.Iwdg_Init) for [Anonymous Symbol]
    initialize.o(.text.vref_Init) refers to hal_rcc.o(.text.RCC_APB2PeriphClockCmd) for RCC_APB2PeriphClockCmd
    initialize.o(.text.vref_Init) refers to hal_adc.o(.text.ADC_Init) for ADC_Init
    initialize.o(.text.vref_Init) refers to hal_adc.o(.text.ADC_Cmd) for ADC_Cmd
    initialize.o(.text.vref_Init) refers to hal_adc.o(.text.ADC_RegularChannelConfig) for ADC_RegularChannelConfig
    initialize.o(.text.vref_Init) refers to hal_adc.o(.text.ADC_TempSensorVrefintCmd) for ADC_TempSensorVrefintCmd
    initialize.o(.ARM.exidx.text.vref_Init) refers to initialize.o(.text.vref_Init) for [Anonymous Symbol]
    initialize.o(.text.ADCALL_Init) refers to hal_adc.o(.text.ADC_DeInit) for ADC_DeInit
    initialize.o(.text.ADCALL_Init) refers to hal_rcc.o(.text.RCC_APB2PeriphClockCmd) for RCC_APB2PeriphClockCmd
    initialize.o(.text.ADCALL_Init) refers to hal_adc.o(.text.ADC_Init) for ADC_Init
    initialize.o(.text.ADCALL_Init) refers to hal_adc.o(.text.ADC_Cmd) for ADC_Cmd
    initialize.o(.ARM.exidx.text.ADCALL_Init) refers to initialize.o(.text.ADCALL_Init) for [Anonymous Symbol]
    interrupt.o(.text.TIM1_BRK_UP_TRG_COM_IRQHandler) refers to hal_tim.o(.text.TIM_ClearITPendingBit) for TIM_ClearITPendingBit
    interrupt.o(.ARM.exidx.text.TIM1_BRK_UP_TRG_COM_IRQHandler) refers to interrupt.o(.text.TIM1_BRK_UP_TRG_COM_IRQHandler) for [Anonymous Symbol]
    interrupt.o(.text.DMA1_Channel2_3_IRQHandler) refers to hal_dma.o(.text.DMA_GetITStatus) for DMA_GetITStatus
    interrupt.o(.text.DMA1_Channel2_3_IRQHandler) refers to hal_dma.o(.text.DMA_ClearITPendingBit) for DMA_ClearITPendingBit
    interrupt.o(.text.DMA1_Channel2_3_IRQHandler) refers to uart.o(.text.UART_Send_Byte) for UART_Send_Byte
    interrupt.o(.text.DMA1_Channel2_3_IRQHandler) refers to autodetect.o(.text.autoDetectSerialIt) for autoDetectSerialIt
    interrupt.o(.text.DMA1_Channel2_3_IRQHandler) refers to main.o(.bss.sRxBuffer) for sRxBuffer
    interrupt.o(.ARM.exidx.text.DMA1_Channel2_3_IRQHandler) refers to interrupt.o(.text.DMA1_Channel2_3_IRQHandler) for [Anonymous Symbol]
    interrupt.o(.text.ADC1_COMP_IRQHandler) refers to hal_adc.o(.text.ADC_GetFlagStatus) for ADC_GetFlagStatus
    interrupt.o(.text.ADC1_COMP_IRQHandler) refers to hal_adc.o(.text.ADC_ClearFlag) for ADC_ClearFlag
    interrupt.o(.text.ADC1_COMP_IRQHandler) refers to hal_tim.o(.text.TIM_GenerateEvent) for TIM_GenerateEvent
    interrupt.o(.text.ADC1_COMP_IRQHandler) refers to hal_adc.o(.text.ADC_GetITStatus) for ADC_GetITStatus
    interrupt.o(.text.ADC1_COMP_IRQHandler) refers to hal_adc.o(.text.ADC_AnalogWatchdogCmd) for ADC_AnalogWatchdogCmd
    interrupt.o(.text.ADC1_COMP_IRQHandler) refers to hal_adc.o(.text.ADC_AnalogWatchdogThresholdsConfig) for ADC_AnalogWatchdogThresholdsConfig
    interrupt.o(.text.ADC1_COMP_IRQHandler) refers to hal_adc.o(.text.ADC_AnalogWatchdogSingleChannelConfig) for ADC_AnalogWatchdogSingleChannelConfig
    interrupt.o(.text.ADC1_COMP_IRQHandler) refers to hal_adc.o(.text.ADC_ITConfig) for ADC_ITConfig
    interrupt.o(.text.ADC1_COMP_IRQHandler) refers to dflti.o(.text) for __aeabi_i2d
    interrupt.o(.text.ADC1_COMP_IRQHandler) refers to dmul.o(.text) for __aeabi_dmul
    interrupt.o(.text.ADC1_COMP_IRQHandler) refers to dfixi.o(.text) for __aeabi_d2iz
    interrupt.o(.text.ADC1_COMP_IRQHandler) refers to calculation.o(.text.avgvbat) for avgvbat
    interrupt.o(.text.ADC1_COMP_IRQHandler) refers to calculation.o(.text.avgItotal) for avgItotal
    interrupt.o(.text.ADC1_COMP_IRQHandler) refers to hal_tim.o(.text.TIM_CtrlPWMOutputs) for TIM_CtrlPWMOutputs
    interrupt.o(.text.ADC1_COMP_IRQHandler) refers to bldc.o(.text.hallpos) for hallpos
    interrupt.o(.text.ADC1_COMP_IRQHandler) refers to bldc.o(.text.commutate) for commutate
    interrupt.o(.text.ADC1_COMP_IRQHandler) refers to hal_adc.o(.text.ADC_ClearITPendingBit) for ADC_ClearITPendingBit
    interrupt.o(.text.ADC1_COMP_IRQHandler) refers to interrupt.o(.bss.poweron) for poweron
    interrupt.o(.text.ADC1_COMP_IRQHandler) refers to main.o(.bss.vbat) for vbat
    interrupt.o(.text.ADC1_COMP_IRQHandler) refers to interrupt.o(.bss.itotaloffset) for itotaloffset
    interrupt.o(.text.ADC1_COMP_IRQHandler) refers to main.o(.bss.itotal) for itotal
    interrupt.o(.text.ADC1_COMP_IRQHandler) refers to main.o(.data.dir) for dir
    interrupt.o(.text.ADC1_COMP_IRQHandler) refers to main.o(.data.hallposprev) for hallposprev
    interrupt.o(.text.ADC1_COMP_IRQHandler) refers to main.o(.data.step) for step
    interrupt.o(.ARM.exidx.text.ADC1_COMP_IRQHandler) refers to interrupt.o(.text.ADC1_COMP_IRQHandler) for [Anonymous Symbol]
    interrupt.o(.text.TIM2_IRQHandler) refers to hal_tim.o(.text.TIM_GetITStatus) for TIM_GetITStatus
    interrupt.o(.text.TIM2_IRQHandler) refers to calculation.o(.text.updateMotorRPM) for updateMotorRPM
    interrupt.o(.text.TIM2_IRQHandler) refers to hal_tim.o(.text.TIM_ClearITPendingBit) for TIM_ClearITPendingBit
    interrupt.o(.text.TIM2_IRQHandler) refers to main.o(.bss.realspeed) for realspeed
    interrupt.o(.text.TIM2_IRQHandler) refers to main.o(.data.dir) for dir
    interrupt.o(.text.TIM2_IRQHandler) refers to main.o(.bss.millis) for millis
    interrupt.o(.text.TIM2_IRQHandler) refers to bldc.o(.bss.lastcommutate) for lastcommutate
    interrupt.o(.text.TIM2_IRQHandler) refers to main.o(.bss.iOdom) for iOdom
    interrupt.o(.ARM.exidx.text.TIM2_IRQHandler) refers to interrupt.o(.text.TIM2_IRQHandler) for [Anonymous Symbol]
    interrupt.o(.text.TIM3_IRQHandler) refers to hal_tim.o(.text.TIM_GetITStatus) for TIM_GetITStatus
    interrupt.o(.text.TIM3_IRQHandler) refers to calculation.o(.text.updateMotorRPM) for updateMotorRPM
    interrupt.o(.text.TIM3_IRQHandler) refers to hal_tim.o(.text.TIM_ClearITPendingBit) for TIM_ClearITPendingBit
    interrupt.o(.text.TIM3_IRQHandler) refers to main.o(.bss.realspeed) for realspeed
    interrupt.o(.text.TIM3_IRQHandler) refers to main.o(.data.dir) for dir
    interrupt.o(.text.TIM3_IRQHandler) refers to main.o(.bss.millis) for millis
    interrupt.o(.text.TIM3_IRQHandler) refers to bldc.o(.bss.lastcommutate) for lastcommutate
    interrupt.o(.text.TIM3_IRQHandler) refers to main.o(.bss.iOdom) for iOdom
    interrupt.o(.ARM.exidx.text.TIM3_IRQHandler) refers to interrupt.o(.text.TIM3_IRQHandler) for [Anonymous Symbol]
    uart.o(.text.UART_Send_Byte) refers to hal_uart.o(.text.UART_SendData) for UART_SendData
    uart.o(.text.UART_Send_Byte) refers to hal_uart.o(.text.UART_GetFlagStatus) for UART_GetFlagStatus
    uart.o(.ARM.exidx.text.UART_Send_Byte) refers to uart.o(.text.UART_Send_Byte) for [Anonymous Symbol]
    uart.o(.text.UART_Send_Group) refers to hal_uart.o(.text.UART_SendData) for UART_SendData
    uart.o(.text.UART_Send_Group) refers to hal_uart.o(.text.UART_GetFlagStatus) for UART_GetFlagStatus
    uart.o(.ARM.exidx.text.UART_Send_Group) refers to uart.o(.text.UART_Send_Group) for [Anonymous Symbol]
    uart.o(.text.UART_SendString) refers to hal_uart.o(.text.UART_SendData) for UART_SendData
    uart.o(.text.UART_SendString) refers to hal_uart.o(.text.UART_GetFlagStatus) for UART_GetFlagStatus
    uart.o(.ARM.exidx.text.UART_SendString) refers to uart.o(.text.UART_SendString) for [Anonymous Symbol]
    remoteuartbus.o(.ARM.exidx.text.CalcCRC) refers to remoteuartbus.o(.text.CalcCRC) for [Anonymous Symbol]
    remoteuartbus.o(.text.RemoteUpdate) refers to uart.o(.text.UART_Send_Group) for UART_Send_Group
    remoteuartbus.o(.text.RemoteUpdate) refers to remoteuartbus.o(.bss.iTimeLastRx) for iTimeLastRx
    remoteuartbus.o(.text.RemoteUpdate) refers to main.o(.bss.millis) for millis
    remoteuartbus.o(.text.RemoteUpdate) refers to main.o(.bss.speed) for speed
    remoteuartbus.o(.text.RemoteUpdate) refers to remoteuartbus.o(.bss.bAnswerMaster) for bAnswerMaster
    remoteuartbus.o(.text.RemoteUpdate) refers to main.o(.bss.fvbat) for fvbat
    remoteuartbus.o(.text.RemoteUpdate) refers to main.o(.bss.fitotal) for fitotal
    remoteuartbus.o(.text.RemoteUpdate) refers to main.o(.bss.iOdom) for iOdom
    remoteuartbus.o(.text.RemoteUpdate) refers to main.o(.bss.frealspeed) for frealspeed
    remoteuartbus.o(.ARM.exidx.text.RemoteUpdate) refers to remoteuartbus.o(.text.RemoteUpdate) for [Anonymous Symbol]
    remoteuartbus.o(.text.AnswerMaster) refers to uart.o(.text.UART_Send_Group) for UART_Send_Group
    remoteuartbus.o(.text.AnswerMaster) refers to main.o(.bss.fvbat) for fvbat
    remoteuartbus.o(.text.AnswerMaster) refers to main.o(.bss.fitotal) for fitotal
    remoteuartbus.o(.text.AnswerMaster) refers to main.o(.bss.iOdom) for iOdom
    remoteuartbus.o(.text.AnswerMaster) refers to main.o(.bss.frealspeed) for frealspeed
    remoteuartbus.o(.ARM.exidx.text.AnswerMaster) refers to remoteuartbus.o(.text.AnswerMaster) for [Anonymous Symbol]
    remoteuartbus.o(.text.serialit) refers to remoteuartbus.o(.bss.iReceivePos) for [Anonymous Symbol]
    remoteuartbus.o(.text.serialit) refers to main.o(.bss.sRxBuffer) for sRxBuffer
    remoteuartbus.o(.text.serialit) refers to remoteuartbus.o(.bss.aReceiveBuffer) for [Anonymous Symbol]
    remoteuartbus.o(.text.serialit) refers to remoteuartbus.o(.bss.iRxDataSize) for iRxDataSize
    remoteuartbus.o(.text.serialit) refers to main.o(.bss.millis) for millis
    remoteuartbus.o(.text.serialit) refers to remoteuartbus.o(.bss.iTimeLastRx) for iTimeLastRx
    remoteuartbus.o(.text.serialit) refers to remoteuartbus.o(.bss.iRxDataType) for iRxDataType
    remoteuartbus.o(.text.serialit) refers to main.o(.bss.wState) for wState
    remoteuartbus.o(.text.serialit) refers to main.o(.bss.speed) for speed
    remoteuartbus.o(.text.serialit) refers to remoteuartbus.o(.bss.bAnswerMaster) for bAnswerMaster
    remoteuartbus.o(.ARM.exidx.text.serialit) refers to remoteuartbus.o(.text.serialit) for [Anonymous Symbol]
    calculation.o(.text.PID) refers to calculation.o(.bss.qdSum) for qdSum
    calculation.o(.text.PID) refers to calculation.o(.data.max) for max
    calculation.o(.text.PID) refers to calculation.o(.data.min) for min
    calculation.o(.text.PID) refers to calculation.o(.bss.lasterr) for lasterr
    calculation.o(.ARM.exidx.text.PID) refers to calculation.o(.text.PID) for [Anonymous Symbol]
    calculation.o(.text.avgspeed) refers to calculation.o(.bss.index) for index
    calculation.o(.text.avgspeed) refers to calculation.o(.bss.avgarr) for avgarr
    calculation.o(.text.avgspeed) refers to main.o(.bss.realspeed) for realspeed
    calculation.o(.text.avgspeed) refers to calculation.o(.bss.datasum) for datasum
    calculation.o(.text.avgspeed) refers to main.o(.bss.frealspeed) for frealspeed
    calculation.o(.ARM.exidx.text.avgspeed) refers to calculation.o(.text.avgspeed) for [Anonymous Symbol]
    calculation.o(.text.avgvbat) refers to calculation.o(.bss.vindex) for vindex
    calculation.o(.text.avgvbat) refers to calculation.o(.bss.vavgarr) for vavgarr
    calculation.o(.text.avgvbat) refers to main.o(.bss.vbat) for vbat
    calculation.o(.text.avgvbat) refers to calculation.o(.bss.vdatasum) for vdatasum
    calculation.o(.text.avgvbat) refers to main.o(.bss.fvbat) for fvbat
    calculation.o(.ARM.exidx.text.avgvbat) refers to calculation.o(.text.avgvbat) for [Anonymous Symbol]
    calculation.o(.text.avgItotal) refers to calculation.o(.bss.aindex) for aindex
    calculation.o(.text.avgItotal) refers to calculation.o(.bss.aavgarr) for aavgarr
    calculation.o(.text.avgItotal) refers to main.o(.bss.itotal) for itotal
    calculation.o(.text.avgItotal) refers to calculation.o(.bss.adatasum) for adatasum
    calculation.o(.text.avgItotal) refers to main.o(.bss.fitotal) for fitotal
    calculation.o(.ARM.exidx.text.avgItotal) refers to calculation.o(.text.avgItotal) for [Anonymous Symbol]
    calculation.o(.text.PID2PWM) refers to aeabi_sdivfast.o(.text_divfast) for __aeabi_idiv
    calculation.o(.text.PID2PWM) refers to calculation.o(.bss.prevpwm) for prevpwm
    calculation.o(.text.PID2PWM) refers to calculation.o(.data.max) for max
    calculation.o(.text.PID2PWM) refers to calculation.o(.data.min) for min
    calculation.o(.ARM.exidx.text.PID2PWM) refers to calculation.o(.text.PID2PWM) for [Anonymous Symbol]
    calculation.o(.text.updateMotorRPM) refers to aeabi_sdivfast.o(.text_divfast) for __aeabi_uidiv
    calculation.o(.ARM.exidx.text.updateMotorRPM) refers to calculation.o(.text.updateMotorRPM) for [Anonymous Symbol]
    autodetect.o(.text) refers (Special) to _printf_percent.o(.ARM.Collect$$_printf_percent$$00000000) for _printf_percent
    autodetect.o(.text) refers (Special) to _printf_f.o(.ARM.Collect$$_printf_percent$$00000003) for _printf_f
    autodetect.o(.text) refers (Special) to printf1.o(x$fpl$printf1) for _printf_fp_dec
    autodetect.o(.text.selfhold) refers (Special) to _printf_percent.o(.ARM.Collect$$_printf_percent$$00000000) for _printf_percent
    autodetect.o(.text.selfhold) refers (Special) to _printf_f.o(.ARM.Collect$$_printf_percent$$00000003) for _printf_f
    autodetect.o(.text.selfhold) refers (Special) to printf1.o(x$fpl$printf1) for _printf_fp_dec
    autodetect.o(.text.selfhold) refers to hardware.o(.text.pinMode) for pinMode
    autodetect.o(.text.selfhold) refers to autodetect.o(.data.pinstorage) for pinstorage
    autodetect.o(.text.selfhold) refers to hardware.o(.rodata.pins) for pins
    autodetect.o(.ARM.exidx.text.selfhold) refers (Special) to _printf_percent.o(.ARM.Collect$$_printf_percent$$00000000) for _printf_percent
    autodetect.o(.ARM.exidx.text.selfhold) refers (Special) to _printf_f.o(.ARM.Collect$$_printf_percent$$00000003) for _printf_f
    autodetect.o(.ARM.exidx.text.selfhold) refers (Special) to printf1.o(x$fpl$printf1) for _printf_fp_dec
    autodetect.o(.ARM.exidx.text.selfhold) refers to autodetect.o(.text.selfhold) for [Anonymous Symbol]
    autodetect.o(.text.used) refers (Special) to _printf_percent.o(.ARM.Collect$$_printf_percent$$00000000) for _printf_percent
    autodetect.o(.text.used) refers (Special) to _printf_f.o(.ARM.Collect$$_printf_percent$$00000003) for _printf_f
    autodetect.o(.text.used) refers (Special) to printf1.o(x$fpl$printf1) for _printf_fp_dec
    autodetect.o(.text.used) refers to autodetect.o(.data.pinstorage) for pinstorage
    autodetect.o(.ARM.exidx.text.used) refers (Special) to _printf_percent.o(.ARM.Collect$$_printf_percent$$00000000) for _printf_percent
    autodetect.o(.ARM.exidx.text.used) refers (Special) to _printf_f.o(.ARM.Collect$$_printf_percent$$00000003) for _printf_f
    autodetect.o(.ARM.exidx.text.used) refers (Special) to printf1.o(x$fpl$printf1) for _printf_fp_dec
    autodetect.o(.ARM.exidx.text.used) refers to autodetect.o(.text.used) for [Anonymous Symbol]
    autodetect.o(.text.detectSelfHold) refers (Special) to _printf_percent.o(.ARM.Collect$$_printf_percent$$00000000) for _printf_percent
    autodetect.o(.text.detectSelfHold) refers (Special) to _printf_f.o(.ARM.Collect$$_printf_percent$$00000003) for _printf_f
    autodetect.o(.text.detectSelfHold) refers (Special) to printf1.o(x$fpl$printf1) for _printf_fp_dec
    autodetect.o(.text.detectSelfHold) refers to initialize.o(.text.vref_Init) for vref_Init
    autodetect.o(.text.detectSelfHold) refers to hal_adc.o(.text.ADC_SoftwareStartConvCmd) for ADC_SoftwareStartConvCmd
    autodetect.o(.text.detectSelfHold) refers to delay.o(.text.DELAY_Ms) for DELAY_Ms
    autodetect.o(.text.detectSelfHold) refers to hardware.o(.text.pinMode) for pinMode
    autodetect.o(.text.detectSelfHold) refers to dflti.o(.text) for __aeabi_i2d
    autodetect.o(.text.detectSelfHold) refers to ddiv.o(.text) for __aeabi_ddiv
    autodetect.o(.text.detectSelfHold) refers to d2f.o(.text) for __aeabi_d2f
    autodetect.o(.text.detectSelfHold) refers to autodetect.o(.data.pinstorage) for pinstorage
    autodetect.o(.text.detectSelfHold) refers to main.o(.bss.millis) for millis
    autodetect.o(.text.detectSelfHold) refers to hardware.o(.rodata.pins) for pins
    autodetect.o(.text.detectSelfHold) refers to autodetect.o(.bss.tmp) for tmp
    autodetect.o(.text.detectSelfHold) refers to main.o(.bss.vcc) for vcc
    autodetect.o(.ARM.exidx.text.detectSelfHold) refers (Special) to _printf_percent.o(.ARM.Collect$$_printf_percent$$00000000) for _printf_percent
    autodetect.o(.ARM.exidx.text.detectSelfHold) refers (Special) to _printf_f.o(.ARM.Collect$$_printf_percent$$00000003) for _printf_f
    autodetect.o(.ARM.exidx.text.detectSelfHold) refers (Special) to printf1.o(x$fpl$printf1) for _printf_fp_dec
    autodetect.o(.ARM.exidx.text.detectSelfHold) refers to autodetect.o(.text.detectSelfHold) for [Anonymous Symbol]
    autodetect.o(.text.autoDetectSerialIt) refers (Special) to _printf_percent.o(.ARM.Collect$$_printf_percent$$00000000) for _printf_percent
    autodetect.o(.text.autoDetectSerialIt) refers (Special) to _printf_f.o(.ARM.Collect$$_printf_percent$$00000003) for _printf_f
    autodetect.o(.text.autoDetectSerialIt) refers (Special) to printf1.o(x$fpl$printf1) for _printf_fp_dec
    autodetect.o(.text.autoDetectSerialIt) refers to hardware.o(.text.pinMode) for pinMode
    autodetect.o(.text.autoDetectSerialIt) refers to autodetect.o(.bss.mode) for mode
    autodetect.o(.text.autoDetectSerialIt) refers to main.o(.bss.sRxBuffer) for sRxBuffer
    autodetect.o(.text.autoDetectSerialIt) refers to autodetect.o(.bss.selpin) for selpin
    autodetect.o(.text.autoDetectSerialIt) refers to hardware.o(.rodata.pins) for pins
    autodetect.o(.text.autoDetectSerialIt) refers to autodetect.o(.data.pinstorage) for pinstorage
    autodetect.o(.text.autoDetectSerialIt) refers to autodetect.o(.bss.init) for init
    autodetect.o(.text.autoDetectSerialIt) refers to delay.o(.bss.sTimingDelay) for sTimingDelay
    autodetect.o(.ARM.exidx.text.autoDetectSerialIt) refers (Special) to _printf_percent.o(.ARM.Collect$$_printf_percent$$00000000) for _printf_percent
    autodetect.o(.ARM.exidx.text.autoDetectSerialIt) refers (Special) to _printf_f.o(.ARM.Collect$$_printf_percent$$00000003) for _printf_f
    autodetect.o(.ARM.exidx.text.autoDetectSerialIt) refers (Special) to printf1.o(x$fpl$printf1) for _printf_fp_dec
    autodetect.o(.ARM.exidx.text.autoDetectSerialIt) refers to autodetect.o(.text.autoDetectSerialIt) for [Anonymous Symbol]
    autodetect.o(.text.simhallupdate) refers (Special) to _printf_percent.o(.ARM.Collect$$_printf_percent$$00000000) for _printf_percent
    autodetect.o(.text.simhallupdate) refers (Special) to _printf_f.o(.ARM.Collect$$_printf_percent$$00000003) for _printf_f
    autodetect.o(.text.simhallupdate) refers (Special) to printf1.o(x$fpl$printf1) for _printf_fp_dec
    autodetect.o(.text.simhallupdate) refers to bldc.o(.text.commutate) for commutate
    autodetect.o(.text.simhallupdate) refers to delay.o(.text.DELAY_Ms) for DELAY_Ms
    autodetect.o(.text.simhallupdate) refers to hardware.o(.text.digitalRead) for digitalRead
    autodetect.o(.text.simhallupdate) refers to uart.o(.text.UART_SendString) for UART_SendString
    autodetect.o(.text.simhallupdate) refers to uart.o(.text.UART_Send_Group) for UART_Send_Group
    autodetect.o(.text.simhallupdate) refers to aeabi_memset4.o(.text) for __aeabi_memset4
    autodetect.o(.text.simhallupdate) refers to autodetect.o(.data.pinstorage) for pinstorage
    autodetect.o(.text.simhallupdate) refers to main.o(.data.step) for step
    autodetect.o(.text.simhallupdate) refers to hardware.o(.rodata.pins) for pins
    autodetect.o(.text.simhallupdate) refers to autodetect.o(.bss.hallA) for hallA
    autodetect.o(.text.simhallupdate) refers to autodetect.o(.bss.hallB) for hallB
    autodetect.o(.text.simhallupdate) refers to autodetect.o(.bss.hallC) for hallC
    autodetect.o(.text.simhallupdate) refers to autodetect.o(.data.PXX) for PXX
    autodetect.o(.ARM.exidx.text.simhallupdate) refers (Special) to _printf_percent.o(.ARM.Collect$$_printf_percent$$00000000) for _printf_percent
    autodetect.o(.ARM.exidx.text.simhallupdate) refers (Special) to _printf_f.o(.ARM.Collect$$_printf_percent$$00000003) for _printf_f
    autodetect.o(.ARM.exidx.text.simhallupdate) refers (Special) to printf1.o(x$fpl$printf1) for _printf_fp_dec
    autodetect.o(.ARM.exidx.text.simhallupdate) refers to autodetect.o(.text.simhallupdate) for [Anonymous Symbol]
    autodetect.o(.text.autoDetectInit) refers (Special) to _printf_percent.o(.ARM.Collect$$_printf_percent$$00000000) for _printf_percent
    autodetect.o(.text.autoDetectInit) refers (Special) to _printf_f.o(.ARM.Collect$$_printf_percent$$00000003) for _printf_f
    autodetect.o(.text.autoDetectInit) refers (Special) to printf1.o(x$fpl$printf1) for _printf_fp_dec
    autodetect.o(.text.autoDetectInit) refers to hardware.o(.text.pinMode) for pinMode
    autodetect.o(.text.autoDetectInit) refers to hal_tim.o(.text.TIM_CtrlPWMOutputs) for TIM_CtrlPWMOutputs
    autodetect.o(.text.autoDetectInit) refers to aeabi_memset4.o(.text) for __aeabi_memset4
    autodetect.o(.text.autoDetectInit) refers to bldc.o(.text.commutate) for commutate
    autodetect.o(.text.autoDetectInit) refers to initialize.o(.text.ADCALL_Init) for ADCALL_Init
    autodetect.o(.text.autoDetectInit) refers to hal_adc.o(.text.ADC_RegularChannelConfig) for ADC_RegularChannelConfig
    autodetect.o(.text.autoDetectInit) refers to hal_adc.o(.text.ADC_SoftwareStartConvCmd) for ADC_SoftwareStartConvCmd
    autodetect.o(.text.autoDetectInit) refers to autodetect.o(.bss.mode) for mode
    autodetect.o(.text.autoDetectInit) refers to main.o(.data.step) for step
    autodetect.o(.text.autoDetectInit) refers to hardware.o(.rodata.adcs) for adcs
    autodetect.o(.text.autoDetectInit) refers to autodetect.o(.data.pinstorage) for pinstorage
    autodetect.o(.text.autoDetectInit) refers to hardware.o(.rodata.pins) for pins
    autodetect.o(.text.autoDetectInit) refers to autodetect.o(.bss.adcleft) for adcleft
    autodetect.o(.text.autoDetectInit) refers to autodetect.o(.bss.selpin) for selpin
    autodetect.o(.text.autoDetectInit) refers to autodetect.o(.bss.hallA) for hallA
    autodetect.o(.text.autoDetectInit) refers to autodetect.o(.bss.hallB) for hallB
    autodetect.o(.text.autoDetectInit) refers to autodetect.o(.bss.hallC) for hallC
    autodetect.o(.ARM.exidx.text.autoDetectInit) refers (Special) to _printf_percent.o(.ARM.Collect$$_printf_percent$$00000000) for _printf_percent
    autodetect.o(.ARM.exidx.text.autoDetectInit) refers (Special) to _printf_f.o(.ARM.Collect$$_printf_percent$$00000003) for _printf_f
    autodetect.o(.ARM.exidx.text.autoDetectInit) refers (Special) to printf1.o(x$fpl$printf1) for _printf_fp_dec
    autodetect.o(.ARM.exidx.text.autoDetectInit) refers to autodetect.o(.text.autoDetectInit) for [Anonymous Symbol]
    autodetect.o(.text.blinkLEDupdate) refers (Special) to _printf_percent.o(.ARM.Collect$$_printf_percent$$00000000) for _printf_percent
    autodetect.o(.text.blinkLEDupdate) refers (Special) to _printf_f.o(.ARM.Collect$$_printf_percent$$00000003) for _printf_f
    autodetect.o(.text.blinkLEDupdate) refers (Special) to printf1.o(x$fpl$printf1) for _printf_fp_dec
    autodetect.o(.text.blinkLEDupdate) refers to hardware.o(.text.pinMode) for pinMode
    autodetect.o(.text.blinkLEDupdate) refers to autodetect.o(.bss.lastblink) for lastblink
    autodetect.o(.text.blinkLEDupdate) refers to main.o(.bss.millis) for millis
    autodetect.o(.text.blinkLEDupdate) refers to autodetect.o(.bss.blinkstate) for blinkstate
    autodetect.o(.text.blinkLEDupdate) refers to autodetect.o(.bss.selpin) for selpin
    autodetect.o(.text.blinkLEDupdate) refers to hardware.o(.rodata.pins) for pins
    autodetect.o(.ARM.exidx.text.blinkLEDupdate) refers (Special) to _printf_percent.o(.ARM.Collect$$_printf_percent$$00000000) for _printf_percent
    autodetect.o(.ARM.exidx.text.blinkLEDupdate) refers (Special) to _printf_f.o(.ARM.Collect$$_printf_percent$$00000003) for _printf_f
    autodetect.o(.ARM.exidx.text.blinkLEDupdate) refers (Special) to printf1.o(x$fpl$printf1) for _printf_fp_dec
    autodetect.o(.ARM.exidx.text.blinkLEDupdate) refers to autodetect.o(.text.blinkLEDupdate) for [Anonymous Symbol]
    autodetect.o(.text.printvoltage) refers (Special) to _printf_percent.o(.ARM.Collect$$_printf_percent$$00000000) for _printf_percent
    autodetect.o(.text.printvoltage) refers (Special) to _printf_f.o(.ARM.Collect$$_printf_percent$$00000003) for _printf_f
    autodetect.o(.text.printvoltage) refers (Special) to printf1.o(x$fpl$printf1) for _printf_fp_dec
    autodetect.o(.text.printvoltage) refers to uart.o(.text.UART_Send_Group) for UART_Send_Group
    autodetect.o(.text.printvoltage) refers to f2d.o(.text) for __aeabi_f2d
    autodetect.o(.text.printvoltage) refers to noretval__2sprintf.o(.text) for __2sprintf
    autodetect.o(.text.printvoltage) refers to uart.o(.text.UART_SendString) for UART_SendString
    autodetect.o(.text.printvoltage) refers to hardware.o(.text.analogRead) for analogRead
    autodetect.o(.text.printvoltage) refers to dflti.o(.text) for __aeabi_ui2d
    autodetect.o(.text.printvoltage) refers to dmul.o(.text) for __aeabi_dmul
    autodetect.o(.text.printvoltage) refers to d2f.o(.text) for __aeabi_d2f
    autodetect.o(.text.printvoltage) refers to fcmp.o(i._fleq) for __aeabi_fcmple
    autodetect.o(.text.printvoltage) refers to fcmp.o(i._fgeq) for __aeabi_fcmpge
    autodetect.o(.text.printvoltage) refers to delay.o(.text.DELAY_Ms) for DELAY_Ms
    autodetect.o(.text.printvoltage) refers to hardware.o(.rodata.adcs) for adcs
    autodetect.o(.text.printvoltage) refers to autodetect.o(.bss.adcleft) for adcleft
    autodetect.o(.text.printvoltage) refers to main.o(.bss.vcc) for vcc
    autodetect.o(.text.printvoltage) refers to autodetect.o(.bss.showalladc) for showalladc
    autodetect.o(.text.printvoltage) refers to autodetect.o(.data.PXX) for PXX
    autodetect.o(.ARM.exidx.text.printvoltage) refers (Special) to _printf_percent.o(.ARM.Collect$$_printf_percent$$00000000) for _printf_percent
    autodetect.o(.ARM.exidx.text.printvoltage) refers (Special) to _printf_f.o(.ARM.Collect$$_printf_percent$$00000003) for _printf_f
    autodetect.o(.ARM.exidx.text.printvoltage) refers (Special) to printf1.o(x$fpl$printf1) for _printf_fp_dec
    autodetect.o(.ARM.exidx.text.printvoltage) refers to autodetect.o(.text.printvoltage) for [Anonymous Symbol]
    autodetect.o(.bss.mode) refers (Special) to _printf_percent.o(.ARM.Collect$$_printf_percent$$00000000) for _printf_percent
    autodetect.o(.bss.mode) refers (Special) to _printf_f.o(.ARM.Collect$$_printf_percent$$00000003) for _printf_f
    autodetect.o(.bss.mode) refers (Special) to printf1.o(x$fpl$printf1) for _printf_fp_dec
    autodetect.o(.bss.init) refers (Special) to _printf_percent.o(.ARM.Collect$$_printf_percent$$00000000) for _printf_percent
    autodetect.o(.bss.init) refers (Special) to _printf_f.o(.ARM.Collect$$_printf_percent$$00000003) for _printf_f
    autodetect.o(.bss.init) refers (Special) to printf1.o(x$fpl$printf1) for _printf_fp_dec
    autodetect.o(.bss.revolutions) refers (Special) to _printf_percent.o(.ARM.Collect$$_printf_percent$$00000000) for _printf_percent
    autodetect.o(.bss.revolutions) refers (Special) to _printf_f.o(.ARM.Collect$$_printf_percent$$00000003) for _printf_f
    autodetect.o(.bss.revolutions) refers (Special) to printf1.o(x$fpl$printf1) for _printf_fp_dec
    autodetect.o(.bss.selpin) refers (Special) to _printf_percent.o(.ARM.Collect$$_printf_percent$$00000000) for _printf_percent
    autodetect.o(.bss.selpin) refers (Special) to _printf_f.o(.ARM.Collect$$_printf_percent$$00000003) for _printf_f
    autodetect.o(.bss.selpin) refers (Special) to printf1.o(x$fpl$printf1) for _printf_fp_dec
    autodetect.o(.bss.blinkstate) refers (Special) to _printf_percent.o(.ARM.Collect$$_printf_percent$$00000000) for _printf_percent
    autodetect.o(.bss.blinkstate) refers (Special) to _printf_f.o(.ARM.Collect$$_printf_percent$$00000003) for _printf_f
    autodetect.o(.bss.blinkstate) refers (Special) to printf1.o(x$fpl$printf1) for _printf_fp_dec
    autodetect.o(.bss.showalladc) refers (Special) to _printf_percent.o(.ARM.Collect$$_printf_percent$$00000000) for _printf_percent
    autodetect.o(.bss.showalladc) refers (Special) to _printf_f.o(.ARM.Collect$$_printf_percent$$00000003) for _printf_f
    autodetect.o(.bss.showalladc) refers (Special) to printf1.o(x$fpl$printf1) for _printf_fp_dec
    autodetect.o(.data.pinstorage) refers (Special) to _printf_percent.o(.ARM.Collect$$_printf_percent$$00000000) for _printf_percent
    autodetect.o(.data.pinstorage) refers (Special) to _printf_f.o(.ARM.Collect$$_printf_percent$$00000003) for _printf_f
    autodetect.o(.data.pinstorage) refers (Special) to printf1.o(x$fpl$printf1) for _printf_fp_dec
    autodetect.o(.rodata.banner) refers (Special) to _printf_percent.o(.ARM.Collect$$_printf_percent$$00000000) for _printf_percent
    autodetect.o(.rodata.banner) refers (Special) to _printf_f.o(.ARM.Collect$$_printf_percent$$00000003) for _printf_f
    autodetect.o(.rodata.banner) refers (Special) to printf1.o(x$fpl$printf1) for _printf_fp_dec
    autodetect.o(.data.PXX) refers (Special) to _printf_percent.o(.ARM.Collect$$_printf_percent$$00000000) for _printf_percent
    autodetect.o(.data.PXX) refers (Special) to _printf_f.o(.ARM.Collect$$_printf_percent$$00000003) for _printf_f
    autodetect.o(.data.PXX) refers (Special) to printf1.o(x$fpl$printf1) for _printf_fp_dec
    autodetect.o(.bss.tmp) refers (Special) to _printf_percent.o(.ARM.Collect$$_printf_percent$$00000000) for _printf_percent
    autodetect.o(.bss.tmp) refers (Special) to _printf_f.o(.ARM.Collect$$_printf_percent$$00000003) for _printf_f
    autodetect.o(.bss.tmp) refers (Special) to printf1.o(x$fpl$printf1) for _printf_fp_dec
    autodetect.o(.bss.hallA) refers (Special) to _printf_percent.o(.ARM.Collect$$_printf_percent$$00000000) for _printf_percent
    autodetect.o(.bss.hallA) refers (Special) to _printf_f.o(.ARM.Collect$$_printf_percent$$00000003) for _printf_f
    autodetect.o(.bss.hallA) refers (Special) to printf1.o(x$fpl$printf1) for _printf_fp_dec
    autodetect.o(.bss.hallB) refers (Special) to _printf_percent.o(.ARM.Collect$$_printf_percent$$00000000) for _printf_percent
    autodetect.o(.bss.hallB) refers (Special) to _printf_f.o(.ARM.Collect$$_printf_percent$$00000003) for _printf_f
    autodetect.o(.bss.hallB) refers (Special) to printf1.o(x$fpl$printf1) for _printf_fp_dec
    autodetect.o(.bss.hallC) refers (Special) to _printf_percent.o(.ARM.Collect$$_printf_percent$$00000000) for _printf_percent
    autodetect.o(.bss.hallC) refers (Special) to _printf_f.o(.ARM.Collect$$_printf_percent$$00000003) for _printf_f
    autodetect.o(.bss.hallC) refers (Special) to printf1.o(x$fpl$printf1) for _printf_fp_dec
    autodetect.o(.bss.adcleft) refers (Special) to _printf_percent.o(.ARM.Collect$$_printf_percent$$00000000) for _printf_percent
    autodetect.o(.bss.adcleft) refers (Special) to _printf_f.o(.ARM.Collect$$_printf_percent$$00000003) for _printf_f
    autodetect.o(.bss.adcleft) refers (Special) to printf1.o(x$fpl$printf1) for _printf_fp_dec
    autodetect.o(.bss.lastblink) refers (Special) to _printf_percent.o(.ARM.Collect$$_printf_percent$$00000000) for _printf_percent
    autodetect.o(.bss.lastblink) refers (Special) to _printf_f.o(.ARM.Collect$$_printf_percent$$00000003) for _printf_f
    autodetect.o(.bss.lastblink) refers (Special) to printf1.o(x$fpl$printf1) for _printf_fp_dec
    autodetect.o(.bss.test) refers (Special) to _printf_percent.o(.ARM.Collect$$_printf_percent$$00000000) for _printf_percent
    autodetect.o(.bss.test) refers (Special) to _printf_f.o(.ARM.Collect$$_printf_percent$$00000003) for _printf_f
    autodetect.o(.bss.test) refers (Special) to printf1.o(x$fpl$printf1) for _printf_fp_dec
    autodetect.o(.bss.lastCommutation) refers (Special) to _printf_percent.o(.ARM.Collect$$_printf_percent$$00000000) for _printf_percent
    autodetect.o(.bss.lastCommutation) refers (Special) to _printf_f.o(.ARM.Collect$$_printf_percent$$00000003) for _printf_f
    autodetect.o(.bss.lastCommutation) refers (Special) to printf1.o(x$fpl$printf1) for _printf_fp_dec
    hardware.o(.text.pinMode) refers to hal_gpio.o(.text.GPIO_Init) for GPIO_Init
    hardware.o(.text.pinMode) refers to main.o(.bss.GPIO_InitStruct) for GPIO_InitStruct
    hardware.o(.ARM.exidx.text.pinMode) refers to hardware.o(.text.pinMode) for [Anonymous Symbol]
    hardware.o(.text.digitalRead) refers to hal_gpio.o(.text.GPIO_ReadInputDataBit) for GPIO_ReadInputDataBit
    hardware.o(.ARM.exidx.text.digitalRead) refers to hardware.o(.text.digitalRead) for [Anonymous Symbol]
    hardware.o(.text.digitalWrite) refers to hal_gpio.o(.text.GPIO_WriteBit) for GPIO_WriteBit
    hardware.o(.ARM.exidx.text.digitalWrite) refers to hardware.o(.text.digitalWrite) for [Anonymous Symbol]
    hardware.o(.ARM.exidx.text.analogRead) refers to hardware.o(.text.analogRead) for [Anonymous Symbol]
    hal_adc.o(.text.ADC_DeInit) refers to hal_rcc.o(.text.exRCC_APB2PeriphReset) for exRCC_APB2PeriphReset
    hal_adc.o(.ARM.exidx.text.ADC_DeInit) refers to hal_adc.o(.text.ADC_DeInit) for [Anonymous Symbol]
    hal_adc.o(.ARM.exidx.text.ADC_Init) refers to hal_adc.o(.text.ADC_Init) for [Anonymous Symbol]
    hal_adc.o(.ARM.exidx.text.ADC_StructInit) refers to hal_adc.o(.text.ADC_StructInit) for [Anonymous Symbol]
    hal_adc.o(.ARM.exidx.text.ADC_Cmd) refers to hal_adc.o(.text.ADC_Cmd) for [Anonymous Symbol]
    hal_adc.o(.ARM.exidx.text.ADC_DMACmd) refers to hal_adc.o(.text.ADC_DMACmd) for [Anonymous Symbol]
    hal_adc.o(.ARM.exidx.text.ADC_ITConfig) refers to hal_adc.o(.text.ADC_ITConfig) for [Anonymous Symbol]
    hal_adc.o(.ARM.exidx.text.ADC_SoftwareStartConvCmd) refers to hal_adc.o(.text.ADC_SoftwareStartConvCmd) for [Anonymous Symbol]
    hal_adc.o(.ARM.exidx.text.ADC_GetSoftwareStartConvStatus) refers to hal_adc.o(.text.ADC_GetSoftwareStartConvStatus) for [Anonymous Symbol]
    hal_adc.o(.ARM.exidx.text.ADC_RegularChannelConfig) refers to hal_adc.o(.text.ADC_RegularChannelConfig) for [Anonymous Symbol]
    hal_adc.o(.ARM.exidx.text.ADC_TempSensorVrefintCmd) refers to hal_adc.o(.text.ADC_TempSensorVrefintCmd) for [Anonymous Symbol]
    hal_adc.o(.ARM.exidx.text.ADC_ExternalTrigConvCmd) refers to hal_adc.o(.text.ADC_ExternalTrigConvCmd) for [Anonymous Symbol]
    hal_adc.o(.ARM.exidx.text.ADC_GetConversionValue) refers to hal_adc.o(.text.ADC_GetConversionValue) for [Anonymous Symbol]
    hal_adc.o(.ARM.exidx.text.ADC_GetDualModeConversionValue) refers to hal_adc.o(.text.ADC_GetDualModeConversionValue) for [Anonymous Symbol]
    hal_adc.o(.ARM.exidx.text.ADC_ExternalTrigInjectedConvConfig) refers to hal_adc.o(.text.ADC_ExternalTrigInjectedConvConfig) for [Anonymous Symbol]
    hal_adc.o(.ARM.exidx.text.ADC_ExternalTrigInjectedConvCmd) refers to hal_adc.o(.text.ADC_ExternalTrigInjectedConvCmd) for [Anonymous Symbol]
    hal_adc.o(.ARM.exidx.text.ADC_AnalogWatchdogCmd) refers to hal_adc.o(.text.ADC_AnalogWatchdogCmd) for [Anonymous Symbol]
    hal_adc.o(.ARM.exidx.text.ADC_AnalogWatchdogThresholdsConfig) refers to hal_adc.o(.text.ADC_AnalogWatchdogThresholdsConfig) for [Anonymous Symbol]
    hal_adc.o(.ARM.exidx.text.ADC_AnalogWatchdogSingleChannelConfig) refers to hal_adc.o(.text.ADC_AnalogWatchdogSingleChannelConfig) for [Anonymous Symbol]
    hal_adc.o(.ARM.exidx.text.ADC_TempSensorCmd) refers to hal_adc.o(.text.ADC_TempSensorCmd) for [Anonymous Symbol]
    hal_adc.o(.ARM.exidx.text.ADC_VrefintCmd) refers to hal_adc.o(.text.ADC_VrefintCmd) for [Anonymous Symbol]
    hal_adc.o(.ARM.exidx.text.exADC_TempSensorVrefintCmd) refers to hal_adc.o(.text.exADC_TempSensorVrefintCmd) for [Anonymous Symbol]
    hal_adc.o(.ARM.exidx.text.ADC_GetFlagStatus) refers to hal_adc.o(.text.ADC_GetFlagStatus) for [Anonymous Symbol]
    hal_adc.o(.ARM.exidx.text.ADC_ClearFlag) refers to hal_adc.o(.text.ADC_ClearFlag) for [Anonymous Symbol]
    hal_adc.o(.ARM.exidx.text.ADC_GetITStatus) refers to hal_adc.o(.text.ADC_GetITStatus) for [Anonymous Symbol]
    hal_adc.o(.ARM.exidx.text.ADC_ClearITPendingBit) refers to hal_adc.o(.text.ADC_ClearITPendingBit) for [Anonymous Symbol]
    hal_comp.o(.ARM.exidx.text.COMP_DeInit) refers to hal_comp.o(.text.COMP_DeInit) for [Anonymous Symbol]
    hal_comp.o(.ARM.exidx.text.COMP_Init) refers to hal_comp.o(.text.COMP_Init) for [Anonymous Symbol]
    hal_comp.o(.ARM.exidx.text.COMP_StructInit) refers to hal_comp.o(.text.COMP_StructInit) for [Anonymous Symbol]
    hal_comp.o(.ARM.exidx.text.COMP_Cmd) refers to hal_comp.o(.text.COMP_Cmd) for [Anonymous Symbol]
    hal_comp.o(.ARM.exidx.text.SET_COMP_CRV) refers to hal_comp.o(.text.SET_COMP_CRV) for [Anonymous Symbol]
    hal_comp.o(.ARM.exidx.text.COMP_SwitchCmd) refers to hal_comp.o(.text.COMP_SwitchCmd) for [Anonymous Symbol]
    hal_comp.o(.ARM.exidx.text.COMP_GetOutputLevel) refers to hal_comp.o(.text.COMP_GetOutputLevel) for [Anonymous Symbol]
    hal_comp.o(.ARM.exidx.text.COMP_LockConfig) refers to hal_comp.o(.text.COMP_LockConfig) for [Anonymous Symbol]
    hal_comp.o(.ARM.exidx.text.exCOMP_CrvCmd) refers to hal_comp.o(.text.exCOMP_CrvCmd) for [Anonymous Symbol]
    hal_comp.o(.ARM.exidx.text.exCOMP_SwitchCrv) refers to hal_comp.o(.text.exCOMP_SwitchCrv) for [Anonymous Symbol]
    hal_comp.o(.ARM.exidx.text.exCOMP_CrvSrc) refers to hal_comp.o(.text.exCOMP_CrvSrc) for [Anonymous Symbol]
    hal_crc.o(.ARM.exidx.text.CRC_ResetDR) refers to hal_crc.o(.text.CRC_ResetDR) for [Anonymous Symbol]
    hal_crc.o(.ARM.exidx.text.CRC_CalcCRC) refers to hal_crc.o(.text.CRC_CalcCRC) for [Anonymous Symbol]
    hal_crc.o(.ARM.exidx.text.CRC_CalcBlockCRC) refers to hal_crc.o(.text.CRC_CalcBlockCRC) for [Anonymous Symbol]
    hal_crc.o(.ARM.exidx.text.CRC_GetCRC) refers to hal_crc.o(.text.CRC_GetCRC) for [Anonymous Symbol]
    hal_crc.o(.ARM.exidx.text.CRC_SetIDRegister) refers to hal_crc.o(.text.CRC_SetIDRegister) for [Anonymous Symbol]
    hal_crc.o(.ARM.exidx.text.CRC_GetIDRegister) refers to hal_crc.o(.text.CRC_GetIDRegister) for [Anonymous Symbol]
    hal_dbg.o(.ARM.exidx.text.DBGMCU_Configure) refers to hal_dbg.o(.text.DBGMCU_Configure) for [Anonymous Symbol]
    hal_div.o(.ARM.exidx.text.HWDivider_Init) refers to hal_div.o(.text.HWDivider_Init) for [Anonymous Symbol]
    hal_div.o(.ARM.exidx.text.HWDivider_Calc) refers to hal_div.o(.text.HWDivider_Calc) for [Anonymous Symbol]
    hal_div.o(.text.Divider_Calc) refers to aeabi_sdivfast.o(.text_divfast) for __aeabi_uidiv
    hal_div.o(.ARM.exidx.text.Divider_Calc) refers to hal_div.o(.text.Divider_Calc) for [Anonymous Symbol]
    hal_dma.o(.text.DMA_DeInit) refers to aeabi_sdivfast.o(.text_divfast) for __aeabi_uidiv
    hal_dma.o(.ARM.exidx.text.DMA_DeInit) refers to hal_dma.o(.text.DMA_DeInit) for [Anonymous Symbol]
    hal_dma.o(.ARM.exidx.text.DMA_Init) refers to hal_dma.o(.text.DMA_Init) for [Anonymous Symbol]
    hal_dma.o(.ARM.exidx.text.DMA_StructInit) refers to hal_dma.o(.text.DMA_StructInit) for [Anonymous Symbol]
    hal_dma.o(.ARM.exidx.text.DMA_Cmd) refers to hal_dma.o(.text.DMA_Cmd) for [Anonymous Symbol]
    hal_dma.o(.ARM.exidx.text.DMA_ITConfig) refers to hal_dma.o(.text.DMA_ITConfig) for [Anonymous Symbol]
    hal_dma.o(.ARM.exidx.text.DMA_GetCurrDataCounter) refers to hal_dma.o(.text.DMA_GetCurrDataCounter) for [Anonymous Symbol]
    hal_dma.o(.ARM.exidx.text.DMA_GetFlagStatus) refers to hal_dma.o(.text.DMA_GetFlagStatus) for [Anonymous Symbol]
    hal_dma.o(.ARM.exidx.text.DMA_ClearFlag) refers to hal_dma.o(.text.DMA_ClearFlag) for [Anonymous Symbol]
    hal_dma.o(.ARM.exidx.text.DMA_GetITStatus) refers to hal_dma.o(.text.DMA_GetITStatus) for [Anonymous Symbol]
    hal_dma.o(.ARM.exidx.text.DMA_ClearITPendingBit) refers to hal_dma.o(.text.DMA_ClearITPendingBit) for [Anonymous Symbol]
    hal_dma.o(.ARM.exidx.text.exDMA_SetPeripheralAddress) refers to hal_dma.o(.text.exDMA_SetPeripheralAddress) for [Anonymous Symbol]
    hal_dma.o(.ARM.exidx.text.exDMA_SetTransmitLen) refers to hal_dma.o(.text.exDMA_SetTransmitLen) for [Anonymous Symbol]
    hal_dma.o(.ARM.exidx.text.exDMA_SetMemoryAddress) refers to hal_dma.o(.text.exDMA_SetMemoryAddress) for [Anonymous Symbol]
    hal_dma.o(.text.exDMA_ClearITPendingBit) refers to aeabi_sdivfast.o(.text_divfast) for __aeabi_uidiv
    hal_dma.o(.ARM.exidx.text.exDMA_ClearITPendingBit) refers to hal_dma.o(.text.exDMA_ClearITPendingBit) for [Anonymous Symbol]
    hal_exti.o(.ARM.exidx.text.EXTI_DeInit) refers to hal_exti.o(.text.EXTI_DeInit) for [Anonymous Symbol]
    hal_exti.o(.ARM.exidx.text.exEXTI_LineDisable) refers to hal_exti.o(.text.exEXTI_LineDisable) for [Anonymous Symbol]
    hal_exti.o(.ARM.exidx.text.EXTI_MemoryRemapConfig) refers to hal_exti.o(.text.EXTI_MemoryRemapConfig) for [Anonymous Symbol]
    hal_exti.o(.ARM.exidx.text.EXTI_DMAChannelRemapConfig) refers to hal_exti.o(.text.EXTI_DMAChannelRemapConfig) for [Anonymous Symbol]
    hal_exti.o(.ARM.exidx.text.EXTI_LineConfig) refers to hal_exti.o(.text.EXTI_LineConfig) for [Anonymous Symbol]
    hal_exti.o(.ARM.exidx.text.EXTI_Init) refers to hal_exti.o(.text.EXTI_Init) for [Anonymous Symbol]
    hal_exti.o(.ARM.exidx.text.EXTI_StructInit) refers to hal_exti.o(.text.EXTI_StructInit) for [Anonymous Symbol]
    hal_exti.o(.ARM.exidx.text.EXTI_GenerateSWInterrupt) refers to hal_exti.o(.text.EXTI_GenerateSWInterrupt) for [Anonymous Symbol]
    hal_exti.o(.ARM.exidx.text.EXTI_GetFlagStatus) refers to hal_exti.o(.text.EXTI_GetFlagStatus) for [Anonymous Symbol]
    hal_exti.o(.ARM.exidx.text.EXTI_ClearFlag) refers to hal_exti.o(.text.EXTI_ClearFlag) for [Anonymous Symbol]
    hal_exti.o(.ARM.exidx.text.EXTI_GetITStatus) refers to hal_exti.o(.text.EXTI_GetITStatus) for [Anonymous Symbol]
    hal_exti.o(.ARM.exidx.text.EXTI_ClearITPendingBit) refers to hal_exti.o(.text.EXTI_ClearITPendingBit) for [Anonymous Symbol]
    hal_exti.o(.ARM.exidx.text.exEXTI_GetAllFlagStatus) refers to hal_exti.o(.text.exEXTI_GetAllFlagStatus) for [Anonymous Symbol]
    hal_flash.o(.ARM.exidx.text.FLASH_SetLatency) refers to hal_flash.o(.text.FLASH_SetLatency) for [Anonymous Symbol]
    hal_flash.o(.ARM.exidx.text.FLASH_HalfCycleAccessCmd) refers to hal_flash.o(.text.FLASH_HalfCycleAccessCmd) for [Anonymous Symbol]
    hal_flash.o(.ARM.exidx.text.FLASH_PrefetchBufferCmd) refers to hal_flash.o(.text.FLASH_PrefetchBufferCmd) for [Anonymous Symbol]
    hal_flash.o(.ARM.exidx.text.FLASH_Lock) refers to hal_flash.o(.text.FLASH_Lock) for [Anonymous Symbol]
    hal_flash.o(.ARM.exidx.text.FLASH_Unlock) refers to hal_flash.o(.text.FLASH_Unlock) for [Anonymous Symbol]
    hal_flash.o(.ARM.exidx.text.FLASH_OPTB_Enable) refers to hal_flash.o(.text.FLASH_OPTB_Enable) for [Anonymous Symbol]
    hal_flash.o(.ARM.exidx.text.FLASH_ErasePage) refers to hal_flash.o(.text.FLASH_ErasePage) for [Anonymous Symbol]
    hal_flash.o(.ARM.exidx.text.FLASH_WaitForLastOperation) refers to hal_flash.o(.text.FLASH_WaitForLastOperation) for [Anonymous Symbol]
    hal_flash.o(.ARM.exidx.text.FLASH_EraseAllPages) refers to hal_flash.o(.text.FLASH_EraseAllPages) for [Anonymous Symbol]
    hal_flash.o(.ARM.exidx.text.FLASH_EraseOptionBytes) refers to hal_flash.o(.text.FLASH_EraseOptionBytes) for [Anonymous Symbol]
    hal_flash.o(.ARM.exidx.text.FLASH_EraseProtect) refers to hal_flash.o(.text.FLASH_EraseProtect) for [Anonymous Symbol]
    hal_flash.o(.ARM.exidx.text.FLASH_ProgramHalfWord) refers to hal_flash.o(.text.FLASH_ProgramHalfWord) for [Anonymous Symbol]
    hal_flash.o(.ARM.exidx.text.FLASH_ProgramWord) refers to hal_flash.o(.text.FLASH_ProgramWord) for [Anonymous Symbol]
    hal_flash.o(.ARM.exidx.text.FLASH_ProgramOptionByteData) refers to hal_flash.o(.text.FLASH_ProgramOptionByteData) for [Anonymous Symbol]
    hal_flash.o(.ARM.exidx.text.FLASH_ProgramOptionHalfWord) refers to hal_flash.o(.text.FLASH_ProgramOptionHalfWord) for [Anonymous Symbol]
    hal_flash.o(.ARM.exidx.text.FLASH_ProgramProtect) refers to hal_flash.o(.text.FLASH_ProgramProtect) for [Anonymous Symbol]
    hal_flash.o(.ARM.exidx.text.FLASH_EnableWriteProtection) refers to hal_flash.o(.text.FLASH_EnableWriteProtection) for [Anonymous Symbol]
    hal_flash.o(.ARM.exidx.text.FLASH_UserOptionByteConfig) refers to hal_flash.o(.text.FLASH_UserOptionByteConfig) for [Anonymous Symbol]
    hal_flash.o(.ARM.exidx.text.FLASH_GetUserOptionByte) refers to hal_flash.o(.text.FLASH_GetUserOptionByte) for [Anonymous Symbol]
    hal_flash.o(.ARM.exidx.text.FLASH_GetWriteProtectionOptionByte) refers to hal_flash.o(.text.FLASH_GetWriteProtectionOptionByte) for [Anonymous Symbol]
    hal_flash.o(.ARM.exidx.text.FLASH_GetPrefetchBufferStatus) refers to hal_flash.o(.text.FLASH_GetPrefetchBufferStatus) for [Anonymous Symbol]
    hal_flash.o(.ARM.exidx.text.FLASH_ITConfig) refers to hal_flash.o(.text.FLASH_ITConfig) for [Anonymous Symbol]
    hal_flash.o(.ARM.exidx.text.FLASH_GetFlagStatus) refers to hal_flash.o(.text.FLASH_GetFlagStatus) for [Anonymous Symbol]
    hal_flash.o(.ARM.exidx.text.FLASH_ClearFlag) refers to hal_flash.o(.text.FLASH_ClearFlag) for [Anonymous Symbol]
    hal_flash.o(.ARM.exidx.text.FLASH_GetStatus) refers to hal_flash.o(.text.FLASH_GetStatus) for [Anonymous Symbol]
    hal_flash.o(.ARM.exidx.text.exFLASH_EraseEE) refers to hal_flash.o(.text.exFLASH_EraseEE) for [Anonymous Symbol]
    hal_flash.o(.ARM.exidx.text.exFLASH_ProgramEE) refers to hal_flash.o(.text.exFLASH_ProgramEE) for [Anonymous Symbol]
    hal_flash.o(.ARM.exidx.text.exFLASH_FindEmpty) refers to hal_flash.o(.text.exFLASH_FindEmpty) for [Anonymous Symbol]
    hal_flash.o(.text.exFLASH_Locate) refers to aeabi_sdivfast.o(.text_divfast) for __aeabi_uidiv
    hal_flash.o(.ARM.exidx.text.exFLASH_Locate) refers to hal_flash.o(.text.exFLASH_Locate) for [Anonymous Symbol]
    hal_flash.o(.text.exFLASH_WriteEE) refers to aeabi_sdivfast.o(.text_divfast) for __aeabi_uidiv
    hal_flash.o(.ARM.exidx.text.exFLASH_WriteEE) refers to hal_flash.o(.text.exFLASH_WriteEE) for [Anonymous Symbol]
    hal_flash.o(.text.exFLASH_ReadEE) refers to aeabi_sdivfast.o(.text_divfast) for __aeabi_uidiv
    hal_flash.o(.ARM.exidx.text.exFLASH_ReadEE) refers to hal_flash.o(.text.exFLASH_ReadEE) for [Anonymous Symbol]
    hal_gpio.o(.text.GPIO_DeInit) refers to hal_rcc.o(.text.RCC_AHBPeriphClockCmd) for RCC_AHBPeriphClockCmd
    hal_gpio.o(.ARM.exidx.text.GPIO_DeInit) refers to hal_gpio.o(.text.GPIO_DeInit) for [Anonymous Symbol]
    hal_gpio.o(.ARM.exidx.text.GPIO_AFIODeInit) refers to hal_gpio.o(.text.GPIO_AFIODeInit) for [Anonymous Symbol]
    hal_gpio.o(.ARM.exidx.text.GPIO_Init) refers to hal_gpio.o(.text.GPIO_Init) for [Anonymous Symbol]
    hal_gpio.o(.ARM.exidx.text.GPIO_StructInit) refers to hal_gpio.o(.text.GPIO_StructInit) for [Anonymous Symbol]
    hal_gpio.o(.ARM.exidx.text.GPIO_ReadInputDataBit) refers to hal_gpio.o(.text.GPIO_ReadInputDataBit) for [Anonymous Symbol]
    hal_gpio.o(.ARM.exidx.text.GPIO_ReadInputData) refers to hal_gpio.o(.text.GPIO_ReadInputData) for [Anonymous Symbol]
    hal_gpio.o(.ARM.exidx.text.GPIO_ReadOutputDataBit) refers to hal_gpio.o(.text.GPIO_ReadOutputDataBit) for [Anonymous Symbol]
    hal_gpio.o(.ARM.exidx.text.GPIO_ReadOutputData) refers to hal_gpio.o(.text.GPIO_ReadOutputData) for [Anonymous Symbol]
    hal_gpio.o(.ARM.exidx.text.GPIO_SetBits) refers to hal_gpio.o(.text.GPIO_SetBits) for [Anonymous Symbol]
    hal_gpio.o(.ARM.exidx.text.GPIO_ResetBits) refers to hal_gpio.o(.text.GPIO_ResetBits) for [Anonymous Symbol]
    hal_gpio.o(.ARM.exidx.text.GPIO_WriteBit) refers to hal_gpio.o(.text.GPIO_WriteBit) for [Anonymous Symbol]
    hal_gpio.o(.ARM.exidx.text.GPIO_Write) refers to hal_gpio.o(.text.GPIO_Write) for [Anonymous Symbol]
    hal_gpio.o(.ARM.exidx.text.GPIO_PinLock) refers to hal_gpio.o(.text.GPIO_PinLock) for [Anonymous Symbol]
    hal_gpio.o(.ARM.exidx.text.GPIO_PinLockConfig) refers to hal_gpio.o(.text.GPIO_PinLockConfig) for [Anonymous Symbol]
    hal_gpio.o(.ARM.exidx.text.GPIO_PinAFConfig) refers to hal_gpio.o(.text.GPIO_PinAFConfig) for [Anonymous Symbol]
    hal_gpio.o(.ARM.exidx.text.exGPIO_PinAFConfig) refers to hal_gpio.o(.text.exGPIO_PinAFConfig) for [Anonymous Symbol]
    hal_i2c.o(.text.I2C_DeInit) refers to hal_rcc.o(.text.exRCC_APB1PeriphReset) for exRCC_APB1PeriphReset
    hal_i2c.o(.ARM.exidx.text.I2C_DeInit) refers to hal_i2c.o(.text.I2C_DeInit) for [Anonymous Symbol]
    hal_i2c.o(.text.I2C_Init) refers to hal_rcc.o(.text.RCC_GetPCLK1Freq) for RCC_GetPCLK1Freq
    hal_i2c.o(.text.I2C_Init) refers to aeabi_sdivfast.o(.text_divfast) for __aeabi_uidiv
    hal_i2c.o(.ARM.exidx.text.I2C_Init) refers to hal_i2c.o(.text.I2C_Init) for [Anonymous Symbol]
    hal_i2c.o(.ARM.exidx.text.I2C_StructInit) refers to hal_i2c.o(.text.I2C_StructInit) for [Anonymous Symbol]
    hal_i2c.o(.ARM.exidx.text.I2C_Cmd) refers to hal_i2c.o(.text.I2C_Cmd) for [Anonymous Symbol]
    hal_i2c.o(.text.I2C_DMACmd) refers to hal_i2c.o(.bss.I2C_DMA_DIR) for I2C_DMA_DIR
    hal_i2c.o(.ARM.exidx.text.I2C_DMACmd) refers to hal_i2c.o(.text.I2C_DMACmd) for [Anonymous Symbol]
    hal_i2c.o(.ARM.exidx.text.I2C_GenerateSTART) refers to hal_i2c.o(.text.I2C_GenerateSTART) for [Anonymous Symbol]
    hal_i2c.o(.ARM.exidx.text.I2C_GenerateSTOP) refers to hal_i2c.o(.text.I2C_GenerateSTOP) for [Anonymous Symbol]
    hal_i2c.o(.ARM.exidx.text.I2C_OwnAddress2Config) refers to hal_i2c.o(.text.I2C_OwnAddress2Config) for [Anonymous Symbol]
    hal_i2c.o(.ARM.exidx.text.I2C_DualAddressCmd) refers to hal_i2c.o(.text.I2C_DualAddressCmd) for [Anonymous Symbol]
    hal_i2c.o(.ARM.exidx.text.I2C_GeneralCallCmd) refers to hal_i2c.o(.text.I2C_GeneralCallCmd) for [Anonymous Symbol]
    hal_i2c.o(.ARM.exidx.text.I2C_ITConfig) refers to hal_i2c.o(.text.I2C_ITConfig) for [Anonymous Symbol]
    hal_i2c.o(.ARM.exidx.text.I2C_ReadCmd) refers to hal_i2c.o(.text.I2C_ReadCmd) for [Anonymous Symbol]
    hal_i2c.o(.ARM.exidx.text.I2C_SendData) refers to hal_i2c.o(.text.I2C_SendData) for [Anonymous Symbol]
    hal_i2c.o(.text.I2C_ReceiveData) refers to hal_i2c.o(.bss.I2C_CMD_DIR) for [Anonymous Symbol]
    hal_i2c.o(.ARM.exidx.text.I2C_ReceiveData) refers to hal_i2c.o(.text.I2C_ReceiveData) for [Anonymous Symbol]
    hal_i2c.o(.ARM.exidx.text.I2C_Send7bitAddress) refers to hal_i2c.o(.text.I2C_Send7bitAddress) for [Anonymous Symbol]
    hal_i2c.o(.ARM.exidx.text.I2C_ReadRegister) refers to hal_i2c.o(.text.I2C_ReadRegister) for [Anonymous Symbol]
    hal_i2c.o(.ARM.exidx.text.I2C_GetLastEvent) refers to hal_i2c.o(.text.I2C_GetLastEvent) for [Anonymous Symbol]
    hal_i2c.o(.text.I2C_CheckEvent) refers to hal_i2c.o(.bss.I2C_CMD_DIR) for [Anonymous Symbol]
    hal_i2c.o(.ARM.exidx.text.I2C_CheckEvent) refers to hal_i2c.o(.text.I2C_CheckEvent) for [Anonymous Symbol]
    hal_i2c.o(.text.I2C_GetFlagStatus) refers to hal_i2c.o(.bss.I2C_CMD_DIR) for [Anonymous Symbol]
    hal_i2c.o(.ARM.exidx.text.I2C_GetFlagStatus) refers to hal_i2c.o(.text.I2C_GetFlagStatus) for [Anonymous Symbol]
    hal_i2c.o(.ARM.exidx.text.I2C_ClearFlag) refers to hal_i2c.o(.text.I2C_ClearFlag) for [Anonymous Symbol]
    hal_i2c.o(.ARM.exidx.text.I2C_GetITStatus) refers to hal_i2c.o(.text.I2C_GetITStatus) for [Anonymous Symbol]
    hal_i2c.o(.ARM.exidx.text.I2C_ClearITPendingBit) refers to hal_i2c.o(.text.I2C_ClearITPendingBit) for [Anonymous Symbol]
    hal_i2c.o(.ARM.exidx.text.I2C_SendSlaveAddress) refers to hal_i2c.o(.text.I2C_SendSlaveAddress) for [Anonymous Symbol]
    hal_i2c.o(.ARM.exidx.text.I2C_SlaveConfigure) refers to hal_i2c.o(.text.I2C_SlaveConfigure) for [Anonymous Symbol]
    hal_i2c.o(.ARM.exidx.text.I2C_DMAConfigure) refers to hal_i2c.o(.text.I2C_DMAConfigure) for [Anonymous Symbol]
    hal_iwdg.o(.ARM.exidx.text.IWDG_WriteAccessCmd) refers to hal_iwdg.o(.text.IWDG_WriteAccessCmd) for [Anonymous Symbol]
    hal_iwdg.o(.ARM.exidx.text.IWDG_SetPrescaler) refers to hal_iwdg.o(.text.IWDG_SetPrescaler) for [Anonymous Symbol]
    hal_iwdg.o(.ARM.exidx.text.PVU_CheckStatus) refers to hal_iwdg.o(.text.PVU_CheckStatus) for [Anonymous Symbol]
    hal_iwdg.o(.ARM.exidx.text.IWDG_SetReload) refers to hal_iwdg.o(.text.IWDG_SetReload) for [Anonymous Symbol]
    hal_iwdg.o(.ARM.exidx.text.RVU_CheckStatus) refers to hal_iwdg.o(.text.RVU_CheckStatus) for [Anonymous Symbol]
    hal_iwdg.o(.ARM.exidx.text.IWDG_GetReload) refers to hal_iwdg.o(.text.IWDG_GetReload) for [Anonymous Symbol]
    hal_iwdg.o(.ARM.exidx.text.IWDG_ReloadCounter) refers to hal_iwdg.o(.text.IWDG_ReloadCounter) for [Anonymous Symbol]
    hal_iwdg.o(.ARM.exidx.text.IWDG_Enable) refers to hal_iwdg.o(.text.IWDG_Enable) for [Anonymous Symbol]
    hal_iwdg.o(.ARM.exidx.text.IWDG_GetFlagStatus) refers to hal_iwdg.o(.text.IWDG_GetFlagStatus) for [Anonymous Symbol]
    hal_iwdg.o(.ARM.exidx.text.IWDG_OverflowConfig) refers to hal_iwdg.o(.text.IWDG_OverflowConfig) for [Anonymous Symbol]
    hal_iwdg.o(.ARM.exidx.text.IWDG_ClearITPendingBit) refers to hal_iwdg.o(.text.IWDG_ClearITPendingBit) for [Anonymous Symbol]
    hal_iwdg.o(.ARM.exidx.text.IWDG_ClearIT) refers to hal_iwdg.o(.text.IWDG_ClearIT) for [Anonymous Symbol]
    hal_iwdg.o(.ARM.exidx.text.IWDG_EnableIT) refers to hal_iwdg.o(.text.IWDG_EnableIT) for [Anonymous Symbol]
    hal_iwdg.o(.ARM.exidx.text.IWDG_Reset) refers to hal_iwdg.o(.text.IWDG_Reset) for [Anonymous Symbol]
    hal_misc.o(.ARM.exidx.text.NVIC_Init) refers to hal_misc.o(.text.NVIC_Init) for [Anonymous Symbol]
    hal_misc.o(.ARM.exidx.text.exNVIC_Init) refers to hal_misc.o(.text.exNVIC_Init) for [Anonymous Symbol]
    hal_misc.o(.ARM.exidx.text.NVIC_SystemLPConfig) refers to hal_misc.o(.text.NVIC_SystemLPConfig) for [Anonymous Symbol]
    hal_misc.o(.ARM.exidx.text.SysTick_CLKSourceConfig) refers to hal_misc.o(.text.SysTick_CLKSourceConfig) for [Anonymous Symbol]
    hal_pwr.o(.text.PWR_DeInit) refers to hal_rcc.o(.text.exRCC_APB1PeriphReset) for exRCC_APB1PeriphReset
    hal_pwr.o(.ARM.exidx.text.PWR_DeInit) refers to hal_pwr.o(.text.PWR_DeInit) for [Anonymous Symbol]
    hal_pwr.o(.ARM.exidx.text.PWR_PVDCmd) refers to hal_pwr.o(.text.PWR_PVDCmd) for [Anonymous Symbol]
    hal_pwr.o(.ARM.exidx.text.PWR_PVDLevelConfig) refers to hal_pwr.o(.text.PWR_PVDLevelConfig) for [Anonymous Symbol]
    hal_pwr.o(.ARM.exidx.text.PWR_WakeUpPinCmd) refers to hal_pwr.o(.text.PWR_WakeUpPinCmd) for [Anonymous Symbol]
    hal_pwr.o(.ARM.exidx.text.PWR_EnterSTOPMode) refers to hal_pwr.o(.text.PWR_EnterSTOPMode) for [Anonymous Symbol]
    hal_pwr.o(.ARM.exidx.text.PWR_EnterSTANDBYMode) refers to hal_pwr.o(.text.PWR_EnterSTANDBYMode) for [Anonymous Symbol]
    hal_pwr.o(.ARM.exidx.text.PWR_GetFlagStatus) refers to hal_pwr.o(.text.PWR_GetFlagStatus) for [Anonymous Symbol]
    hal_pwr.o(.ARM.exidx.text.PWR_ClearFlag) refers to hal_pwr.o(.text.PWR_ClearFlag) for [Anonymous Symbol]
    hal_pwr.o(.ARM.exidx.text.exPWR_EnterLowPowerMode) refers to hal_pwr.o(.text.exPWR_EnterLowPowerMode) for [Anonymous Symbol]
    hal_rcc.o(.ARM.exidx.text.RCC_DeInit) refers to hal_rcc.o(.text.RCC_DeInit) for [Anonymous Symbol]
    hal_rcc.o(.ARM.exidx.text.RCC_HSEConfig) refers to hal_rcc.o(.text.RCC_HSEConfig) for [Anonymous Symbol]
    hal_rcc.o(.ARM.exidx.text.RCC_GetFlagStatus) refers to hal_rcc.o(.text.RCC_GetFlagStatus) for [Anonymous Symbol]
    hal_rcc.o(.ARM.exidx.text.RCC_WaitForHSEStartUp) refers to hal_rcc.o(.text.RCC_WaitForHSEStartUp) for [Anonymous Symbol]
    hal_rcc.o(.ARM.exidx.text.RCC_WaitForFlagStartUp) refers to hal_rcc.o(.text.RCC_WaitForFlagStartUp) for [Anonymous Symbol]
    hal_rcc.o(.ARM.exidx.text.RCC_HSICmd) refers to hal_rcc.o(.text.RCC_HSICmd) for [Anonymous Symbol]
    hal_rcc.o(.ARM.exidx.text.RCC_SYSCLKConfig) refers to hal_rcc.o(.text.RCC_SYSCLKConfig) for [Anonymous Symbol]
    hal_rcc.o(.ARM.exidx.text.RCC_GetSYSCLKSource) refers to hal_rcc.o(.text.RCC_GetSYSCLKSource) for [Anonymous Symbol]
    hal_rcc.o(.ARM.exidx.text.RCC_HCLKConfig) refers to hal_rcc.o(.text.RCC_HCLKConfig) for [Anonymous Symbol]
    hal_rcc.o(.ARM.exidx.text.RCC_PCLK1Config) refers to hal_rcc.o(.text.RCC_PCLK1Config) for [Anonymous Symbol]
    hal_rcc.o(.ARM.exidx.text.RCC_PCLK2Config) refers to hal_rcc.o(.text.RCC_PCLK2Config) for [Anonymous Symbol]
    hal_rcc.o(.ARM.exidx.text.RCC_ADCCLKConfig) refers to hal_rcc.o(.text.RCC_ADCCLKConfig) for [Anonymous Symbol]
    hal_rcc.o(.ARM.exidx.text.RCC_LSICmd) refers to hal_rcc.o(.text.RCC_LSICmd) for [Anonymous Symbol]
    hal_rcc.o(.ARM.exidx.text.RCC_GetSysClockFreq) refers to hal_rcc.o(.text.RCC_GetSysClockFreq) for [Anonymous Symbol]
    hal_rcc.o(.text.RCC_GetHCLKFreq) refers to hal_rcc.o(.data.tbPresc) for tbPresc
    hal_rcc.o(.ARM.exidx.text.RCC_GetHCLKFreq) refers to hal_rcc.o(.text.RCC_GetHCLKFreq) for [Anonymous Symbol]
    hal_rcc.o(.text.RCC_GetPCLK1Freq) refers to hal_rcc.o(.data.tbPresc) for tbPresc
    hal_rcc.o(.ARM.exidx.text.RCC_GetPCLK1Freq) refers to hal_rcc.o(.text.RCC_GetPCLK1Freq) for [Anonymous Symbol]
    hal_rcc.o(.text.RCC_GetPCLK2Freq) refers to hal_rcc.o(.data.tbPresc) for tbPresc
    hal_rcc.o(.ARM.exidx.text.RCC_GetPCLK2Freq) refers to hal_rcc.o(.text.RCC_GetPCLK2Freq) for [Anonymous Symbol]
    hal_rcc.o(.text.RCC_GetClocksFreq) refers to aeabi_sdivfast.o(.text_divfast) for __aeabi_uidiv
    hal_rcc.o(.text.RCC_GetClocksFreq) refers to hal_rcc.o(.data.tbPresc) for tbPresc
    hal_rcc.o(.ARM.exidx.text.RCC_GetClocksFreq) refers to hal_rcc.o(.text.RCC_GetClocksFreq) for [Anonymous Symbol]
    hal_rcc.o(.ARM.exidx.text.RCC_AHBPeriphClockCmd) refers to hal_rcc.o(.text.RCC_AHBPeriphClockCmd) for [Anonymous Symbol]
    hal_rcc.o(.ARM.exidx.text.RCC_APB2PeriphClockCmd) refers to hal_rcc.o(.text.RCC_APB2PeriphClockCmd) for [Anonymous Symbol]
    hal_rcc.o(.ARM.exidx.text.RCC_APB1PeriphClockCmd) refers to hal_rcc.o(.text.RCC_APB1PeriphClockCmd) for [Anonymous Symbol]
    hal_rcc.o(.ARM.exidx.text.RCC_APB2PeriphResetCmd) refers to hal_rcc.o(.text.RCC_APB2PeriphResetCmd) for [Anonymous Symbol]
    hal_rcc.o(.ARM.exidx.text.RCC_APB1PeriphResetCmd) refers to hal_rcc.o(.text.RCC_APB1PeriphResetCmd) for [Anonymous Symbol]
    hal_rcc.o(.ARM.exidx.text.RCC_AHBPeriphResetCmd) refers to hal_rcc.o(.text.RCC_AHBPeriphResetCmd) for [Anonymous Symbol]
    hal_rcc.o(.ARM.exidx.text.RCC_ClockSecuritySystemCmd) refers to hal_rcc.o(.text.RCC_ClockSecuritySystemCmd) for [Anonymous Symbol]
    hal_rcc.o(.ARM.exidx.text.RCC_MCOConfig) refers to hal_rcc.o(.text.RCC_MCOConfig) for [Anonymous Symbol]
    hal_rcc.o(.ARM.exidx.text.RCC_ClearFlag) refers to hal_rcc.o(.text.RCC_ClearFlag) for [Anonymous Symbol]
    hal_rcc.o(.ARM.exidx.text.RCC_ITConfig) refers to hal_rcc.o(.text.RCC_ITConfig) for [Anonymous Symbol]
    hal_rcc.o(.ARM.exidx.text.RCC_GetITStatus) refers to hal_rcc.o(.text.RCC_GetITStatus) for [Anonymous Symbol]
    hal_rcc.o(.ARM.exidx.text.RCC_ClearITPendingBit) refers to hal_rcc.o(.text.RCC_ClearITPendingBit) for [Anonymous Symbol]
    hal_rcc.o(.ARM.exidx.text.exRCC_APB1PeriphReset) refers to hal_rcc.o(.text.exRCC_APB1PeriphReset) for [Anonymous Symbol]
    hal_rcc.o(.ARM.exidx.text.exRCC_BackupReset) refers to hal_rcc.o(.text.exRCC_BackupReset) for [Anonymous Symbol]
    hal_rcc.o(.ARM.exidx.text.exRCC_APB2PeriphReset) refers to hal_rcc.o(.text.exRCC_APB2PeriphReset) for [Anonymous Symbol]
    hal_rcc.o(.ARM.exidx.text.exRCC_SystickDisable) refers to hal_rcc.o(.text.exRCC_SystickDisable) for [Anonymous Symbol]
    hal_rcc.o(.text.exRCC_SystickEnable) refers to aeabi_sdivfast.o(.text_divfast) for __aeabi_uidiv
    hal_rcc.o(.text.exRCC_SystickEnable) refers to hal_rcc.o(.data.tbPresc) for tbPresc
    hal_rcc.o(.ARM.exidx.text.exRCC_SystickEnable) refers to hal_rcc.o(.text.exRCC_SystickEnable) for [Anonymous Symbol]
    hal_spi.o(.text.SPI_DeInit) refers to hal_rcc.o(.text.RCC_APB1PeriphResetCmd) for RCC_APB1PeriphResetCmd
    hal_spi.o(.text.SPI_DeInit) refers to hal_rcc.o(.text.RCC_APB2PeriphResetCmd) for RCC_APB2PeriphResetCmd
    hal_spi.o(.ARM.exidx.text.SPI_DeInit) refers to hal_spi.o(.text.SPI_DeInit) for [Anonymous Symbol]
    hal_spi.o(.ARM.exidx.text.SPI_Init) refers to hal_spi.o(.text.SPI_Init) for [Anonymous Symbol]
    hal_spi.o(.ARM.exidx.text.SPI_StructInit) refers to hal_spi.o(.text.SPI_StructInit) for [Anonymous Symbol]
    hal_spi.o(.ARM.exidx.text.SPI_Cmd) refers to hal_spi.o(.text.SPI_Cmd) for [Anonymous Symbol]
    hal_spi.o(.ARM.exidx.text.SPI_ITConfig) refers to hal_spi.o(.text.SPI_ITConfig) for [Anonymous Symbol]
    hal_spi.o(.ARM.exidx.text.SPI_DMACmd) refers to hal_spi.o(.text.SPI_DMACmd) for [Anonymous Symbol]
    hal_spi.o(.ARM.exidx.text.SPI_FifoTrigger) refers to hal_spi.o(.text.SPI_FifoTrigger) for [Anonymous Symbol]
    hal_spi.o(.ARM.exidx.text.SPI_SendData) refers to hal_spi.o(.text.SPI_SendData) for [Anonymous Symbol]
    hal_spi.o(.ARM.exidx.text.SPI_ReceiveData) refers to hal_spi.o(.text.SPI_ReceiveData) for [Anonymous Symbol]
    hal_spi.o(.ARM.exidx.text.SPI_CSInternalSelected) refers to hal_spi.o(.text.SPI_CSInternalSelected) for [Anonymous Symbol]
    hal_spi.o(.ARM.exidx.text.SPI_NSSInternalSoftwareConfig) refers to hal_spi.o(.text.SPI_NSSInternalSoftwareConfig) for [Anonymous Symbol]
    hal_spi.o(.ARM.exidx.text.SPI_DataSizeConfig) refers to hal_spi.o(.text.SPI_DataSizeConfig) for [Anonymous Symbol]
    hal_spi.o(.ARM.exidx.text.SPI_DataSizeTypeConfig) refers to hal_spi.o(.text.SPI_DataSizeTypeConfig) for [Anonymous Symbol]
    hal_spi.o(.ARM.exidx.text.SPI_BiDirectionalLineConfig) refers to hal_spi.o(.text.SPI_BiDirectionalLineConfig) for [Anonymous Symbol]
    hal_spi.o(.ARM.exidx.text.SPI_GetFlagStatus) refers to hal_spi.o(.text.SPI_GetFlagStatus) for [Anonymous Symbol]
    hal_spi.o(.ARM.exidx.text.SPI_GetITStatus) refers to hal_spi.o(.text.SPI_GetITStatus) for [Anonymous Symbol]
    hal_spi.o(.ARM.exidx.text.SPI_ClearITPendingBit) refers to hal_spi.o(.text.SPI_ClearITPendingBit) for [Anonymous Symbol]
    hal_spi.o(.ARM.exidx.text.SPI_RxBytes) refers to hal_spi.o(.text.SPI_RxBytes) for [Anonymous Symbol]
    hal_spi.o(.ARM.exidx.text.SPI_SlaveAdjust) refers to hal_spi.o(.text.SPI_SlaveAdjust) for [Anonymous Symbol]
    hal_spi.o(.ARM.exidx.text.exSPI_ITCmd) refers to hal_spi.o(.text.exSPI_ITCmd) for [Anonymous Symbol]
    hal_spi.o(.ARM.exidx.text.exSPI_ITConfig) refers to hal_spi.o(.text.exSPI_ITConfig) for [Anonymous Symbol]
    hal_spi.o(.ARM.exidx.text.exSPI_DMACmd) refers to hal_spi.o(.text.exSPI_DMACmd) for [Anonymous Symbol]
    hal_spi.o(.ARM.exidx.text.exSPI_CSInternalSelected) refers to hal_spi.o(.text.exSPI_CSInternalSelected) for [Anonymous Symbol]
    hal_spi.o(.ARM.exidx.text.exSPI_DataEdgeAdjust) refers to hal_spi.o(.text.exSPI_DataEdgeAdjust) for [Anonymous Symbol]
    hal_tim.o(.text.TIM_DeInit) refers to hal_rcc.o(.text.exRCC_APB2PeriphReset) for exRCC_APB2PeriphReset
    hal_tim.o(.text.TIM_DeInit) refers to hal_rcc.o(.text.exRCC_APB1PeriphReset) for exRCC_APB1PeriphReset
    hal_tim.o(.ARM.exidx.text.TIM_DeInit) refers to hal_tim.o(.text.TIM_DeInit) for [Anonymous Symbol]
    hal_tim.o(.ARM.exidx.text.TIM_TimeBaseInit) refers to hal_tim.o(.text.TIM_TimeBaseInit) for [Anonymous Symbol]
    hal_tim.o(.ARM.exidx.text.TIM_OC1Init) refers to hal_tim.o(.text.TIM_OC1Init) for [Anonymous Symbol]
    hal_tim.o(.ARM.exidx.text.TIM_OC2Init) refers to hal_tim.o(.text.TIM_OC2Init) for [Anonymous Symbol]
    hal_tim.o(.ARM.exidx.text.TIM_OC3Init) refers to hal_tim.o(.text.TIM_OC3Init) for [Anonymous Symbol]
    hal_tim.o(.ARM.exidx.text.TIM_OC4Init) refers to hal_tim.o(.text.TIM_OC4Init) for [Anonymous Symbol]
    hal_tim.o(.ARM.exidx.text.TIM_ICInit) refers to hal_tim.o(.text.TIM_ICInit) for [Anonymous Symbol]
    hal_tim.o(.ARM.exidx.text.TIM_SetIC1Prescaler) refers to hal_tim.o(.text.TIM_SetIC1Prescaler) for [Anonymous Symbol]
    hal_tim.o(.ARM.exidx.text.TIM_SetIC2Prescaler) refers to hal_tim.o(.text.TIM_SetIC2Prescaler) for [Anonymous Symbol]
    hal_tim.o(.ARM.exidx.text.TIM_SetIC3Prescaler) refers to hal_tim.o(.text.TIM_SetIC3Prescaler) for [Anonymous Symbol]
    hal_tim.o(.ARM.exidx.text.TIM_SetIC4Prescaler) refers to hal_tim.o(.text.TIM_SetIC4Prescaler) for [Anonymous Symbol]
    hal_tim.o(.ARM.exidx.text.TIM_PWMIConfig) refers to hal_tim.o(.text.TIM_PWMIConfig) for [Anonymous Symbol]
    hal_tim.o(.ARM.exidx.text.TIM_BDTRConfig) refers to hal_tim.o(.text.TIM_BDTRConfig) for [Anonymous Symbol]
    hal_tim.o(.ARM.exidx.text.TIM_TimeBaseStructInit) refers to hal_tim.o(.text.TIM_TimeBaseStructInit) for [Anonymous Symbol]
    hal_tim.o(.ARM.exidx.text.TIM_OCStructInit) refers to hal_tim.o(.text.TIM_OCStructInit) for [Anonymous Symbol]
    hal_tim.o(.ARM.exidx.text.TIM_ICStructInit) refers to hal_tim.o(.text.TIM_ICStructInit) for [Anonymous Symbol]
    hal_tim.o(.ARM.exidx.text.TIM_BDTRStructInit) refers to hal_tim.o(.text.TIM_BDTRStructInit) for [Anonymous Symbol]
    hal_tim.o(.ARM.exidx.text.TIM_Cmd) refers to hal_tim.o(.text.TIM_Cmd) for [Anonymous Symbol]
    hal_tim.o(.ARM.exidx.text.TIM_CtrlPWMOutputs) refers to hal_tim.o(.text.TIM_CtrlPWMOutputs) for [Anonymous Symbol]
    hal_tim.o(.ARM.exidx.text.TIM_ITConfig) refers to hal_tim.o(.text.TIM_ITConfig) for [Anonymous Symbol]
    hal_tim.o(.ARM.exidx.text.TIM_GenerateEvent) refers to hal_tim.o(.text.TIM_GenerateEvent) for [Anonymous Symbol]
    hal_tim.o(.ARM.exidx.text.TIM_DMAConfig) refers to hal_tim.o(.text.TIM_DMAConfig) for [Anonymous Symbol]
    hal_tim.o(.ARM.exidx.text.TIM_DMACmd) refers to hal_tim.o(.text.TIM_DMACmd) for [Anonymous Symbol]
    hal_tim.o(.ARM.exidx.text.TIM_InternalClockConfig) refers to hal_tim.o(.text.TIM_InternalClockConfig) for [Anonymous Symbol]
    hal_tim.o(.ARM.exidx.text.TIM_ITRxExternalClockConfig) refers to hal_tim.o(.text.TIM_ITRxExternalClockConfig) for [Anonymous Symbol]
    hal_tim.o(.ARM.exidx.text.TIM_SelectInputTrigger) refers to hal_tim.o(.text.TIM_SelectInputTrigger) for [Anonymous Symbol]
    hal_tim.o(.ARM.exidx.text.TIM_TIxExternalClockConfig) refers to hal_tim.o(.text.TIM_TIxExternalClockConfig) for [Anonymous Symbol]
    hal_tim.o(.ARM.exidx.text.TIM_ETRConfig) refers to hal_tim.o(.text.TIM_ETRConfig) for [Anonymous Symbol]
    hal_tim.o(.ARM.exidx.text.TIM_ETRClockMode1Config) refers to hal_tim.o(.text.TIM_ETRClockMode1Config) for [Anonymous Symbol]
    hal_tim.o(.ARM.exidx.text.TIM_ETRClockMode2Config) refers to hal_tim.o(.text.TIM_ETRClockMode2Config) for [Anonymous Symbol]
    hal_tim.o(.ARM.exidx.text.TIM_PrescalerConfig) refers to hal_tim.o(.text.TIM_PrescalerConfig) for [Anonymous Symbol]
    hal_tim.o(.ARM.exidx.text.TIM_CounterModeConfig) refers to hal_tim.o(.text.TIM_CounterModeConfig) for [Anonymous Symbol]
    hal_tim.o(.ARM.exidx.text.TIM_EncoderInterfaceConfig) refers to hal_tim.o(.text.TIM_EncoderInterfaceConfig) for [Anonymous Symbol]
    hal_tim.o(.ARM.exidx.text.TIM_ForcedOC1Config) refers to hal_tim.o(.text.TIM_ForcedOC1Config) for [Anonymous Symbol]
    hal_tim.o(.ARM.exidx.text.TIM_ForcedOC2Config) refers to hal_tim.o(.text.TIM_ForcedOC2Config) for [Anonymous Symbol]
    hal_tim.o(.ARM.exidx.text.TIM_ForcedOC3Config) refers to hal_tim.o(.text.TIM_ForcedOC3Config) for [Anonymous Symbol]
    hal_tim.o(.ARM.exidx.text.TIM_ForcedOC4Config) refers to hal_tim.o(.text.TIM_ForcedOC4Config) for [Anonymous Symbol]
    hal_tim.o(.ARM.exidx.text.TIM_ARRPreloadConfig) refers to hal_tim.o(.text.TIM_ARRPreloadConfig) for [Anonymous Symbol]
    hal_tim.o(.ARM.exidx.text.TIM_SelectCOM) refers to hal_tim.o(.text.TIM_SelectCOM) for [Anonymous Symbol]
    hal_tim.o(.ARM.exidx.text.TIM_SelectCCDMA) refers to hal_tim.o(.text.TIM_SelectCCDMA) for [Anonymous Symbol]
    hal_tim.o(.ARM.exidx.text.TIM_CCPreloadControl) refers to hal_tim.o(.text.TIM_CCPreloadControl) for [Anonymous Symbol]
    hal_tim.o(.ARM.exidx.text.TIM_OC1PreloadConfig) refers to hal_tim.o(.text.TIM_OC1PreloadConfig) for [Anonymous Symbol]
    hal_tim.o(.ARM.exidx.text.TIM_OC2PreloadConfig) refers to hal_tim.o(.text.TIM_OC2PreloadConfig) for [Anonymous Symbol]
    hal_tim.o(.ARM.exidx.text.TIM_OC3PreloadConfig) refers to hal_tim.o(.text.TIM_OC3PreloadConfig) for [Anonymous Symbol]
    hal_tim.o(.ARM.exidx.text.TIM_OC4PreloadConfig) refers to hal_tim.o(.text.TIM_OC4PreloadConfig) for [Anonymous Symbol]
    hal_tim.o(.ARM.exidx.text.TIM_OC1FastConfig) refers to hal_tim.o(.text.TIM_OC1FastConfig) for [Anonymous Symbol]
    hal_tim.o(.ARM.exidx.text.TIM_OC2FastConfig) refers to hal_tim.o(.text.TIM_OC2FastConfig) for [Anonymous Symbol]
    hal_tim.o(.ARM.exidx.text.TIM_OC3FastConfig) refers to hal_tim.o(.text.TIM_OC3FastConfig) for [Anonymous Symbol]
    hal_tim.o(.ARM.exidx.text.TIM_OC4FastConfig) refers to hal_tim.o(.text.TIM_OC4FastConfig) for [Anonymous Symbol]
    hal_tim.o(.ARM.exidx.text.TIM_ClearOC1Ref) refers to hal_tim.o(.text.TIM_ClearOC1Ref) for [Anonymous Symbol]
    hal_tim.o(.ARM.exidx.text.TIM_ClearOC2Ref) refers to hal_tim.o(.text.TIM_ClearOC2Ref) for [Anonymous Symbol]
    hal_tim.o(.ARM.exidx.text.TIM_ClearOC3Ref) refers to hal_tim.o(.text.TIM_ClearOC3Ref) for [Anonymous Symbol]
    hal_tim.o(.ARM.exidx.text.TIM_ClearOC4Ref) refers to hal_tim.o(.text.TIM_ClearOC4Ref) for [Anonymous Symbol]
    hal_tim.o(.ARM.exidx.text.TIM_OC1PolarityConfig) refers to hal_tim.o(.text.TIM_OC1PolarityConfig) for [Anonymous Symbol]
    hal_tim.o(.ARM.exidx.text.TIM_OC1NPolarityConfig) refers to hal_tim.o(.text.TIM_OC1NPolarityConfig) for [Anonymous Symbol]
    hal_tim.o(.ARM.exidx.text.TIM_OC2PolarityConfig) refers to hal_tim.o(.text.TIM_OC2PolarityConfig) for [Anonymous Symbol]
    hal_tim.o(.ARM.exidx.text.TIM_OC2NPolarityConfig) refers to hal_tim.o(.text.TIM_OC2NPolarityConfig) for [Anonymous Symbol]
    hal_tim.o(.ARM.exidx.text.TIM_OC3PolarityConfig) refers to hal_tim.o(.text.TIM_OC3PolarityConfig) for [Anonymous Symbol]
    hal_tim.o(.ARM.exidx.text.TIM_OC3NPolarityConfig) refers to hal_tim.o(.text.TIM_OC3NPolarityConfig) for [Anonymous Symbol]
    hal_tim.o(.ARM.exidx.text.TIM_OC4PolarityConfig) refers to hal_tim.o(.text.TIM_OC4PolarityConfig) for [Anonymous Symbol]
    hal_tim.o(.ARM.exidx.text.TIM_CCxCmd) refers to hal_tim.o(.text.TIM_CCxCmd) for [Anonymous Symbol]
    hal_tim.o(.ARM.exidx.text.TIM_CCxNCmd) refers to hal_tim.o(.text.TIM_CCxNCmd) for [Anonymous Symbol]
    hal_tim.o(.ARM.exidx.text.TIM_SelectOCxM) refers to hal_tim.o(.text.TIM_SelectOCxM) for [Anonymous Symbol]
    hal_tim.o(.ARM.exidx.text.TIM_UpdateDisableConfig) refers to hal_tim.o(.text.TIM_UpdateDisableConfig) for [Anonymous Symbol]
    hal_tim.o(.ARM.exidx.text.TIM_UpdateRequestConfig) refers to hal_tim.o(.text.TIM_UpdateRequestConfig) for [Anonymous Symbol]
    hal_tim.o(.ARM.exidx.text.TIM_SelectHallSensor) refers to hal_tim.o(.text.TIM_SelectHallSensor) for [Anonymous Symbol]
    hal_tim.o(.ARM.exidx.text.TIM_SelectOnePulseMode) refers to hal_tim.o(.text.TIM_SelectOnePulseMode) for [Anonymous Symbol]
    hal_tim.o(.ARM.exidx.text.TIM_SelectOutputTrigger) refers to hal_tim.o(.text.TIM_SelectOutputTrigger) for [Anonymous Symbol]
    hal_tim.o(.ARM.exidx.text.TIM_SelectSlaveMode) refers to hal_tim.o(.text.TIM_SelectSlaveMode) for [Anonymous Symbol]
    hal_tim.o(.ARM.exidx.text.TIM_SelectMasterSlaveMode) refers to hal_tim.o(.text.TIM_SelectMasterSlaveMode) for [Anonymous Symbol]
    hal_tim.o(.ARM.exidx.text.TIM_SetAutoreload) refers to hal_tim.o(.text.TIM_SetAutoreload) for [Anonymous Symbol]
    hal_tim.o(.ARM.exidx.text.TIM_SetClockDivision) refers to hal_tim.o(.text.TIM_SetClockDivision) for [Anonymous Symbol]
    hal_tim.o(.ARM.exidx.text.TIM_SetCounter) refers to hal_tim.o(.text.TIM_SetCounter) for [Anonymous Symbol]
    hal_tim.o(.ARM.exidx.text.TIM_SetCompare1) refers to hal_tim.o(.text.TIM_SetCompare1) for [Anonymous Symbol]
    hal_tim.o(.ARM.exidx.text.TIM_SetCompare2) refers to hal_tim.o(.text.TIM_SetCompare2) for [Anonymous Symbol]
    hal_tim.o(.ARM.exidx.text.TIM_SetCompare3) refers to hal_tim.o(.text.TIM_SetCompare3) for [Anonymous Symbol]
    hal_tim.o(.ARM.exidx.text.TIM_SetCompare4) refers to hal_tim.o(.text.TIM_SetCompare4) for [Anonymous Symbol]
    hal_tim.o(.ARM.exidx.text.TIM_GetCapture1) refers to hal_tim.o(.text.TIM_GetCapture1) for [Anonymous Symbol]
    hal_tim.o(.ARM.exidx.text.TIM_GetCapture2) refers to hal_tim.o(.text.TIM_GetCapture2) for [Anonymous Symbol]
    hal_tim.o(.ARM.exidx.text.TIM_GetCapture3) refers to hal_tim.o(.text.TIM_GetCapture3) for [Anonymous Symbol]
    hal_tim.o(.ARM.exidx.text.TIM_GetCapture4) refers to hal_tim.o(.text.TIM_GetCapture4) for [Anonymous Symbol]
    hal_tim.o(.ARM.exidx.text.TIM_GetCounter) refers to hal_tim.o(.text.TIM_GetCounter) for [Anonymous Symbol]
    hal_tim.o(.ARM.exidx.text.TIM_GetPrescaler) refers to hal_tim.o(.text.TIM_GetPrescaler) for [Anonymous Symbol]
    hal_tim.o(.ARM.exidx.text.TIM_GetFlagStatus) refers to hal_tim.o(.text.TIM_GetFlagStatus) for [Anonymous Symbol]
    hal_tim.o(.ARM.exidx.text.TIM_ClearFlag) refers to hal_tim.o(.text.TIM_ClearFlag) for [Anonymous Symbol]
    hal_tim.o(.ARM.exidx.text.TIM_GetITStatus) refers to hal_tim.o(.text.TIM_GetITStatus) for [Anonymous Symbol]
    hal_tim.o(.ARM.exidx.text.TIM_ClearITPendingBit) refers to hal_tim.o(.text.TIM_ClearITPendingBit) for [Anonymous Symbol]
    hal_tim.o(.ARM.exidx.text.exTIM_SetIC1Plority) refers to hal_tim.o(.text.exTIM_SetIC1Plority) for [Anonymous Symbol]
    hal_tim.o(.ARM.exidx.text.exTIM_SetIC2Plority) refers to hal_tim.o(.text.exTIM_SetIC2Plority) for [Anonymous Symbol]
    hal_tim.o(.ARM.exidx.text.exTIM_SetIC3Plority) refers to hal_tim.o(.text.exTIM_SetIC3Plority) for [Anonymous Symbol]
    hal_tim.o(.ARM.exidx.text.exTIM_SetIC4Plority) refers to hal_tim.o(.text.exTIM_SetIC4Plority) for [Anonymous Symbol]
    hal_tim.o(.ARM.exidx.text.exTIM_SetCompare5) refers to hal_tim.o(.text.exTIM_SetCompare5) for [Anonymous Symbol]
    hal_tim.o(.ARM.exidx.text.exTIM_GetCapture5) refers to hal_tim.o(.text.exTIM_GetCapture5) for [Anonymous Symbol]
    hal_tim.o(.ARM.exidx.text.exTIM_OC5Init) refers to hal_tim.o(.text.exTIM_OC5Init) for [Anonymous Symbol]
    hal_tim.o(.ARM.exidx.text.exTIM_OC5PreloadConfig) refers to hal_tim.o(.text.exTIM_OC5PreloadConfig) for [Anonymous Symbol]
    hal_tim.o(.ARM.exidx.text.exTIM_OC5PolarityConfig) refers to hal_tim.o(.text.exTIM_OC5PolarityConfig) for [Anonymous Symbol]
    hal_tim.o(.ARM.exidx.text.exTIM_OC5FastConfig) refers to hal_tim.o(.text.exTIM_OC5FastConfig) for [Anonymous Symbol]
    hal_tim.o(.ARM.exidx.text.exTIM_ClearOC5Ref) refers to hal_tim.o(.text.exTIM_ClearOC5Ref) for [Anonymous Symbol]
    hal_tim.o(.ARM.exidx.text.exTIM_DirectOutput) refers to hal_tim.o(.text.exTIM_DirectOutput) for [Anonymous Symbol]
    hal_uart.o(.text.UART_DeInit) refers to hal_rcc.o(.text.exRCC_APB1PeriphReset) for exRCC_APB1PeriphReset
    hal_uart.o(.text.UART_DeInit) refers to hal_rcc.o(.text.exRCC_APB2PeriphReset) for exRCC_APB2PeriphReset
    hal_uart.o(.ARM.exidx.text.UART_DeInit) refers to hal_uart.o(.text.UART_DeInit) for [Anonymous Symbol]
    hal_uart.o(.text.UART_Init) refers to hal_rcc.o(.text.RCC_GetPCLK1Freq) for RCC_GetPCLK1Freq
    hal_uart.o(.text.UART_Init) refers to hal_rcc.o(.text.RCC_GetPCLK2Freq) for RCC_GetPCLK2Freq
    hal_uart.o(.text.UART_Init) refers to aeabi_sdivfast.o(.text_divfast) for __aeabi_uidiv
    hal_uart.o(.ARM.exidx.text.UART_Init) refers to hal_uart.o(.text.UART_Init) for [Anonymous Symbol]
    hal_uart.o(.ARM.exidx.text.UART_StructInit) refers to hal_uart.o(.text.UART_StructInit) for [Anonymous Symbol]
    hal_uart.o(.ARM.exidx.text.UART_Cmd) refers to hal_uart.o(.text.UART_Cmd) for [Anonymous Symbol]
    hal_uart.o(.ARM.exidx.text.UART_ITConfig) refers to hal_uart.o(.text.UART_ITConfig) for [Anonymous Symbol]
    hal_uart.o(.ARM.exidx.text.UART_DMACmd) refers to hal_uart.o(.text.UART_DMACmd) for [Anonymous Symbol]
    hal_uart.o(.ARM.exidx.text.UART_SendData) refers to hal_uart.o(.text.UART_SendData) for [Anonymous Symbol]
    hal_uart.o(.ARM.exidx.text.UART_ReceiveData) refers to hal_uart.o(.text.UART_ReceiveData) for [Anonymous Symbol]
    hal_uart.o(.ARM.exidx.text.UART_GetFlagStatus) refers to hal_uart.o(.text.UART_GetFlagStatus) for [Anonymous Symbol]
    hal_uart.o(.ARM.exidx.text.UART_GetITStatus) refers to hal_uart.o(.text.UART_GetITStatus) for [Anonymous Symbol]
    hal_uart.o(.ARM.exidx.text.UART_ClearITPendingBit) refers to hal_uart.o(.text.UART_ClearITPendingBit) for [Anonymous Symbol]
    hal_uart.o(.ARM.exidx.text.UART_WakeUpConfig) refers to hal_uart.o(.text.UART_WakeUpConfig) for [Anonymous Symbol]
    hal_uart.o(.ARM.exidx.text.UART_ReceiverWakeUpCmd) refers to hal_uart.o(.text.UART_ReceiverWakeUpCmd) for [Anonymous Symbol]
    hal_uart.o(.ARM.exidx.text.UART_SetRXAddress) refers to hal_uart.o(.text.UART_SetRXAddress) for [Anonymous Symbol]
    hal_uart.o(.ARM.exidx.text.UART_SetRXMASK) refers to hal_uart.o(.text.UART_SetRXMASK) for [Anonymous Symbol]
    hal_uart.o(.ARM.exidx.text.UART_Enable9bit) refers to hal_uart.o(.text.UART_Enable9bit) for [Anonymous Symbol]
    hal_uart.o(.ARM.exidx.text.UART_Set9bitLevel) refers to hal_uart.o(.text.UART_Set9bitLevel) for [Anonymous Symbol]
    hal_uart.o(.ARM.exidx.text.UART_Set9bitPolarity) refers to hal_uart.o(.text.UART_Set9bitPolarity) for [Anonymous Symbol]
    hal_uart.o(.ARM.exidx.text.UART_Set9bitAutomaticToggle) refers to hal_uart.o(.text.UART_Set9bitAutomaticToggle) for [Anonymous Symbol]
    hal_uart.o(.ARM.exidx.text.UART_HalfDuplexCmd) refers to hal_uart.o(.text.UART_HalfDuplexCmd) for [Anonymous Symbol]
    hal_uart.o(.ARM.exidx.text.UART_SetGuardTime) refers to hal_uart.o(.text.UART_SetGuardTime) for [Anonymous Symbol]
    hal_uart.o(.ARM.exidx.text.UART_SmartCardCmd) refers to hal_uart.o(.text.UART_SmartCardCmd) for [Anonymous Symbol]
    hal_uart.o(.ARM.exidx.text.UART_SmartCardNACKCmd) refers to hal_uart.o(.text.UART_SmartCardNACKCmd) for [Anonymous Symbol]
    hal_uart.o(.ARM.exidx.text.UART_SendBreak) refers to hal_uart.o(.text.UART_SendBreak) for [Anonymous Symbol]
    hal_uid.o(.text.GetChipUID) refers to hal_uid.o(.bss.device_id_data) for device_id_data
    hal_uid.o(.ARM.exidx.text.GetChipUID) refers to hal_uid.o(.text.GetChipUID) for [Anonymous Symbol]
    hal_ver.o(.ARM.exidx.text.Get_MM32LibVersion) refers to hal_ver.o(.text.Get_MM32LibVersion) for [Anonymous Symbol]
    hal_ver.o(.ARM.exidx.text.Get_MM32LibReleaseDate) refers to hal_ver.o(.text.Get_MM32LibReleaseDate) for [Anonymous Symbol]
    hal_ver.o(.ARM.exidx.text.Get_ChipsetREVID) refers to hal_ver.o(.text.Get_ChipsetREVID) for [Anonymous Symbol]
    hal_ver.o(.ARM.exidx.text.Get_ChipsetDEVID) refers to hal_ver.o(.text.Get_ChipsetDEVID) for [Anonymous Symbol]
    hal_ver.o(.ARM.exidx.text.Get_ChipsetUIDw0) refers to hal_ver.o(.text.Get_ChipsetUIDw0) for [Anonymous Symbol]
    hal_ver.o(.ARM.exidx.text.Get_ChipsetUIDw1) refers to hal_ver.o(.text.Get_ChipsetUIDw1) for [Anonymous Symbol]
    hal_ver.o(.ARM.exidx.text.Get_ChipsetUIDw2) refers to hal_ver.o(.text.Get_ChipsetUIDw2) for [Anonymous Symbol]
    hal_wwdg.o(.text.WWDG_DeInit) refers to hal_rcc.o(.text.exRCC_APB1PeriphReset) for exRCC_APB1PeriphReset
    hal_wwdg.o(.ARM.exidx.text.WWDG_DeInit) refers to hal_wwdg.o(.text.WWDG_DeInit) for [Anonymous Symbol]
    hal_wwdg.o(.ARM.exidx.text.WWDG_SetPrescaler) refers to hal_wwdg.o(.text.WWDG_SetPrescaler) for [Anonymous Symbol]
    hal_wwdg.o(.ARM.exidx.text.WWDG_SetWindowValue) refers to hal_wwdg.o(.text.WWDG_SetWindowValue) for [Anonymous Symbol]
    hal_wwdg.o(.ARM.exidx.text.WWDG_EnableIT) refers to hal_wwdg.o(.text.WWDG_EnableIT) for [Anonymous Symbol]
    hal_wwdg.o(.ARM.exidx.text.WWDG_SetCounter) refers to hal_wwdg.o(.text.WWDG_SetCounter) for [Anonymous Symbol]
    hal_wwdg.o(.ARM.exidx.text.WWDG_GetCounter) refers to hal_wwdg.o(.text.WWDG_GetCounter) for [Anonymous Symbol]
    hal_wwdg.o(.ARM.exidx.text.WWDG_Enable) refers to hal_wwdg.o(.text.WWDG_Enable) for [Anonymous Symbol]
    hal_wwdg.o(.ARM.exidx.text.WWDG_GetFlagStatus) refers to hal_wwdg.o(.text.WWDG_GetFlagStatus) for [Anonymous Symbol]
    hal_wwdg.o(.ARM.exidx.text.WWDG_ClearFlag) refers to hal_wwdg.o(.text.WWDG_ClearFlag) for [Anonymous Symbol]
    startup_mm32spin06xx_s_keil.o(STACK) refers (Special) to heapauxi.o(.text) for __use_two_region_memory
    startup_mm32spin06xx_s_keil.o(HEAP) refers (Special) to heapauxi.o(.text) for __use_two_region_memory
    startup_mm32spin06xx_s_keil.o(RESET) refers (Special) to heapauxi.o(.text) for __use_two_region_memory
    startup_mm32spin06xx_s_keil.o(RESET) refers to startup_mm32spin06xx_s_keil.o(STACK) for __initial_sp
    startup_mm32spin06xx_s_keil.o(RESET) refers to startup_mm32spin06xx_s_keil.o(.text) for Reset_Handler
    startup_mm32spin06xx_s_keil.o(RESET) refers to delay.o(.text.SysTick_Handler) for SysTick_Handler
    startup_mm32spin06xx_s_keil.o(RESET) refers to interrupt.o(.text.DMA1_Channel2_3_IRQHandler) for DMA1_Channel2_3_IRQHandler
    startup_mm32spin06xx_s_keil.o(RESET) refers to interrupt.o(.text.ADC1_COMP_IRQHandler) for ADC1_COMP_IRQHandler
    startup_mm32spin06xx_s_keil.o(RESET) refers to interrupt.o(.text.TIM1_BRK_UP_TRG_COM_IRQHandler) for TIM1_BRK_UP_TRG_COM_IRQHandler
    startup_mm32spin06xx_s_keil.o(RESET) refers to interrupt.o(.text.TIM2_IRQHandler) for TIM2_IRQHandler
    startup_mm32spin06xx_s_keil.o(RESET) refers to interrupt.o(.text.TIM3_IRQHandler) for TIM3_IRQHandler
    startup_mm32spin06xx_s_keil.o(.text) refers (Special) to heapauxi.o(.text) for __use_two_region_memory
    startup_mm32spin06xx_s_keil.o(.text) refers to startup_mm32spin06xx_s_keil.o(STACK) for __initial_sp
    startup_mm32spin06xx_s_keil.o(.text) refers to system_mm32spin06xx_s.o(.text.SystemInit) for SystemInit
    startup_mm32spin06xx_s_keil.o(.text) refers to __main.o(!!!main) for __main
    startup_mm32spin06xx_s_keil.o(.text) refers to startup_mm32spin06xx_s_keil.o(HEAP) for Heap_Mem
    system_mm32spin06xx_s.o(.text.SystemInit) refers to aeabi_sdivfast.o(.text_divfast) for __aeabi_uidiv
    system_mm32spin06xx_s.o(.text.SystemInit) refers to system_mm32spin06xx_s.o(.data.SystemCoreClock) for SystemCoreClock
    system_mm32spin06xx_s.o(.ARM.exidx.text.SystemInit) refers to system_mm32spin06xx_s.o(.text.SystemInit) for [Anonymous Symbol]
    system_mm32spin06xx_s.o(.text.AutoCalPllFactor) refers to aeabi_sdivfast.o(.text_divfast) for __aeabi_uidiv
    system_mm32spin06xx_s.o(.ARM.exidx.text.AutoCalPllFactor) refers to system_mm32spin06xx_s.o(.text.AutoCalPllFactor) for [Anonymous Symbol]
    __2sprintf.o(.text) refers to _printf_char_common.o(.text) for _printf_char_common
    __2sprintf.o(.text) refers to _sputc.o(.text) for _sputc
    noretval__2sprintf.o(.text) refers to _printf_char_common.o(.text) for _printf_char_common
    noretval__2sprintf.o(.text) refers to _sputc.o(.text) for _sputc
    __printf.o(.text) refers to _printf_percent.o(.ARM.Collect$$_printf_percent$$00000000) for _printf_percent
    __printf_flags.o(.text) refers to _printf_percent.o(.ARM.Collect$$_printf_percent$$00000000) for _printf_percent
    __printf_flags.o(.text) refers to __printf_flags.o(.constdata) for .constdata
    __printf_ss.o(.text) refers to _printf_percent.o(.ARM.Collect$$_printf_percent$$00000000) for _printf_percent
    __printf_flags_ss.o(.text) refers to _printf_percent.o(.ARM.Collect$$_printf_percent$$00000000) for _printf_percent
    __printf_flags_ss.o(.text) refers to __printf_flags_ss.o(.constdata) for .constdata
    __printf_wp.o(.text) refers to __printf_wp.o(i._is_digit) for _is_digit
    __printf_wp.o(.text) refers to _printf_percent.o(.ARM.Collect$$_printf_percent$$00000000) for _printf_percent
    __printf_flags_wp.o(.text) refers to __printf_wp.o(i._is_digit) for _is_digit
    __printf_flags_wp.o(.text) refers to _printf_percent.o(.ARM.Collect$$_printf_percent$$00000000) for _printf_percent
    __printf_flags_wp.o(.text) refers to __printf_flags_wp.o(.constdata) for .constdata
    __printf_ss_wp.o(.text) refers to __printf_wp.o(i._is_digit) for _is_digit
    __printf_ss_wp.o(.text) refers to _printf_percent.o(.ARM.Collect$$_printf_percent$$00000000) for _printf_percent
    __printf_flags_ss_wp.o(.text) refers to __printf_wp.o(i._is_digit) for _is_digit
    __printf_flags_ss_wp.o(.text) refers to _printf_percent.o(.ARM.Collect$$_printf_percent$$00000000) for _printf_percent
    __printf_flags_ss_wp.o(.text) refers to __printf_flags_ss_wp.o(.constdata) for .constdata
    _printf_f.o(.ARM.Collect$$_printf_percent$$00000003) refers (Weak) to printf1.o(x$fpl$printf1) for _printf_fp_dec
    _printf_percent.o(.ARM.Collect$$_printf_percent$$00000000) refers (Special) to _printf_percent_end.o(.ARM.Collect$$_printf_percent$$00000017) for _printf_percent_end
    aeabi_memset4.o(.text) refers to rt_memclr.o(.text) for _memset_w
    __main.o(!!!main) refers to __rtentry.o(.ARM.Collect$$rtentry$$00000000) for __rt_entry
    d2f.o(.text) refers (Special) to usenofp.o(x$fpl$usenofp) for __I$use$fp
    ddiv.o(.text) refers (Special) to usenofp.o(x$fpl$usenofp) for __I$use$fp
    ddiv.o(.text) refers to ddiv.o(.constdata) for .constdata
    ddiv.o(.constdata) refers (Special) to usenofp.o(x$fpl$usenofp) for __I$use$fp
    dfixi.o(.text) refers (Special) to usenofp.o(x$fpl$usenofp) for __I$use$fp
    dfixui.o(.text) refers (Special) to usenofp.o(x$fpl$usenofp) for __I$use$fp
    dflti.o(.text) refers (Special) to usenofp.o(x$fpl$usenofp) for __I$use$fp
    dmul.o(.text) refers (Special) to usenofp.o(x$fpl$usenofp) for __I$use$fp
    f2d.o(.text) refers (Special) to usenofp.o(x$fpl$usenofp) for __I$use$fp
    fcmp.o(i._feq) refers (Special) to usenofp.o(x$fpl$usenofp) for __I$use$fp
    fcmp.o(i._feq) refers to feqf.o(x$fpl$feqf) for _fcmpeq
    fcmp.o(i._fgeq) refers (Special) to usenofp.o(x$fpl$usenofp) for __I$use$fp
    fcmp.o(i._fgeq) refers to fgef.o(x$fpl$fgeqf) for _fcmpge
    fcmp.o(i._fgr) refers (Special) to usenofp.o(x$fpl$usenofp) for __I$use$fp
    fcmp.o(i._fgr) refers to fgef.o(x$fpl$fgeqf) for _fcmpge
    fcmp.o(i._fleq) refers (Special) to usenofp.o(x$fpl$usenofp) for __I$use$fp
    fcmp.o(i._fleq) refers to flef.o(x$fpl$fleqf) for _fcmple
    fcmp.o(i._fls) refers (Special) to usenofp.o(x$fpl$usenofp) for __I$use$fp
    fcmp.o(i._fls) refers to flef.o(x$fpl$fleqf) for _fcmple
    fcmp.o(i._fneq) refers (Special) to usenofp.o(x$fpl$usenofp) for __I$use$fp
    fcmp.o(i._fneq) refers to feqf.o(x$fpl$feqf) for _fcmpeq
    printf1.o(x$fpl$printf1) refers to _printf_fp_dec.o(.text) for _printf_fp_dec_real
    __rtentry.o(.ARM.Collect$$rtentry$$00000000) refers (Special) to __rtentry2.o(.ARM.Collect$$rtentry$$0000000A) for __rt_entry_li
    __rtentry.o(.ARM.Collect$$rtentry$$00000000) refers (Special) to __rtentry2.o(.ARM.Collect$$rtentry$$0000000D) for __rt_entry_main
    __rtentry.o(.ARM.Collect$$rtentry$$00000000) refers (Special) to __rtentry2.o(.ARM.Collect$$rtentry$$0000000C) for __rt_entry_postli_1
    __rtentry.o(.ARM.Collect$$rtentry$$00000000) refers (Special) to __rtentry2.o(.ARM.Collect$$rtentry$$00000009) for __rt_entry_postsh_1
    __rtentry.o(.ARM.Collect$$rtentry$$00000000) refers (Special) to __rtentry2.o(.ARM.Collect$$rtentry$$00000002) for __rt_entry_presh_1
    __rtentry.o(.ARM.Collect$$rtentry$$00000000) refers (Special) to __rtentry4.o(.ARM.Collect$$rtentry$$00000004) for __rt_entry_sh
    aeabi_idiv0_sigfpe.o(.text) refers to rt_div0.o(.text) for __rt_div0
    _printf_fp_dec.o(.text) refers (Special) to usenofp.o(x$fpl$usenofp) for __I$use$fp
    _printf_fp_dec.o(.text) refers (Special) to lc_numeric_c.o(locale$$code) for _get_lc_numeric
    _printf_fp_dec.o(.text) refers to bigflt0.o(.text) for _btod_etento
    _printf_fp_dec.o(.text) refers to btod.o(.text) for _btod_d2e
    _printf_fp_dec.o(.text) refers to lludiv10.o(.text) for _ll_udiv10
    _printf_fp_dec.o(.text) refers to fpclassify.o(i.__ARM_fpclassify) for __ARM_fpclassify
    _printf_fp_dec.o(.text) refers to _printf_fp_infnan.o(.text) for _printf_fp_infnan
    _printf_fp_dec.o(.text) refers to rtudiv10.o(.text) for __rt_udiv10
    _printf_fp_dec.o(.text) refers to rt_locale_intlibspace.o(.text) for __rt_locale
    _printf_fp_dec_accurate.o(.text) refers (Special) to usenofp.o(x$fpl$usenofp) for __I$use$fp
    _printf_fp_dec_accurate.o(.text) refers (Special) to lc_numeric_c.o(locale$$code) for _get_lc_numeric
    _printf_fp_dec_accurate.o(.text) refers to btod_accurate.o(.text) for _btod_main
    _printf_fp_dec_accurate.o(.text) refers to fpclassify.o(i.__ARM_fpclassify) for __ARM_fpclassify
    _printf_fp_dec_accurate.o(.text) refers to _printf_fp_infnan.o(.text) for _printf_fp_infnan
    _printf_fp_dec_accurate.o(.text) refers to rtudiv10.o(.text) for __rt_udiv10
    _printf_fp_dec_accurate.o(.text) refers to rt_locale_intlibspace.o(.text) for __rt_locale
    _printf_char_common.o(.text) refers to __printf.o(.text) for __printf
    feqf.o(x$fpl$feqf) refers (Special) to usenofp.o(x$fpl$usenofp) for __I$use$fp
    feqf.o(x$fpl$feqf) refers to fcmpin.o(.text) for __fpl_fcmp_InfNaN
    fgef.o(x$fpl$fgeqf) refers (Special) to usenofp.o(x$fpl$usenofp) for __I$use$fp
    fgef.o(x$fpl$fgeqf) refers to fcmpin.o(.text) for __fpl_fcmp_InfNaN
    flef.o(x$fpl$fleqf) refers (Special) to usenofp.o(x$fpl$usenofp) for __I$use$fp
    flef.o(x$fpl$fleqf) refers to fcmpin.o(.text) for __fpl_fcmp_InfNaN
    __rtentry2.o(.ARM.Collect$$rtentry$$00000008) refers to boardinit2.o(.text) for _platform_post_stackheap_init
    __rtentry2.o(.ARM.Collect$$rtentry$$0000000A) refers to libinit.o(.ARM.Collect$$libinit$$00000000) for __rt_lib_init
    __rtentry2.o(.ARM.Collect$$rtentry$$0000000B) refers to boardinit3.o(.text) for _platform_post_lib_init
    __rtentry2.o(.ARM.Collect$$rtentry$$0000000D) refers to main.o(.text.main) for main
    __rtentry2.o(.ARM.Collect$$rtentry$$0000000D) refers to exit.o(.text) for exit
    __rtentry2.o(.ARM.exidx) refers to __rtentry2.o(.ARM.Collect$$rtentry$$00000001) for .ARM.Collect$$rtentry$$00000001
    __rtentry2.o(.ARM.exidx) refers to __rtentry2.o(.ARM.Collect$$rtentry$$00000008) for .ARM.Collect$$rtentry$$00000008
    __rtentry2.o(.ARM.exidx) refers to __rtentry2.o(.ARM.Collect$$rtentry$$0000000A) for .ARM.Collect$$rtentry$$0000000A
    __rtentry2.o(.ARM.exidx) refers to __rtentry2.o(.ARM.Collect$$rtentry$$0000000B) for .ARM.Collect$$rtentry$$0000000B
    __rtentry2.o(.ARM.exidx) refers to __rtentry2.o(.ARM.Collect$$rtentry$$0000000D) for .ARM.Collect$$rtentry$$0000000D
    __rtentry4.o(.ARM.Collect$$rtentry$$00000004) refers to sys_stackheap_outer.o(.text) for __user_setup_stackheap
    __rtentry4.o(.ARM.exidx) refers to __rtentry4.o(.ARM.Collect$$rtentry$$00000004) for .ARM.Collect$$rtentry$$00000004
    rt_div0.o(.text) refers to defsig_fpe_outer.o(.text) for __rt_SIGFPE
    rt_locale.o(.text) refers to rt_locale.o(.bss) for __rt_locale_data
    rt_locale_intlibspace.o(.text) refers to libspace.o(.bss) for __libspace_start
    bigflt0.o(.text) refers (Special) to usenofp.o(x$fpl$usenofp) for __I$use$fp
    bigflt0.o(.text) refers to aeabi_sdivfast.o(.text) for __aeabi_idivmod
    bigflt0.o(.text) refers to btod.o(.text) for _btod_emul
    bigflt0.o(.text) refers to bigflt0.o(.constdata) for .constdata
    bigflt0.o(.constdata) refers (Special) to usenofp.o(x$fpl$usenofp) for __I$use$fp
    btod.o(.text) refers to btod.o(i.__ARM_common_ll_muluu) for __ARM_common_ll_muluu
    btod_accurate.o(.text) refers to btod_accurate_common.o(.text) for _btod_common
    lc_numeric_c.o(locale$$data) refers (Special) to libinit2.o(.ARM.Collect$$libinit$$00000018) for __rt_lib_init_lc_numeric_2
    lc_numeric_c.o(locale$$code) refers (Special) to libinit2.o(.ARM.Collect$$libinit$$00000018) for __rt_lib_init_lc_numeric_2
    lc_numeric_c.o(locale$$code) refers to strcmpv6m.o(.text) for strcmp
    lc_numeric_c.o(locale$$code) refers to lc_numeric_c.o(locale$$data) for __lcnum_c_name
    fcmpin.o(.text) refers (Special) to usenofp.o(x$fpl$usenofp) for __I$use$fp
    fcmpin.o(.text) refers to cmpret.o(.text) for __fpl_cmpreturn
    fcmpin.o(.text) refers to fnan2.o(.text) for __fpl_fcheck_NaN2
    ieee_status.o(.text) refers (Special) to usenofp.o(x$fpl$usenofp) for __I$use$fp
    fpclassify.o(i.__ARM_fpclassify) refers (Special) to usenofp.o(x$fpl$usenofp) for __I$use$fp
    libspace.o(.text) refers to libspace.o(.bss) for __libspace_start
    sys_stackheap_outer.o(.text) refers to libspace.o(.text) for __user_perproc_libspace
    sys_stackheap_outer.o(.text) refers to startup_mm32spin06xx_s_keil.o(.text) for __user_initial_stackheap
    sys_stackheap_outer.o(__vectab_stack_and_reset_area) refers to tempstk.o(.text) for __temporary_stack_top
    sys_stackheap_outer.o(__vectab_stack_and_reset_area) refers to __main.o(!!!main) for __main
    btod_accurate_common.o(.text) refers to aeabi_sdivfast.o(.text) for __aeabi_uidivmod
    btod_accurate_common.o(.text) refers to llushr.o(.text) for __aeabi_llsr
    exit.o(.text) refers to rtexit.o(.ARM.Collect$$rtexit$$00000000) for __rt_exit
    defsig_fpe_outer.o(.text) refers to defsig_fpe_inner.o(.text) for __rt_SIGFPE_inner
    defsig_fpe_outer.o(.text) refers to defsig_exit.o(.text) for __sig_exit
    defsig_fpe_formal.o(.text) refers to rt_raise.o(.text) for __rt_raise
    libinit.o(.ARM.Collect$$libinit$$00000000) refers (Special) to libinit2.o(.ARM.Collect$$libinit$$00000030) for __rt_lib_init_alloca_1
    libinit.o(.ARM.Collect$$libinit$$00000000) refers (Special) to libinit2.o(.ARM.Collect$$libinit$$0000002E) for __rt_lib_init_argv_1
    libinit.o(.ARM.Collect$$libinit$$00000000) refers (Special) to libinit2.o(.ARM.Collect$$libinit$$0000001D) for __rt_lib_init_atexit_1
    libinit.o(.ARM.Collect$$libinit$$00000000) refers (Special) to libinit2.o(.ARM.Collect$$libinit$$00000023) for __rt_lib_init_clock_1
    libinit.o(.ARM.Collect$$libinit$$00000000) refers (Special) to libinit2.o(.ARM.Collect$$libinit$$00000034) for __rt_lib_init_cpp_1
    libinit.o(.ARM.Collect$$libinit$$00000000) refers (Special) to libinit2.o(.ARM.Collect$$libinit$$00000032) for __rt_lib_init_exceptions_1
    libinit.o(.ARM.Collect$$libinit$$00000000) refers (Special) to libinit2.o(.ARM.Collect$$libinit$$00000002) for __rt_lib_init_fp_1
    libinit.o(.ARM.Collect$$libinit$$00000000) refers (Special) to libinit2.o(.ARM.Collect$$libinit$$00000021) for __rt_lib_init_fp_trap_1
    libinit.o(.ARM.Collect$$libinit$$00000000) refers (Special) to libinit2.o(.ARM.Collect$$libinit$$00000025) for __rt_lib_init_getenv_1
    libinit.o(.ARM.Collect$$libinit$$00000000) refers (Special) to libinit2.o(.ARM.Collect$$libinit$$0000000C) for __rt_lib_init_heap_1
    libinit.o(.ARM.Collect$$libinit$$00000000) refers (Special) to libinit2.o(.ARM.Collect$$libinit$$00000013) for __rt_lib_init_lc_collate_1
    libinit.o(.ARM.Collect$$libinit$$00000000) refers (Special) to libinit2.o(.ARM.Collect$$libinit$$00000015) for __rt_lib_init_lc_ctype_1
    libinit.o(.ARM.Collect$$libinit$$00000000) refers (Special) to libinit2.o(.ARM.Collect$$libinit$$00000017) for __rt_lib_init_lc_monetary_1
    libinit.o(.ARM.Collect$$libinit$$00000000) refers (Special) to libinit2.o(.ARM.Collect$$libinit$$00000019) for __rt_lib_init_lc_numeric_1
    libinit.o(.ARM.Collect$$libinit$$00000000) refers (Special) to libinit2.o(.ARM.Collect$$libinit$$0000001B) for __rt_lib_init_lc_time_1
    libinit.o(.ARM.Collect$$libinit$$00000000) refers (Special) to libinit2.o(.ARM.Collect$$libinit$$00000006) for __rt_lib_init_preinit_1
    libinit.o(.ARM.Collect$$libinit$$00000000) refers (Special) to libinit2.o(.ARM.Collect$$libinit$$00000010) for __rt_lib_init_rand_1
    libinit.o(.ARM.Collect$$libinit$$00000000) refers (Special) to libinit2.o(.ARM.Collect$$libinit$$00000004) for __rt_lib_init_relocate_pie_1
    libinit.o(.ARM.Collect$$libinit$$00000000) refers (Special) to libinit2.o(.ARM.Collect$$libinit$$00000035) for __rt_lib_init_return
    libinit.o(.ARM.Collect$$libinit$$00000000) refers (Special) to libinit2.o(.ARM.Collect$$libinit$$0000001F) for __rt_lib_init_signal_1
    libinit.o(.ARM.Collect$$libinit$$00000000) refers (Special) to libinit2.o(.ARM.Collect$$libinit$$00000027) for __rt_lib_init_stdio_1
    libinit.o(.ARM.Collect$$libinit$$00000000) refers (Special) to libinit2.o(.ARM.Collect$$libinit$$0000000E) for __rt_lib_init_user_alloc_1
    libinit2.o(.ARM.Collect$$libinit$$00000011) refers (Weak) to rt_locale_intlibspace.o(.text) for __rt_locale
    libinit2.o(.ARM.Collect$$libinit$$00000012) refers to libinit2.o(.ARM.Collect$$libinit$$00000011) for .ARM.Collect$$libinit$$00000011
    libinit2.o(.ARM.Collect$$libinit$$00000014) refers to libinit2.o(.ARM.Collect$$libinit$$00000011) for .ARM.Collect$$libinit$$00000011
    libinit2.o(.ARM.Collect$$libinit$$00000016) refers to libinit2.o(.ARM.Collect$$libinit$$00000011) for .ARM.Collect$$libinit$$00000011
    libinit2.o(.ARM.Collect$$libinit$$00000018) refers to libinit2.o(.ARM.Collect$$libinit$$00000011) for .ARM.Collect$$libinit$$00000011
    libinit2.o(.ARM.Collect$$libinit$$00000018) refers (Weak) to lc_numeric_c.o(locale$$code) for _get_lc_numeric
    libinit2.o(.ARM.Collect$$libinit$$0000001A) refers to libinit2.o(.ARM.Collect$$libinit$$00000011) for .ARM.Collect$$libinit$$00000011
    libinit2.o(.ARM.Collect$$libinit$$00000028) refers to argv_veneer.o(.text) for __ARM_argv_veneer
    libinit2.o(.ARM.Collect$$libinit$$00000029) refers to argv_veneer.o(.text) for __ARM_argv_veneer
    cmpret.o(.text) refers (Special) to usenofp.o(x$fpl$usenofp) for __I$use$fp
    fnan2.o(.text) refers (Special) to usenofp.o(x$fpl$usenofp) for __I$use$fp
    fnan2.o(.text) refers to retnan.o(.text) for __fpl_return_NaN
    rtexit.o(.ARM.Collect$$rtexit$$00000000) refers (Special) to rtexit2.o(.ARM.Collect$$rtexit$$00000004) for __rt_exit_exit
    rtexit.o(.ARM.Collect$$rtexit$$00000000) refers (Special) to rtexit2.o(.ARM.Collect$$rtexit$$00000003) for __rt_exit_ls
    rtexit.o(.ARM.Collect$$rtexit$$00000000) refers (Special) to rtexit2.o(.ARM.Collect$$rtexit$$00000002) for __rt_exit_prels_1
    rtexit.o(.ARM.exidx) refers (Special) to rtexit2.o(.ARM.Collect$$rtexit$$00000004) for __rt_exit_exit
    rtexit.o(.ARM.exidx) refers (Special) to rtexit2.o(.ARM.Collect$$rtexit$$00000003) for __rt_exit_ls
    rtexit.o(.ARM.exidx) refers (Special) to rtexit2.o(.ARM.Collect$$rtexit$$00000002) for __rt_exit_prels_1
    rtexit.o(.ARM.exidx) refers to rtexit.o(.ARM.Collect$$rtexit$$00000000) for .ARM.Collect$$rtexit$$00000000
    rt_raise.o(.text) refers to __raise.o(.text) for __raise
    rt_raise.o(.text) refers to sys_exit.o(.text) for _sys_exit
    defsig_exit.o(.text) refers to sys_exit.o(.text) for _sys_exit
    defsig_fpe_inner.o(.text) refers to defsig_general.o(.text) for __default_signal_display
    retnan.o(.text) refers (Special) to usenofp.o(x$fpl$usenofp) for __I$use$fp
    retnan.o(.text) refers to cmpret.o(.text) for __fpl_cmpreturn
    sys_exit.o(.text) refers (Special) to use_no_semi.o(.text) for __I$use$semihosting
    sys_exit.o(.text) refers (Special) to indicate_semi.o(.text) for __semihosting_library_function
    sys_exit_hlt.o(.text) refers (Special) to use_no_semi.o(.text) for __I$use$semihosting
    sys_exit_hlt.o(.text) refers (Special) to indicate_semi.o(.text) for __semihosting_library_function
    rtexit2.o(.ARM.Collect$$rtexit$$00000003) refers to libshutdown.o(.ARM.Collect$$libshutdown$$00000000) for __rt_lib_shutdown
    rtexit2.o(.ARM.Collect$$rtexit$$00000004) refers to sys_exit.o(.text) for _sys_exit
    rtexit2.o(.ARM.exidx) refers to rtexit2.o(.ARM.Collect$$rtexit$$00000001) for .ARM.Collect$$rtexit$$00000001
    rtexit2.o(.ARM.exidx) refers to rtexit2.o(.ARM.Collect$$rtexit$$00000003) for .ARM.Collect$$rtexit$$00000003
    rtexit2.o(.ARM.exidx) refers to rtexit2.o(.ARM.Collect$$rtexit$$00000004) for .ARM.Collect$$rtexit$$00000004
    __raise.o(.text) refers to defsig.o(CL$$defsig) for __default_signal_handler
    defsig_general.o(.text) refers to sys_wrch.o(.text) for _ttywrch
    _get_argv_nomalloc.o(.text) refers (Special) to hrguard.o(.text) for __heap_region$guard
    _get_argv_nomalloc.o(.text) refers to defsig_rtmem_outer.o(.text) for __rt_SIGRTMEM
    _get_argv_nomalloc.o(.text) refers to sys_command.o(.text) for _sys_command_string
    sys_wrch.o(.text) refers (Special) to use_no_semi.o(.text) for __I$use$semihosting
    sys_wrch.o(.text) refers (Special) to indicate_semi.o(.text) for __semihosting_library_function
    sys_command.o(.text) refers (Special) to use_no_semi.o(.text) for __I$use$semihosting
    sys_command.o(.text) refers (Special) to indicate_semi.o(.text) for __semihosting_library_function
    sys_wrch_hlt.o(.text) refers (Special) to use_no_semi.o(.text) for __I$use$semihosting
    sys_wrch_hlt.o(.text) refers (Special) to indicate_semi.o(.text) for __semihosting_library_function
    sys_command_hlt.o(.text) refers (Special) to use_no_semi.o(.text) for __I$use$semihosting
    sys_command_hlt.o(.text) refers (Special) to indicate_semi.o(.text) for __semihosting_library_function
    defsig_rtmem_outer.o(.text) refers to defsig_rtmem_inner.o(.text) for __rt_SIGRTMEM_inner
    defsig_rtmem_outer.o(.text) refers to defsig_exit.o(.text) for __sig_exit
    defsig_rtmem_formal.o(.text) refers to rt_raise.o(.text) for __rt_raise
    defsig.o(CL$$defsig) refers to defsig_fpe_inner.o(.text) for __rt_SIGFPE_inner
    defsig.o(CL$$defsig) refers to defsig_rtmem_inner.o(.text) for __rt_SIGRTMEM_inner
    libshutdown.o(.ARM.Collect$$libshutdown$$00000000) refers (Special) to libshutdown2.o(.ARM.Collect$$libshutdown$$00000002) for __rt_lib_shutdown_cpp_1
    libshutdown.o(.ARM.Collect$$libshutdown$$00000000) refers (Special) to libshutdown2.o(.ARM.Collect$$libshutdown$$00000007) for __rt_lib_shutdown_fp_trap_1
    libshutdown.o(.ARM.Collect$$libshutdown$$00000000) refers (Special) to libshutdown2.o(.ARM.Collect$$libshutdown$$0000000F) for __rt_lib_shutdown_heap_1
    libshutdown.o(.ARM.Collect$$libshutdown$$00000000) refers (Special) to libshutdown2.o(.ARM.Collect$$libshutdown$$00000010) for __rt_lib_shutdown_return
    libshutdown.o(.ARM.Collect$$libshutdown$$00000000) refers (Special) to libshutdown2.o(.ARM.Collect$$libshutdown$$0000000A) for __rt_lib_shutdown_signal_1
    libshutdown.o(.ARM.Collect$$libshutdown$$00000000) refers (Special) to libshutdown2.o(.ARM.Collect$$libshutdown$$00000004) for __rt_lib_shutdown_stdio_1
    libshutdown.o(.ARM.Collect$$libshutdown$$00000000) refers (Special) to libshutdown2.o(.ARM.Collect$$libshutdown$$0000000C) for __rt_lib_shutdown_user_alloc_1
    defsig_abrt_inner.o(.text) refers to defsig_general.o(.text) for __default_signal_display
    defsig_rtred_inner.o(.text) refers to defsig_general.o(.text) for __default_signal_display
    defsig_rtmem_inner.o(.text) refers to defsig_general.o(.text) for __default_signal_display
    defsig_stak_inner.o(.text) refers to defsig_general.o(.text) for __default_signal_display
    defsig_pvfn_inner.o(.text) refers to defsig_general.o(.text) for __default_signal_display
    defsig_cppl_inner.o(.text) refers to defsig_general.o(.text) for __default_signal_display
    defsig_segv_inner.o(.text) refers to defsig_general.o(.text) for __default_signal_display
    defsig_other.o(.text) refers to defsig_general.o(.text) for __default_signal_display


==============================================================================

Removing Unused input sections from the image.

    Removing main.o(.text), (0 bytes).
    Removing main.o(.ARM.exidx.text.main), (8 bytes).
    Removing main.o(.data.comm), (1 bytes).
    Removing main.o(.bss.uartBuffer), (1 bytes).
    Removing main.o(.bss.speed), (4 bytes).
    Removing main.o(.bss.pwm), (4 bytes).
    Removing main.o(.bss.frealspeed), (4 bytes).
    Removing main.o(.bss.lastupdate), (4 bytes).
    Removing main.o(.bss.uart), (1 bytes).
    Removing main.o(.bss.adc), (1 bytes).
    Removing main.o(.bss.wState), (1 bytes).
    Removing main.o(.ARM.use_no_argv), (4 bytes).
    Removing delay.o(.text), (0 bytes).
    Removing delay.o(.ARM.exidx.text.DELAY_Init), (8 bytes).
    Removing delay.o(.ARM.exidx.text.SysTick_Handler), (8 bytes).
    Removing delay.o(.ARM.exidx.text.DELAY_Ms), (8 bytes).
    Removing bldc.o(.text), (0 bytes).
    Removing bldc.o(.ARM.exidx.text.hallpos), (8 bytes).
    Removing bldc.o(.ARM.exidx.text.commutate), (8 bytes).
    Removing bldc.o(.text.speedupdate), (160 bytes).
    Removing bldc.o(.ARM.exidx.text.speedupdate), (8 bytes).
    Removing bldc.o(.data.testrotatedir), (4 bytes).
    Removing bldc.o(.bss.lastdir), (1 bytes).
    Removing bldc.o(.bss.lasttestrotate), (4 bytes).
    Removing initialize.o(.text), (0 bytes).
    Removing initialize.o(.text.io_init), (136 bytes).
    Removing initialize.o(.ARM.exidx.text.io_init), (8 bytes).
    Removing initialize.o(.text.HALL_Init), (92 bytes).
    Removing initialize.o(.ARM.exidx.text.HALL_Init), (8 bytes).
    Removing initialize.o(.text.HALLTIM_Init), (148 bytes).
    Removing initialize.o(.ARM.exidx.text.HALLTIM_Init), (8 bytes).
    Removing initialize.o(.ARM.exidx.text.BLDC_init), (8 bytes).
    Removing initialize.o(.ARM.exidx.text.TIM1_init), (8 bytes).
    Removing initialize.o(.text.NVIC_Configure), (24 bytes).
    Removing initialize.o(.ARM.exidx.text.NVIC_Configure), (8 bytes).
    Removing initialize.o(.ARM.exidx.text.exNVIC_Configure), (8 bytes).
    Removing initialize.o(.ARM.exidx.text.UARTX_Init), (8 bytes).
    Removing initialize.o(.text.UART_GPIO_Init), (76 bytes).
    Removing initialize.o(.ARM.exidx.text.UART_GPIO_Init), (8 bytes).
    Removing initialize.o(.ARM.exidx.text.DMA_NVIC_Config), (8 bytes).
    Removing initialize.o(.text.adc_Init), (144 bytes).
    Removing initialize.o(.ARM.exidx.text.adc_Init), (8 bytes).
    Removing initialize.o(.text.Iwdg_Init), (72 bytes).
    Removing initialize.o(.ARM.exidx.text.Iwdg_Init), (8 bytes).
    Removing initialize.o(.ARM.exidx.text.vref_Init), (8 bytes).
    Removing initialize.o(.ARM.exidx.text.ADCALL_Init), (8 bytes).
    Removing interrupt.o(.text), (0 bytes).
    Removing interrupt.o(.ARM.exidx.text.TIM1_BRK_UP_TRG_COM_IRQHandler), (8 bytes).
    Removing interrupt.o(.ARM.exidx.text.DMA1_Channel2_3_IRQHandler), (8 bytes).
    Removing interrupt.o(.ARM.exidx.text.ADC1_COMP_IRQHandler), (8 bytes).
    Removing interrupt.o(.ARM.exidx.text.TIM2_IRQHandler), (8 bytes).
    Removing interrupt.o(.ARM.exidx.text.TIM3_IRQHandler), (8 bytes).
    Removing interrupt.o(.bss.iphaseaoffset), (4 bytes).
    Removing interrupt.o(.bss.iphaseboffset), (4 bytes).
    Removing interrupt.o(.bss.iphasea), (2 bytes).
    Removing interrupt.o(.bss.iphaseb), (2 bytes).
    Removing uart.o(.text), (0 bytes).
    Removing uart.o(.ARM.exidx.text.UART_Send_Byte), (8 bytes).
    Removing uart.o(.ARM.exidx.text.UART_Send_Group), (8 bytes).
    Removing uart.o(.ARM.exidx.text.UART_SendString), (8 bytes).
    Removing remoteuartbus.o(.text), (0 bytes).
    Removing remoteuartbus.o(.text.CalcCRC), (60 bytes).
    Removing remoteuartbus.o(.ARM.exidx.text.CalcCRC), (8 bytes).
    Removing remoteuartbus.o(.text.RemoteUpdate), (216 bytes).
    Removing remoteuartbus.o(.ARM.exidx.text.RemoteUpdate), (8 bytes).
    Removing remoteuartbus.o(.text.AnswerMaster), (160 bytes).
    Removing remoteuartbus.o(.ARM.exidx.text.AnswerMaster), (8 bytes).
    Removing remoteuartbus.o(.text.serialit), (288 bytes).
    Removing remoteuartbus.o(.ARM.exidx.text.serialit), (8 bytes).
    Removing remoteuartbus.o(.bss.bAnswerMaster), (1 bytes).
    Removing remoteuartbus.o(.bss.iTimeLastRx), (4 bytes).
    Removing remoteuartbus.o(.bss.iAnswerMaster), (4 bytes).
    Removing remoteuartbus.o(.bss.iReceivePos), (2 bytes).
    Removing remoteuartbus.o(.bss.aReceiveBuffer), (255 bytes).
    Removing remoteuartbus.o(.bss.iRxDataType), (1 bytes).
    Removing remoteuartbus.o(.bss.iRxDataSize), (1 bytes).
    Removing calculation.o(.text), (0 bytes).
    Removing calculation.o(.text.PID), (96 bytes).
    Removing calculation.o(.ARM.exidx.text.PID), (8 bytes).
    Removing calculation.o(.text.avgspeed), (72 bytes).
    Removing calculation.o(.ARM.exidx.text.avgspeed), (8 bytes).
    Removing calculation.o(.ARM.exidx.text.avgvbat), (8 bytes).
    Removing calculation.o(.ARM.exidx.text.avgItotal), (8 bytes).
    Removing calculation.o(.text.PID2PWM), (64 bytes).
    Removing calculation.o(.ARM.exidx.text.PID2PWM), (8 bytes).
    Removing calculation.o(.ARM.exidx.text.updateMotorRPM), (8 bytes).
    Removing calculation.o(.data.max), (4 bytes).
    Removing calculation.o(.data.min), (4 bytes).
    Removing calculation.o(.bss.qdSum), (4 bytes).
    Removing calculation.o(.bss.lasterr), (4 bytes).
    Removing calculation.o(.bss.prevpwm), (4 bytes).
    Removing calculation.o(.bss.index), (1 bytes).
    Removing calculation.o(.bss.datasum), (4 bytes).
    Removing calculation.o(.bss.avgarr), (128 bytes).
    Removing autodetect.o(.text), (0 bytes).
    Removing autodetect.o(.ARM.exidx.text.selfhold), (8 bytes).
    Removing autodetect.o(.text.used), (44 bytes).
    Removing autodetect.o(.ARM.exidx.text.used), (8 bytes).
    Removing autodetect.o(.ARM.exidx.text.detectSelfHold), (8 bytes).
    Removing autodetect.o(.ARM.exidx.text.autoDetectSerialIt), (8 bytes).
    Removing autodetect.o(.ARM.exidx.text.simhallupdate), (8 bytes).
    Removing autodetect.o(.ARM.exidx.text.autoDetectInit), (8 bytes).
    Removing autodetect.o(.ARM.exidx.text.blinkLEDupdate), (8 bytes).
    Removing autodetect.o(.ARM.exidx.text.printvoltage), (8 bytes).
    Removing autodetect.o(.bss.revolutions), (2 bytes).
    Removing autodetect.o(.bss.test), (1 bytes).
    Removing autodetect.o(.bss.lastCommutation), (4 bytes).
    Removing hardware.o(.text), (0 bytes).
    Removing hardware.o(.ARM.exidx.text.pinMode), (8 bytes).
    Removing hardware.o(.ARM.exidx.text.digitalRead), (8 bytes).
    Removing hardware.o(.text.digitalWrite), (18 bytes).
    Removing hardware.o(.ARM.exidx.text.digitalWrite), (8 bytes).
    Removing hardware.o(.ARM.exidx.text.analogRead), (8 bytes).
    Removing hal_adc.o(.text), (0 bytes).
    Removing hal_adc.o(.ARM.exidx.text.ADC_DeInit), (8 bytes).
    Removing hal_adc.o(.ARM.exidx.text.ADC_Init), (8 bytes).
    Removing hal_adc.o(.text.ADC_StructInit), (16 bytes).
    Removing hal_adc.o(.ARM.exidx.text.ADC_StructInit), (8 bytes).
    Removing hal_adc.o(.ARM.exidx.text.ADC_Cmd), (8 bytes).
    Removing hal_adc.o(.text.ADC_DMACmd), (18 bytes).
    Removing hal_adc.o(.ARM.exidx.text.ADC_DMACmd), (8 bytes).
    Removing hal_adc.o(.ARM.exidx.text.ADC_ITConfig), (8 bytes).
    Removing hal_adc.o(.ARM.exidx.text.ADC_SoftwareStartConvCmd), (8 bytes).
    Removing hal_adc.o(.text.ADC_GetSoftwareStartConvStatus), (8 bytes).
    Removing hal_adc.o(.ARM.exidx.text.ADC_GetSoftwareStartConvStatus), (8 bytes).
    Removing hal_adc.o(.ARM.exidx.text.ADC_RegularChannelConfig), (8 bytes).
    Removing hal_adc.o(.ARM.exidx.text.ADC_TempSensorVrefintCmd), (8 bytes).
    Removing hal_adc.o(.text.ADC_ExternalTrigConvCmd), (18 bytes).
    Removing hal_adc.o(.ARM.exidx.text.ADC_ExternalTrigConvCmd), (8 bytes).
    Removing hal_adc.o(.text.ADC_GetConversionValue), (4 bytes).
    Removing hal_adc.o(.ARM.exidx.text.ADC_GetConversionValue), (8 bytes).
    Removing hal_adc.o(.text.ADC_GetDualModeConversionValue), (12 bytes).
    Removing hal_adc.o(.ARM.exidx.text.ADC_GetDualModeConversionValue), (8 bytes).
    Removing hal_adc.o(.text.ADC_ExternalTrigInjectedConvConfig), (20 bytes).
    Removing hal_adc.o(.ARM.exidx.text.ADC_ExternalTrigInjectedConvConfig), (8 bytes).
    Removing hal_adc.o(.text.ADC_ExternalTrigInjectedConvCmd), (18 bytes).
    Removing hal_adc.o(.ARM.exidx.text.ADC_ExternalTrigInjectedConvCmd), (8 bytes).
    Removing hal_adc.o(.ARM.exidx.text.ADC_AnalogWatchdogCmd), (8 bytes).
    Removing hal_adc.o(.ARM.exidx.text.ADC_AnalogWatchdogThresholdsConfig), (8 bytes).
    Removing hal_adc.o(.ARM.exidx.text.ADC_AnalogWatchdogSingleChannelConfig), (8 bytes).
    Removing hal_adc.o(.text.ADC_TempSensorCmd), (28 bytes).
    Removing hal_adc.o(.ARM.exidx.text.ADC_TempSensorCmd), (8 bytes).
    Removing hal_adc.o(.text.ADC_VrefintCmd), (28 bytes).
    Removing hal_adc.o(.ARM.exidx.text.ADC_VrefintCmd), (8 bytes).
    Removing hal_adc.o(.text.exADC_TempSensorVrefintCmd), (52 bytes).
    Removing hal_adc.o(.ARM.exidx.text.exADC_TempSensorVrefintCmd), (8 bytes).
    Removing hal_adc.o(.ARM.exidx.text.ADC_GetFlagStatus), (8 bytes).
    Removing hal_adc.o(.ARM.exidx.text.ADC_ClearFlag), (8 bytes).
    Removing hal_adc.o(.ARM.exidx.text.ADC_GetITStatus), (8 bytes).
    Removing hal_adc.o(.ARM.exidx.text.ADC_ClearITPendingBit), (8 bytes).
    Removing hal_comp.o(.text), (0 bytes).
    Removing hal_comp.o(.text.COMP_DeInit), (12 bytes).
    Removing hal_comp.o(.ARM.exidx.text.COMP_DeInit), (8 bytes).
    Removing hal_comp.o(.text.COMP_Init), (28 bytes).
    Removing hal_comp.o(.ARM.exidx.text.COMP_Init), (8 bytes).
    Removing hal_comp.o(.text.COMP_StructInit), (28 bytes).
    Removing hal_comp.o(.ARM.exidx.text.COMP_StructInit), (8 bytes).
    Removing hal_comp.o(.text.COMP_Cmd), (24 bytes).
    Removing hal_comp.o(.ARM.exidx.text.COMP_Cmd), (8 bytes).
    Removing hal_comp.o(.text.SET_COMP_CRV), (24 bytes).
    Removing hal_comp.o(.ARM.exidx.text.SET_COMP_CRV), (8 bytes).
    Removing hal_comp.o(.text.COMP_SwitchCmd), (28 bytes).
    Removing hal_comp.o(.ARM.exidx.text.COMP_SwitchCmd), (8 bytes).
    Removing hal_comp.o(.text.COMP_GetOutputLevel), (20 bytes).
    Removing hal_comp.o(.ARM.exidx.text.COMP_GetOutputLevel), (8 bytes).
    Removing hal_comp.o(.text.COMP_LockConfig), (20 bytes).
    Removing hal_comp.o(.ARM.exidx.text.COMP_LockConfig), (8 bytes).
    Removing hal_comp.o(.text.exCOMP_CrvCmd), (24 bytes).
    Removing hal_comp.o(.ARM.exidx.text.exCOMP_CrvCmd), (8 bytes).
    Removing hal_comp.o(.text.exCOMP_SwitchCrv), (16 bytes).
    Removing hal_comp.o(.ARM.exidx.text.exCOMP_SwitchCrv), (8 bytes).
    Removing hal_comp.o(.text.exCOMP_CrvSrc), (16 bytes).
    Removing hal_comp.o(.ARM.exidx.text.exCOMP_CrvSrc), (8 bytes).
    Removing hal_crc.o(.text), (0 bytes).
    Removing hal_crc.o(.text.CRC_ResetDR), (12 bytes).
    Removing hal_crc.o(.ARM.exidx.text.CRC_ResetDR), (8 bytes).
    Removing hal_crc.o(.text.CRC_CalcCRC), (16 bytes).
    Removing hal_crc.o(.ARM.exidx.text.CRC_CalcCRC), (8 bytes).
    Removing hal_crc.o(.text.CRC_CalcBlockCRC), (24 bytes).
    Removing hal_crc.o(.ARM.exidx.text.CRC_CalcBlockCRC), (8 bytes).
    Removing hal_crc.o(.text.CRC_GetCRC), (12 bytes).
    Removing hal_crc.o(.ARM.exidx.text.CRC_GetCRC), (8 bytes).
    Removing hal_crc.o(.text.CRC_SetIDRegister), (12 bytes).
    Removing hal_crc.o(.ARM.exidx.text.CRC_SetIDRegister), (8 bytes).
    Removing hal_crc.o(.text.CRC_GetIDRegister), (12 bytes).
    Removing hal_crc.o(.ARM.exidx.text.CRC_GetIDRegister), (8 bytes).
    Removing hal_dbg.o(.text), (0 bytes).
    Removing hal_dbg.o(.text.DBGMCU_Configure), (28 bytes).
    Removing hal_dbg.o(.ARM.exidx.text.DBGMCU_Configure), (8 bytes).
    Removing hal_div.o(.text), (0 bytes).
    Removing hal_div.o(.text.HWDivider_Init), (20 bytes).
    Removing hal_div.o(.ARM.exidx.text.HWDivider_Init), (8 bytes).
    Removing hal_div.o(.text.HWDivider_Calc), (28 bytes).
    Removing hal_div.o(.ARM.exidx.text.HWDivider_Calc), (8 bytes).
    Removing hal_div.o(.text.Divider_Calc), (8 bytes).
    Removing hal_div.o(.ARM.exidx.text.Divider_Calc), (8 bytes).
    Removing hal_dma.o(.text), (0 bytes).
    Removing hal_dma.o(.ARM.exidx.text.DMA_DeInit), (8 bytes).
    Removing hal_dma.o(.ARM.exidx.text.DMA_Init), (8 bytes).
    Removing hal_dma.o(.ARM.exidx.text.DMA_StructInit), (8 bytes).
    Removing hal_dma.o(.ARM.exidx.text.DMA_Cmd), (8 bytes).
    Removing hal_dma.o(.ARM.exidx.text.DMA_ITConfig), (8 bytes).
    Removing hal_dma.o(.text.DMA_GetCurrDataCounter), (6 bytes).
    Removing hal_dma.o(.ARM.exidx.text.DMA_GetCurrDataCounter), (8 bytes).
    Removing hal_dma.o(.text.DMA_GetFlagStatus), (16 bytes).
    Removing hal_dma.o(.ARM.exidx.text.DMA_GetFlagStatus), (8 bytes).
    Removing hal_dma.o(.text.DMA_ClearFlag), (12 bytes).
    Removing hal_dma.o(.ARM.exidx.text.DMA_ClearFlag), (8 bytes).
    Removing hal_dma.o(.ARM.exidx.text.DMA_GetITStatus), (8 bytes).
    Removing hal_dma.o(.ARM.exidx.text.DMA_ClearITPendingBit), (8 bytes).
    Removing hal_dma.o(.text.exDMA_SetPeripheralAddress), (4 bytes).
    Removing hal_dma.o(.ARM.exidx.text.exDMA_SetPeripheralAddress), (8 bytes).
    Removing hal_dma.o(.text.exDMA_SetTransmitLen), (4 bytes).
    Removing hal_dma.o(.ARM.exidx.text.exDMA_SetTransmitLen), (8 bytes).
    Removing hal_dma.o(.text.exDMA_SetMemoryAddress), (4 bytes).
    Removing hal_dma.o(.ARM.exidx.text.exDMA_SetMemoryAddress), (8 bytes).
    Removing hal_dma.o(.text.exDMA_ClearITPendingBit), (36 bytes).
    Removing hal_dma.o(.ARM.exidx.text.exDMA_ClearITPendingBit), (8 bytes).
    Removing hal_exti.o(.text), (0 bytes).
    Removing hal_exti.o(.text.EXTI_DeInit), (56 bytes).
    Removing hal_exti.o(.ARM.exidx.text.EXTI_DeInit), (8 bytes).
    Removing hal_exti.o(.text.exEXTI_LineDisable), (32 bytes).
    Removing hal_exti.o(.ARM.exidx.text.exEXTI_LineDisable), (8 bytes).
    Removing hal_exti.o(.text.EXTI_MemoryRemapConfig), (20 bytes).
    Removing hal_exti.o(.ARM.exidx.text.EXTI_MemoryRemapConfig), (8 bytes).
    Removing hal_exti.o(.text.EXTI_DMAChannelRemapConfig), (28 bytes).
    Removing hal_exti.o(.ARM.exidx.text.EXTI_DMAChannelRemapConfig), (8 bytes).
    Removing hal_exti.o(.text.EXTI_LineConfig), (36 bytes).
    Removing hal_exti.o(.ARM.exidx.text.EXTI_LineConfig), (8 bytes).
    Removing hal_exti.o(.text.EXTI_Init), (120 bytes).
    Removing hal_exti.o(.ARM.exidx.text.EXTI_Init), (8 bytes).
    Removing hal_exti.o(.text.EXTI_StructInit), (14 bytes).
    Removing hal_exti.o(.ARM.exidx.text.EXTI_StructInit), (8 bytes).
    Removing hal_exti.o(.text.EXTI_GenerateSWInterrupt), (16 bytes).
    Removing hal_exti.o(.ARM.exidx.text.EXTI_GenerateSWInterrupt), (8 bytes).
    Removing hal_exti.o(.text.EXTI_GetFlagStatus), (16 bytes).
    Removing hal_exti.o(.ARM.exidx.text.EXTI_GetFlagStatus), (8 bytes).
    Removing hal_exti.o(.text.EXTI_ClearFlag), (12 bytes).
    Removing hal_exti.o(.ARM.exidx.text.EXTI_ClearFlag), (8 bytes).
    Removing hal_exti.o(.text.EXTI_GetITStatus), (28 bytes).
    Removing hal_exti.o(.ARM.exidx.text.EXTI_GetITStatus), (8 bytes).
    Removing hal_exti.o(.text.EXTI_ClearITPendingBit), (12 bytes).
    Removing hal_exti.o(.ARM.exidx.text.EXTI_ClearITPendingBit), (8 bytes).
    Removing hal_exti.o(.text.exEXTI_GetAllFlagStatus), (12 bytes).
    Removing hal_exti.o(.ARM.exidx.text.exEXTI_GetAllFlagStatus), (8 bytes).
    Removing hal_flash.o(.text), (0 bytes).
    Removing hal_flash.o(.text.FLASH_SetLatency), (20 bytes).
    Removing hal_flash.o(.ARM.exidx.text.FLASH_SetLatency), (8 bytes).
    Removing hal_flash.o(.text.FLASH_HalfCycleAccessCmd), (24 bytes).
    Removing hal_flash.o(.ARM.exidx.text.FLASH_HalfCycleAccessCmd), (8 bytes).
    Removing hal_flash.o(.text.FLASH_PrefetchBufferCmd), (24 bytes).
    Removing hal_flash.o(.ARM.exidx.text.FLASH_PrefetchBufferCmd), (8 bytes).
    Removing hal_flash.o(.text.FLASH_Lock), (16 bytes).
    Removing hal_flash.o(.ARM.exidx.text.FLASH_Lock), (8 bytes).
    Removing hal_flash.o(.text.FLASH_Unlock), (24 bytes).
    Removing hal_flash.o(.ARM.exidx.text.FLASH_Unlock), (8 bytes).
    Removing hal_flash.o(.text.FLASH_OPTB_Enable), (24 bytes).
    Removing hal_flash.o(.ARM.exidx.text.FLASH_OPTB_Enable), (8 bytes).
    Removing hal_flash.o(.text.FLASH_ErasePage), (92 bytes).
    Removing hal_flash.o(.ARM.exidx.text.FLASH_ErasePage), (8 bytes).
    Removing hal_flash.o(.text.FLASH_WaitForLastOperation), (72 bytes).
    Removing hal_flash.o(.ARM.exidx.text.FLASH_WaitForLastOperation), (8 bytes).
    Removing hal_flash.o(.text.FLASH_EraseAllPages), (84 bytes).
    Removing hal_flash.o(.ARM.exidx.text.FLASH_EraseAllPages), (8 bytes).
    Removing hal_flash.o(.text.FLASH_EraseOptionBytes), (104 bytes).
    Removing hal_flash.o(.ARM.exidx.text.FLASH_EraseOptionBytes), (8 bytes).
    Removing hal_flash.o(.text.FLASH_EraseProtect), (104 bytes).
    Removing hal_flash.o(.ARM.exidx.text.FLASH_EraseProtect), (8 bytes).
    Removing hal_flash.o(.text.FLASH_ProgramHalfWord), (80 bytes).
    Removing hal_flash.o(.ARM.exidx.text.FLASH_ProgramHalfWord), (8 bytes).
    Removing hal_flash.o(.text.FLASH_ProgramWord), (152 bytes).
    Removing hal_flash.o(.ARM.exidx.text.FLASH_ProgramWord), (8 bytes).
    Removing hal_flash.o(.text.FLASH_ProgramOptionByteData), (124 bytes).
    Removing hal_flash.o(.ARM.exidx.text.FLASH_ProgramOptionByteData), (8 bytes).
    Removing hal_flash.o(.text.FLASH_ProgramOptionHalfWord), (100 bytes).
    Removing hal_flash.o(.ARM.exidx.text.FLASH_ProgramOptionHalfWord), (8 bytes).
    Removing hal_flash.o(.text.FLASH_ProgramProtect), (100 bytes).
    Removing hal_flash.o(.ARM.exidx.text.FLASH_ProgramProtect), (8 bytes).
    Removing hal_flash.o(.text.FLASH_EnableWriteProtection), (132 bytes).
    Removing hal_flash.o(.ARM.exidx.text.FLASH_EnableWriteProtection), (8 bytes).
    Removing hal_flash.o(.text.FLASH_UserOptionByteConfig), (124 bytes).
    Removing hal_flash.o(.ARM.exidx.text.FLASH_UserOptionByteConfig), (8 bytes).
    Removing hal_flash.o(.text.FLASH_GetUserOptionByte), (12 bytes).
    Removing hal_flash.o(.ARM.exidx.text.FLASH_GetUserOptionByte), (8 bytes).
    Removing hal_flash.o(.text.FLASH_GetWriteProtectionOptionByte), (12 bytes).
    Removing hal_flash.o(.ARM.exidx.text.FLASH_GetWriteProtectionOptionByte), (8 bytes).
    Removing hal_flash.o(.text.FLASH_GetPrefetchBufferStatus), (16 bytes).
    Removing hal_flash.o(.ARM.exidx.text.FLASH_GetPrefetchBufferStatus), (8 bytes).
    Removing hal_flash.o(.text.FLASH_ITConfig), (28 bytes).
    Removing hal_flash.o(.ARM.exidx.text.FLASH_ITConfig), (8 bytes).
    Removing hal_flash.o(.text.FLASH_GetFlagStatus), (24 bytes).
    Removing hal_flash.o(.ARM.exidx.text.FLASH_GetFlagStatus), (8 bytes).
    Removing hal_flash.o(.text.FLASH_ClearFlag), (12 bytes).
    Removing hal_flash.o(.ARM.exidx.text.FLASH_ClearFlag), (8 bytes).
    Removing hal_flash.o(.text.FLASH_GetStatus), (40 bytes).
    Removing hal_flash.o(.ARM.exidx.text.FLASH_GetStatus), (8 bytes).
    Removing hal_flash.o(.text.exFLASH_EraseEE), (124 bytes).
    Removing hal_flash.o(.ARM.exidx.text.exFLASH_EraseEE), (8 bytes).
    Removing hal_flash.o(.text.exFLASH_ProgramEE), (144 bytes).
    Removing hal_flash.o(.ARM.exidx.text.exFLASH_ProgramEE), (8 bytes).
    Removing hal_flash.o(.text.exFLASH_FindEmpty), (44 bytes).
    Removing hal_flash.o(.ARM.exidx.text.exFLASH_FindEmpty), (8 bytes).
    Removing hal_flash.o(.text.exFLASH_Locate), (128 bytes).
    Removing hal_flash.o(.ARM.exidx.text.exFLASH_Locate), (8 bytes).
    Removing hal_flash.o(.text.exFLASH_WriteEE), (1144 bytes).
    Removing hal_flash.o(.ARM.exidx.text.exFLASH_WriteEE), (8 bytes).
    Removing hal_flash.o(.text.exFLASH_ReadEE), (132 bytes).
    Removing hal_flash.o(.ARM.exidx.text.exFLASH_ReadEE), (8 bytes).
    Removing hal_gpio.o(.text), (0 bytes).
    Removing hal_gpio.o(.text.GPIO_DeInit), (48 bytes).
    Removing hal_gpio.o(.ARM.exidx.text.GPIO_DeInit), (8 bytes).
    Removing hal_gpio.o(.text.GPIO_AFIODeInit), (52 bytes).
    Removing hal_gpio.o(.ARM.exidx.text.GPIO_AFIODeInit), (8 bytes).
    Removing hal_gpio.o(.ARM.exidx.text.GPIO_Init), (8 bytes).
    Removing hal_gpio.o(.ARM.exidx.text.GPIO_StructInit), (8 bytes).
    Removing hal_gpio.o(.ARM.exidx.text.GPIO_ReadInputDataBit), (8 bytes).
    Removing hal_gpio.o(.text.GPIO_ReadInputData), (6 bytes).
    Removing hal_gpio.o(.ARM.exidx.text.GPIO_ReadInputData), (8 bytes).
    Removing hal_gpio.o(.text.GPIO_ReadOutputDataBit), (10 bytes).
    Removing hal_gpio.o(.ARM.exidx.text.GPIO_ReadOutputDataBit), (8 bytes).
    Removing hal_gpio.o(.text.GPIO_ReadOutputData), (6 bytes).
    Removing hal_gpio.o(.ARM.exidx.text.GPIO_ReadOutputData), (8 bytes).
    Removing hal_gpio.o(.text.GPIO_SetBits), (4 bytes).
    Removing hal_gpio.o(.ARM.exidx.text.GPIO_SetBits), (8 bytes).
    Removing hal_gpio.o(.text.GPIO_ResetBits), (4 bytes).
    Removing hal_gpio.o(.ARM.exidx.text.GPIO_ResetBits), (8 bytes).
    Removing hal_gpio.o(.text.GPIO_WriteBit), (16 bytes).
    Removing hal_gpio.o(.ARM.exidx.text.GPIO_WriteBit), (8 bytes).
    Removing hal_gpio.o(.text.GPIO_Write), (4 bytes).
    Removing hal_gpio.o(.ARM.exidx.text.GPIO_Write), (8 bytes).
    Removing hal_gpio.o(.text.GPIO_PinLock), (20 bytes).
    Removing hal_gpio.o(.ARM.exidx.text.GPIO_PinLock), (8 bytes).
    Removing hal_gpio.o(.text.GPIO_PinLockConfig), (18 bytes).
    Removing hal_gpio.o(.ARM.exidx.text.GPIO_PinLockConfig), (8 bytes).
    Removing hal_gpio.o(.ARM.exidx.text.GPIO_PinAFConfig), (8 bytes).
    Removing hal_gpio.o(.text.exGPIO_PinAFConfig), (62 bytes).
    Removing hal_gpio.o(.ARM.exidx.text.exGPIO_PinAFConfig), (8 bytes).
    Removing hal_i2c.o(.text), (0 bytes).
    Removing hal_i2c.o(.text.I2C_DeInit), (24 bytes).
    Removing hal_i2c.o(.ARM.exidx.text.I2C_DeInit), (8 bytes).
    Removing hal_i2c.o(.text.I2C_Init), (152 bytes).
    Removing hal_i2c.o(.ARM.exidx.text.I2C_Init), (8 bytes).
    Removing hal_i2c.o(.text.I2C_StructInit), (24 bytes).
    Removing hal_i2c.o(.ARM.exidx.text.I2C_StructInit), (8 bytes).
    Removing hal_i2c.o(.text.I2C_Cmd), (20 bytes).
    Removing hal_i2c.o(.ARM.exidx.text.I2C_Cmd), (8 bytes).
    Removing hal_i2c.o(.text.I2C_DMACmd), (48 bytes).
    Removing hal_i2c.o(.ARM.exidx.text.I2C_DMACmd), (8 bytes).
    Removing hal_i2c.o(.text.I2C_GenerateSTART), (18 bytes).
    Removing hal_i2c.o(.ARM.exidx.text.I2C_GenerateSTART), (8 bytes).
    Removing hal_i2c.o(.text.I2C_GenerateSTOP), (36 bytes).
    Removing hal_i2c.o(.ARM.exidx.text.I2C_GenerateSTOP), (8 bytes).
    Removing hal_i2c.o(.text.I2C_OwnAddress2Config), (16 bytes).
    Removing hal_i2c.o(.ARM.exidx.text.I2C_OwnAddress2Config), (8 bytes).
    Removing hal_i2c.o(.text.I2C_DualAddressCmd), (24 bytes).
    Removing hal_i2c.o(.ARM.exidx.text.I2C_DualAddressCmd), (8 bytes).
    Removing hal_i2c.o(.text.I2C_GeneralCallCmd), (24 bytes).
    Removing hal_i2c.o(.ARM.exidx.text.I2C_GeneralCallCmd), (8 bytes).
    Removing hal_i2c.o(.text.I2C_ITConfig), (30 bytes).
    Removing hal_i2c.o(.ARM.exidx.text.I2C_ITConfig), (8 bytes).
    Removing hal_i2c.o(.text.I2C_ReadCmd), (8 bytes).
    Removing hal_i2c.o(.ARM.exidx.text.I2C_ReadCmd), (8 bytes).
    Removing hal_i2c.o(.text.I2C_SendData), (4 bytes).
    Removing hal_i2c.o(.ARM.exidx.text.I2C_SendData), (8 bytes).
    Removing hal_i2c.o(.text.I2C_ReceiveData), (16 bytes).
    Removing hal_i2c.o(.ARM.exidx.text.I2C_ReceiveData), (8 bytes).
    Removing hal_i2c.o(.text.I2C_Send7bitAddress), (6 bytes).
    Removing hal_i2c.o(.ARM.exidx.text.I2C_Send7bitAddress), (8 bytes).
    Removing hal_i2c.o(.text.I2C_ReadRegister), (4 bytes).
    Removing hal_i2c.o(.ARM.exidx.text.I2C_ReadRegister), (8 bytes).
    Removing hal_i2c.o(.text.I2C_GetLastEvent), (12 bytes).
    Removing hal_i2c.o(.ARM.exidx.text.I2C_GetLastEvent), (8 bytes).
    Removing hal_i2c.o(.text.I2C_CheckEvent), (36 bytes).
    Removing hal_i2c.o(.ARM.exidx.text.I2C_CheckEvent), (8 bytes).
    Removing hal_i2c.o(.text.I2C_GetFlagStatus), (44 bytes).
    Removing hal_i2c.o(.ARM.exidx.text.I2C_GetFlagStatus), (8 bytes).
    Removing hal_i2c.o(.text.I2C_ClearFlag), (102 bytes).
    Removing hal_i2c.o(.ARM.exidx.text.I2C_ClearFlag), (8 bytes).
    Removing hal_i2c.o(.text.I2C_GetITStatus), (10 bytes).
    Removing hal_i2c.o(.ARM.exidx.text.I2C_GetITStatus), (8 bytes).
    Removing hal_i2c.o(.text.I2C_ClearITPendingBit), (102 bytes).
    Removing hal_i2c.o(.ARM.exidx.text.I2C_ClearITPendingBit), (8 bytes).
    Removing hal_i2c.o(.text.I2C_SendSlaveAddress), (6 bytes).
    Removing hal_i2c.o(.ARM.exidx.text.I2C_SendSlaveAddress), (8 bytes).
    Removing hal_i2c.o(.text.I2C_SlaveConfigure), (18 bytes).
    Removing hal_i2c.o(.ARM.exidx.text.I2C_SlaveConfigure), (8 bytes).
    Removing hal_i2c.o(.text.I2C_DMAConfigure), (10 bytes).
    Removing hal_i2c.o(.ARM.exidx.text.I2C_DMAConfigure), (8 bytes).
    Removing hal_i2c.o(.bss.I2C_DMA_DIR), (2 bytes).
    Removing hal_i2c.o(.bss.I2C_CMD_DIR), (1 bytes).
    Removing hal_iwdg.o(.text), (0 bytes).
    Removing hal_iwdg.o(.text.IWDG_WriteAccessCmd), (12 bytes).
    Removing hal_iwdg.o(.ARM.exidx.text.IWDG_WriteAccessCmd), (8 bytes).
    Removing hal_iwdg.o(.text.IWDG_SetPrescaler), (16 bytes).
    Removing hal_iwdg.o(.ARM.exidx.text.IWDG_SetPrescaler), (8 bytes).
    Removing hal_iwdg.o(.text.PVU_CheckStatus), (16 bytes).
    Removing hal_iwdg.o(.ARM.exidx.text.PVU_CheckStatus), (8 bytes).
    Removing hal_iwdg.o(.text.IWDG_SetReload), (16 bytes).
    Removing hal_iwdg.o(.ARM.exidx.text.IWDG_SetReload), (8 bytes).
    Removing hal_iwdg.o(.text.RVU_CheckStatus), (16 bytes).
    Removing hal_iwdg.o(.ARM.exidx.text.RVU_CheckStatus), (8 bytes).
    Removing hal_iwdg.o(.text.IWDG_GetReload), (12 bytes).
    Removing hal_iwdg.o(.ARM.exidx.text.IWDG_GetReload), (8 bytes).
    Removing hal_iwdg.o(.text.IWDG_ReloadCounter), (16 bytes).
    Removing hal_iwdg.o(.ARM.exidx.text.IWDG_ReloadCounter), (8 bytes).
    Removing hal_iwdg.o(.text.IWDG_Enable), (16 bytes).
    Removing hal_iwdg.o(.ARM.exidx.text.IWDG_Enable), (8 bytes).
    Removing hal_iwdg.o(.text.IWDG_GetFlagStatus), (16 bytes).
    Removing hal_iwdg.o(.ARM.exidx.text.IWDG_GetFlagStatus), (8 bytes).
    Removing hal_iwdg.o(.text.IWDG_OverflowConfig), (24 bytes).
    Removing hal_iwdg.o(.ARM.exidx.text.IWDG_OverflowConfig), (8 bytes).
    Removing hal_iwdg.o(.text.IWDG_ClearITPendingBit), (16 bytes).
    Removing hal_iwdg.o(.ARM.exidx.text.IWDG_ClearITPendingBit), (8 bytes).
    Removing hal_iwdg.o(.text.IWDG_ClearIT), (16 bytes).
    Removing hal_iwdg.o(.ARM.exidx.text.IWDG_ClearIT), (8 bytes).
    Removing hal_iwdg.o(.text.IWDG_EnableIT), (16 bytes).
    Removing hal_iwdg.o(.ARM.exidx.text.IWDG_EnableIT), (8 bytes).
    Removing hal_iwdg.o(.text.IWDG_Reset), (16 bytes).
    Removing hal_iwdg.o(.ARM.exidx.text.IWDG_Reset), (8 bytes).
    Removing hal_misc.o(.text), (0 bytes).
    Removing hal_misc.o(.text.NVIC_Init), (80 bytes).
    Removing hal_misc.o(.ARM.exidx.text.NVIC_Init), (8 bytes).
    Removing hal_misc.o(.ARM.exidx.text.exNVIC_Init), (8 bytes).
    Removing hal_misc.o(.text.NVIC_SystemLPConfig), (28 bytes).
    Removing hal_misc.o(.ARM.exidx.text.NVIC_SystemLPConfig), (8 bytes).
    Removing hal_misc.o(.text.SysTick_CLKSourceConfig), (28 bytes).
    Removing hal_misc.o(.ARM.exidx.text.SysTick_CLKSourceConfig), (8 bytes).
    Removing hal_pwr.o(.text), (0 bytes).
    Removing hal_pwr.o(.text.PWR_DeInit), (12 bytes).
    Removing hal_pwr.o(.ARM.exidx.text.PWR_DeInit), (8 bytes).
    Removing hal_pwr.o(.text.PWR_PVDCmd), (24 bytes).
    Removing hal_pwr.o(.ARM.exidx.text.PWR_PVDCmd), (8 bytes).
    Removing hal_pwr.o(.text.PWR_PVDLevelConfig), (20 bytes).
    Removing hal_pwr.o(.ARM.exidx.text.PWR_PVDLevelConfig), (8 bytes).
    Removing hal_pwr.o(.text.PWR_WakeUpPinCmd), (28 bytes).
    Removing hal_pwr.o(.ARM.exidx.text.PWR_WakeUpPinCmd), (8 bytes).
    Removing hal_pwr.o(.text.PWR_EnterSTOPMode), (40 bytes).
    Removing hal_pwr.o(.ARM.exidx.text.PWR_EnterSTOPMode), (8 bytes).
    Removing hal_pwr.o(.text.PWR_EnterSTANDBYMode), (32 bytes).
    Removing hal_pwr.o(.ARM.exidx.text.PWR_EnterSTANDBYMode), (8 bytes).
    Removing hal_pwr.o(.text.PWR_GetFlagStatus), (16 bytes).
    Removing hal_pwr.o(.ARM.exidx.text.PWR_GetFlagStatus), (8 bytes).
    Removing hal_pwr.o(.text.PWR_ClearFlag), (16 bytes).
    Removing hal_pwr.o(.ARM.exidx.text.PWR_ClearFlag), (8 bytes).
    Removing hal_pwr.o(.text.exPWR_EnterLowPowerMode), (44 bytes).
    Removing hal_pwr.o(.ARM.exidx.text.exPWR_EnterLowPowerMode), (8 bytes).
    Removing hal_rcc.o(.text), (0 bytes).
    Removing hal_rcc.o(.text.RCC_DeInit), (48 bytes).
    Removing hal_rcc.o(.ARM.exidx.text.RCC_DeInit), (8 bytes).
    Removing hal_rcc.o(.text.RCC_HSEConfig), (44 bytes).
    Removing hal_rcc.o(.ARM.exidx.text.RCC_HSEConfig), (8 bytes).
    Removing hal_rcc.o(.text.RCC_GetFlagStatus), (40 bytes).
    Removing hal_rcc.o(.ARM.exidx.text.RCC_GetFlagStatus), (8 bytes).
    Removing hal_rcc.o(.text.RCC_WaitForHSEStartUp), (36 bytes).
    Removing hal_rcc.o(.ARM.exidx.text.RCC_WaitForHSEStartUp), (8 bytes).
    Removing hal_rcc.o(.text.RCC_WaitForFlagStartUp), (68 bytes).
    Removing hal_rcc.o(.ARM.exidx.text.RCC_WaitForFlagStartUp), (8 bytes).
    Removing hal_rcc.o(.text.RCC_HSICmd), (20 bytes).
    Removing hal_rcc.o(.ARM.exidx.text.RCC_HSICmd), (8 bytes).
    Removing hal_rcc.o(.text.RCC_SYSCLKConfig), (20 bytes).
    Removing hal_rcc.o(.ARM.exidx.text.RCC_SYSCLKConfig), (8 bytes).
    Removing hal_rcc.o(.text.RCC_GetSYSCLKSource), (16 bytes).
    Removing hal_rcc.o(.ARM.exidx.text.RCC_GetSYSCLKSource), (8 bytes).
    Removing hal_rcc.o(.text.RCC_HCLKConfig), (20 bytes).
    Removing hal_rcc.o(.ARM.exidx.text.RCC_HCLKConfig), (8 bytes).
    Removing hal_rcc.o(.text.RCC_PCLK1Config), (20 bytes).
    Removing hal_rcc.o(.ARM.exidx.text.RCC_PCLK1Config), (8 bytes).
    Removing hal_rcc.o(.text.RCC_PCLK2Config), (24 bytes).
    Removing hal_rcc.o(.ARM.exidx.text.RCC_PCLK2Config), (8 bytes).
    Removing hal_rcc.o(.text.RCC_ADCCLKConfig), (24 bytes).
    Removing hal_rcc.o(.ARM.exidx.text.RCC_ADCCLKConfig), (8 bytes).
    Removing hal_rcc.o(.text.RCC_LSICmd), (20 bytes).
    Removing hal_rcc.o(.ARM.exidx.text.RCC_LSICmd), (8 bytes).
    Removing hal_rcc.o(.text.RCC_GetSysClockFreq), (32 bytes).
    Removing hal_rcc.o(.ARM.exidx.text.RCC_GetSysClockFreq), (8 bytes).
    Removing hal_rcc.o(.text.RCC_GetHCLKFreq), (48 bytes).
    Removing hal_rcc.o(.ARM.exidx.text.RCC_GetHCLKFreq), (8 bytes).
    Removing hal_rcc.o(.ARM.exidx.text.RCC_GetPCLK1Freq), (8 bytes).
    Removing hal_rcc.o(.ARM.exidx.text.RCC_GetPCLK2Freq), (8 bytes).
    Removing hal_rcc.o(.text.RCC_GetClocksFreq), (168 bytes).
    Removing hal_rcc.o(.ARM.exidx.text.RCC_GetClocksFreq), (8 bytes).
    Removing hal_rcc.o(.ARM.exidx.text.RCC_AHBPeriphClockCmd), (8 bytes).
    Removing hal_rcc.o(.ARM.exidx.text.RCC_APB2PeriphClockCmd), (8 bytes).
    Removing hal_rcc.o(.ARM.exidx.text.RCC_APB1PeriphClockCmd), (8 bytes).
    Removing hal_rcc.o(.text.RCC_APB2PeriphResetCmd), (28 bytes).
    Removing hal_rcc.o(.ARM.exidx.text.RCC_APB2PeriphResetCmd), (8 bytes).
    Removing hal_rcc.o(.text.RCC_APB1PeriphResetCmd), (28 bytes).
    Removing hal_rcc.o(.ARM.exidx.text.RCC_APB1PeriphResetCmd), (8 bytes).
    Removing hal_rcc.o(.text.RCC_AHBPeriphResetCmd), (28 bytes).
    Removing hal_rcc.o(.ARM.exidx.text.RCC_AHBPeriphResetCmd), (8 bytes).
    Removing hal_rcc.o(.text.RCC_ClockSecuritySystemCmd), (24 bytes).
    Removing hal_rcc.o(.ARM.exidx.text.RCC_ClockSecuritySystemCmd), (8 bytes).
    Removing hal_rcc.o(.text.RCC_MCOConfig), (20 bytes).
    Removing hal_rcc.o(.ARM.exidx.text.RCC_MCOConfig), (8 bytes).
    Removing hal_rcc.o(.text.RCC_ClearFlag), (20 bytes).
    Removing hal_rcc.o(.ARM.exidx.text.RCC_ClearFlag), (8 bytes).
    Removing hal_rcc.o(.text.RCC_ITConfig), (28 bytes).
    Removing hal_rcc.o(.ARM.exidx.text.RCC_ITConfig), (8 bytes).
    Removing hal_rcc.o(.text.RCC_GetITStatus), (12 bytes).
    Removing hal_rcc.o(.ARM.exidx.text.RCC_GetITStatus), (8 bytes).
    Removing hal_rcc.o(.text.RCC_ClearITPendingBit), (16 bytes).
    Removing hal_rcc.o(.ARM.exidx.text.RCC_ClearITPendingBit), (8 bytes).
    Removing hal_rcc.o(.text.exRCC_APB1PeriphReset), (20 bytes).
    Removing hal_rcc.o(.ARM.exidx.text.exRCC_APB1PeriphReset), (8 bytes).
    Removing hal_rcc.o(.text.exRCC_BackupReset), (2 bytes).
    Removing hal_rcc.o(.ARM.exidx.text.exRCC_BackupReset), (8 bytes).
    Removing hal_rcc.o(.ARM.exidx.text.exRCC_APB2PeriphReset), (8 bytes).
    Removing hal_rcc.o(.text.exRCC_SystickDisable), (16 bytes).
    Removing hal_rcc.o(.ARM.exidx.text.exRCC_SystickDisable), (8 bytes).
    Removing hal_rcc.o(.text.exRCC_SystickEnable), (112 bytes).
    Removing hal_rcc.o(.ARM.exidx.text.exRCC_SystickEnable), (8 bytes).
    Removing hal_spi.o(.text), (0 bytes).
    Removing hal_spi.o(.text.SPI_DeInit), (64 bytes).
    Removing hal_spi.o(.ARM.exidx.text.SPI_DeInit), (8 bytes).
    Removing hal_spi.o(.text.SPI_Init), (132 bytes).
    Removing hal_spi.o(.ARM.exidx.text.SPI_Init), (8 bytes).
    Removing hal_spi.o(.text.SPI_StructInit), (24 bytes).
    Removing hal_spi.o(.ARM.exidx.text.SPI_StructInit), (8 bytes).
    Removing hal_spi.o(.text.SPI_Cmd), (16 bytes).
    Removing hal_spi.o(.ARM.exidx.text.SPI_Cmd), (8 bytes).
    Removing hal_spi.o(.text.SPI_ITConfig), (36 bytes).
    Removing hal_spi.o(.ARM.exidx.text.SPI_ITConfig), (8 bytes).
    Removing hal_spi.o(.text.SPI_DMACmd), (20 bytes).
    Removing hal_spi.o(.ARM.exidx.text.SPI_DMACmd), (8 bytes).
    Removing hal_spi.o(.text.SPI_FifoTrigger), (20 bytes).
    Removing hal_spi.o(.ARM.exidx.text.SPI_FifoTrigger), (8 bytes).
    Removing hal_spi.o(.text.SPI_SendData), (58 bytes).
    Removing hal_spi.o(.ARM.exidx.text.SPI_SendData), (8 bytes).
    Removing hal_spi.o(.text.SPI_ReceiveData), (66 bytes).
    Removing hal_spi.o(.ARM.exidx.text.SPI_ReceiveData), (8 bytes).
    Removing hal_spi.o(.text.SPI_CSInternalSelected), (16 bytes).
    Removing hal_spi.o(.ARM.exidx.text.SPI_CSInternalSelected), (8 bytes).
    Removing hal_spi.o(.text.SPI_NSSInternalSoftwareConfig), (20 bytes).
    Removing hal_spi.o(.ARM.exidx.text.SPI_NSSInternalSoftwareConfig), (8 bytes).
    Removing hal_spi.o(.text.SPI_DataSizeConfig), (22 bytes).
    Removing hal_spi.o(.ARM.exidx.text.SPI_DataSizeConfig), (8 bytes).
    Removing hal_spi.o(.text.SPI_DataSizeTypeConfig), (18 bytes).
    Removing hal_spi.o(.ARM.exidx.text.SPI_DataSizeTypeConfig), (8 bytes).
    Removing hal_spi.o(.text.SPI_BiDirectionalLineConfig), (64 bytes).
    Removing hal_spi.o(.ARM.exidx.text.SPI_BiDirectionalLineConfig), (8 bytes).
    Removing hal_spi.o(.text.SPI_GetFlagStatus), (10 bytes).
    Removing hal_spi.o(.ARM.exidx.text.SPI_GetFlagStatus), (8 bytes).
    Removing hal_spi.o(.text.SPI_GetITStatus), (10 bytes).
    Removing hal_spi.o(.ARM.exidx.text.SPI_GetITStatus), (8 bytes).
    Removing hal_spi.o(.text.SPI_ClearITPendingBit), (8 bytes).
    Removing hal_spi.o(.ARM.exidx.text.SPI_ClearITPendingBit), (8 bytes).
    Removing hal_spi.o(.text.SPI_RxBytes), (4 bytes).
    Removing hal_spi.o(.ARM.exidx.text.SPI_RxBytes), (8 bytes).
    Removing hal_spi.o(.text.SPI_SlaveAdjust), (18 bytes).
    Removing hal_spi.o(.ARM.exidx.text.SPI_SlaveAdjust), (8 bytes).
    Removing hal_spi.o(.text.exSPI_ITCmd), (18 bytes).
    Removing hal_spi.o(.ARM.exidx.text.exSPI_ITCmd), (8 bytes).
    Removing hal_spi.o(.text.exSPI_ITConfig), (20 bytes).
    Removing hal_spi.o(.ARM.exidx.text.exSPI_ITConfig), (8 bytes).
    Removing hal_spi.o(.text.exSPI_DMACmd), (20 bytes).
    Removing hal_spi.o(.ARM.exidx.text.exSPI_DMACmd), (8 bytes).
    Removing hal_spi.o(.text.exSPI_CSInternalSelected), (16 bytes).
    Removing hal_spi.o(.ARM.exidx.text.exSPI_CSInternalSelected), (8 bytes).
    Removing hal_spi.o(.text.exSPI_DataEdgeAdjust), (40 bytes).
    Removing hal_spi.o(.ARM.exidx.text.exSPI_DataEdgeAdjust), (8 bytes).
    Removing hal_tim.o(.text), (0 bytes).
    Removing hal_tim.o(.text.TIM_DeInit), (124 bytes).
    Removing hal_tim.o(.ARM.exidx.text.TIM_DeInit), (8 bytes).
    Removing hal_tim.o(.ARM.exidx.text.TIM_TimeBaseInit), (8 bytes).
    Removing hal_tim.o(.ARM.exidx.text.TIM_OC1Init), (8 bytes).
    Removing hal_tim.o(.ARM.exidx.text.TIM_OC2Init), (8 bytes).
    Removing hal_tim.o(.ARM.exidx.text.TIM_OC3Init), (8 bytes).
    Removing hal_tim.o(.text.TIM_OC4Init), (76 bytes).
    Removing hal_tim.o(.ARM.exidx.text.TIM_OC4Init), (8 bytes).
    Removing hal_tim.o(.text.TIM_ICInit), (242 bytes).
    Removing hal_tim.o(.ARM.exidx.text.TIM_ICInit), (8 bytes).
    Removing hal_tim.o(.text.TIM_SetIC1Prescaler), (12 bytes).
    Removing hal_tim.o(.ARM.exidx.text.TIM_SetIC1Prescaler), (8 bytes).
    Removing hal_tim.o(.text.TIM_SetIC2Prescaler), (16 bytes).
    Removing hal_tim.o(.ARM.exidx.text.TIM_SetIC2Prescaler), (8 bytes).
    Removing hal_tim.o(.text.TIM_SetIC3Prescaler), (12 bytes).
    Removing hal_tim.o(.ARM.exidx.text.TIM_SetIC3Prescaler), (8 bytes).
    Removing hal_tim.o(.text.TIM_SetIC4Prescaler), (16 bytes).
    Removing hal_tim.o(.ARM.exidx.text.TIM_SetIC4Prescaler), (8 bytes).
    Removing hal_tim.o(.text.TIM_PWMIConfig), (216 bytes).
    Removing hal_tim.o(.ARM.exidx.text.TIM_PWMIConfig), (8 bytes).
    Removing hal_tim.o(.ARM.exidx.text.TIM_BDTRConfig), (8 bytes).
    Removing hal_tim.o(.ARM.exidx.text.TIM_TimeBaseStructInit), (8 bytes).
    Removing hal_tim.o(.ARM.exidx.text.TIM_OCStructInit), (8 bytes).
    Removing hal_tim.o(.text.TIM_ICStructInit), (12 bytes).
    Removing hal_tim.o(.ARM.exidx.text.TIM_ICStructInit), (8 bytes).
    Removing hal_tim.o(.ARM.exidx.text.TIM_BDTRStructInit), (8 bytes).
    Removing hal_tim.o(.ARM.exidx.text.TIM_Cmd), (8 bytes).
    Removing hal_tim.o(.ARM.exidx.text.TIM_CtrlPWMOutputs), (8 bytes).
    Removing hal_tim.o(.ARM.exidx.text.TIM_ITConfig), (8 bytes).
    Removing hal_tim.o(.ARM.exidx.text.TIM_GenerateEvent), (8 bytes).
    Removing hal_tim.o(.text.TIM_DMAConfig), (6 bytes).
    Removing hal_tim.o(.ARM.exidx.text.TIM_DMAConfig), (8 bytes).
    Removing hal_tim.o(.text.TIM_DMACmd), (20 bytes).
    Removing hal_tim.o(.ARM.exidx.text.TIM_DMACmd), (8 bytes).
    Removing hal_tim.o(.text.TIM_InternalClockConfig), (10 bytes).
    Removing hal_tim.o(.ARM.exidx.text.TIM_InternalClockConfig), (8 bytes).
    Removing hal_tim.o(.text.TIM_ITRxExternalClockConfig), (20 bytes).
    Removing hal_tim.o(.ARM.exidx.text.TIM_ITRxExternalClockConfig), (8 bytes).
    Removing hal_tim.o(.text.TIM_SelectInputTrigger), (12 bytes).
    Removing hal_tim.o(.ARM.exidx.text.TIM_SelectInputTrigger), (8 bytes).
    Removing hal_tim.o(.text.TIM_TIxExternalClockConfig), (88 bytes).
    Removing hal_tim.o(.ARM.exidx.text.TIM_TIxExternalClockConfig), (8 bytes).
    Removing hal_tim.o(.text.TIM_ETRConfig), (50 bytes).
    Removing hal_tim.o(.ARM.exidx.text.TIM_ETRConfig), (8 bytes).
    Removing hal_tim.o(.text.TIM_ETRClockMode1Config), (58 bytes).
    Removing hal_tim.o(.ARM.exidx.text.TIM_ETRClockMode1Config), (8 bytes).
    Removing hal_tim.o(.text.TIM_ETRClockMode2Config), (56 bytes).
    Removing hal_tim.o(.ARM.exidx.text.TIM_ETRClockMode2Config), (8 bytes).
    Removing hal_tim.o(.text.TIM_PrescalerConfig), (6 bytes).
    Removing hal_tim.o(.ARM.exidx.text.TIM_PrescalerConfig), (8 bytes).
    Removing hal_tim.o(.text.TIM_CounterModeConfig), (12 bytes).
    Removing hal_tim.o(.ARM.exidx.text.TIM_CounterModeConfig), (8 bytes).
    Removing hal_tim.o(.text.TIM_EncoderInterfaceConfig), (48 bytes).
    Removing hal_tim.o(.ARM.exidx.text.TIM_EncoderInterfaceConfig), (8 bytes).
    Removing hal_tim.o(.text.TIM_ForcedOC1Config), (12 bytes).
    Removing hal_tim.o(.ARM.exidx.text.TIM_ForcedOC1Config), (8 bytes).
    Removing hal_tim.o(.text.TIM_ForcedOC2Config), (16 bytes).
    Removing hal_tim.o(.ARM.exidx.text.TIM_ForcedOC2Config), (8 bytes).
    Removing hal_tim.o(.text.TIM_ForcedOC3Config), (12 bytes).
    Removing hal_tim.o(.ARM.exidx.text.TIM_ForcedOC3Config), (8 bytes).
    Removing hal_tim.o(.text.TIM_ForcedOC4Config), (16 bytes).
    Removing hal_tim.o(.ARM.exidx.text.TIM_ForcedOC4Config), (8 bytes).
    Removing hal_tim.o(.text.TIM_ARRPreloadConfig), (18 bytes).
    Removing hal_tim.o(.ARM.exidx.text.TIM_ARRPreloadConfig), (8 bytes).
    Removing hal_tim.o(.text.TIM_SelectCOM), (18 bytes).
    Removing hal_tim.o(.ARM.exidx.text.TIM_SelectCOM), (8 bytes).
    Removing hal_tim.o(.text.TIM_SelectCCDMA), (18 bytes).
    Removing hal_tim.o(.ARM.exidx.text.TIM_SelectCCDMA), (8 bytes).
    Removing hal_tim.o(.ARM.exidx.text.TIM_CCPreloadControl), (8 bytes).
    Removing hal_tim.o(.text.TIM_OC1PreloadConfig), (12 bytes).
    Removing hal_tim.o(.ARM.exidx.text.TIM_OC1PreloadConfig), (8 bytes).
    Removing hal_tim.o(.text.TIM_OC2PreloadConfig), (16 bytes).
    Removing hal_tim.o(.ARM.exidx.text.TIM_OC2PreloadConfig), (8 bytes).
    Removing hal_tim.o(.text.TIM_OC3PreloadConfig), (12 bytes).
    Removing hal_tim.o(.ARM.exidx.text.TIM_OC3PreloadConfig), (8 bytes).
    Removing hal_tim.o(.text.TIM_OC4PreloadConfig), (16 bytes).
    Removing hal_tim.o(.ARM.exidx.text.TIM_OC4PreloadConfig), (8 bytes).
    Removing hal_tim.o(.text.TIM_OC1FastConfig), (12 bytes).
    Removing hal_tim.o(.ARM.exidx.text.TIM_OC1FastConfig), (8 bytes).
    Removing hal_tim.o(.text.TIM_OC2FastConfig), (16 bytes).
    Removing hal_tim.o(.ARM.exidx.text.TIM_OC2FastConfig), (8 bytes).
    Removing hal_tim.o(.text.TIM_OC3FastConfig), (12 bytes).
    Removing hal_tim.o(.ARM.exidx.text.TIM_OC3FastConfig), (8 bytes).
    Removing hal_tim.o(.text.TIM_OC4FastConfig), (16 bytes).
    Removing hal_tim.o(.ARM.exidx.text.TIM_OC4FastConfig), (8 bytes).
    Removing hal_tim.o(.text.TIM_ClearOC1Ref), (12 bytes).
    Removing hal_tim.o(.ARM.exidx.text.TIM_ClearOC1Ref), (8 bytes).
    Removing hal_tim.o(.text.TIM_ClearOC2Ref), (16 bytes).
    Removing hal_tim.o(.ARM.exidx.text.TIM_ClearOC2Ref), (8 bytes).
    Removing hal_tim.o(.text.TIM_ClearOC3Ref), (12 bytes).
    Removing hal_tim.o(.ARM.exidx.text.TIM_ClearOC3Ref), (8 bytes).
    Removing hal_tim.o(.text.TIM_ClearOC4Ref), (16 bytes).
    Removing hal_tim.o(.ARM.exidx.text.TIM_ClearOC4Ref), (8 bytes).
    Removing hal_tim.o(.text.TIM_OC1PolarityConfig), (12 bytes).
    Removing hal_tim.o(.ARM.exidx.text.TIM_OC1PolarityConfig), (8 bytes).
    Removing hal_tim.o(.text.TIM_OC1NPolarityConfig), (12 bytes).
    Removing hal_tim.o(.ARM.exidx.text.TIM_OC1NPolarityConfig), (8 bytes).
    Removing hal_tim.o(.text.TIM_OC2PolarityConfig), (14 bytes).
    Removing hal_tim.o(.ARM.exidx.text.TIM_OC2PolarityConfig), (8 bytes).
    Removing hal_tim.o(.text.TIM_OC2NPolarityConfig), (14 bytes).
    Removing hal_tim.o(.ARM.exidx.text.TIM_OC2NPolarityConfig), (8 bytes).
    Removing hal_tim.o(.text.TIM_OC3PolarityConfig), (16 bytes).
    Removing hal_tim.o(.ARM.exidx.text.TIM_OC3PolarityConfig), (8 bytes).
    Removing hal_tim.o(.text.TIM_OC3NPolarityConfig), (16 bytes).
    Removing hal_tim.o(.ARM.exidx.text.TIM_OC3NPolarityConfig), (8 bytes).
    Removing hal_tim.o(.text.TIM_OC4PolarityConfig), (16 bytes).
    Removing hal_tim.o(.ARM.exidx.text.TIM_OC4PolarityConfig), (8 bytes).
    Removing hal_tim.o(.ARM.exidx.text.TIM_CCxCmd), (8 bytes).
    Removing hal_tim.o(.ARM.exidx.text.TIM_CCxNCmd), (8 bytes).
    Removing hal_tim.o(.ARM.exidx.text.TIM_SelectOCxM), (8 bytes).
    Removing hal_tim.o(.text.TIM_UpdateDisableConfig), (18 bytes).
    Removing hal_tim.o(.ARM.exidx.text.TIM_UpdateDisableConfig), (8 bytes).
    Removing hal_tim.o(.text.TIM_UpdateRequestConfig), (12 bytes).
    Removing hal_tim.o(.ARM.exidx.text.TIM_UpdateRequestConfig), (8 bytes).
    Removing hal_tim.o(.text.TIM_SelectHallSensor), (18 bytes).
    Removing hal_tim.o(.ARM.exidx.text.TIM_SelectHallSensor), (8 bytes).
    Removing hal_tim.o(.text.TIM_SelectOnePulseMode), (12 bytes).
    Removing hal_tim.o(.ARM.exidx.text.TIM_SelectOnePulseMode), (8 bytes).
    Removing hal_tim.o(.text.TIM_SelectOutputTrigger), (12 bytes).
    Removing hal_tim.o(.ARM.exidx.text.TIM_SelectOutputTrigger), (8 bytes).
    Removing hal_tim.o(.text.TIM_SelectSlaveMode), (12 bytes).
    Removing hal_tim.o(.ARM.exidx.text.TIM_SelectSlaveMode), (8 bytes).
    Removing hal_tim.o(.text.TIM_SelectMasterSlaveMode), (12 bytes).
    Removing hal_tim.o(.ARM.exidx.text.TIM_SelectMasterSlaveMode), (8 bytes).
    Removing hal_tim.o(.text.TIM_SetAutoreload), (4 bytes).
    Removing hal_tim.o(.ARM.exidx.text.TIM_SetAutoreload), (8 bytes).
    Removing hal_tim.o(.text.TIM_SetClockDivision), (14 bytes).
    Removing hal_tim.o(.ARM.exidx.text.TIM_SetClockDivision), (8 bytes).
    Removing hal_tim.o(.text.TIM_SetCounter), (18 bytes).
    Removing hal_tim.o(.ARM.exidx.text.TIM_SetCounter), (8 bytes).
    Removing hal_tim.o(.text.TIM_SetCompare1), (18 bytes).
    Removing hal_tim.o(.ARM.exidx.text.TIM_SetCompare1), (8 bytes).
    Removing hal_tim.o(.text.TIM_SetCompare2), (18 bytes).
    Removing hal_tim.o(.ARM.exidx.text.TIM_SetCompare2), (8 bytes).
    Removing hal_tim.o(.text.TIM_SetCompare3), (18 bytes).
    Removing hal_tim.o(.ARM.exidx.text.TIM_SetCompare3), (8 bytes).
    Removing hal_tim.o(.text.TIM_SetCompare4), (18 bytes).
    Removing hal_tim.o(.ARM.exidx.text.TIM_SetCompare4), (8 bytes).
    Removing hal_tim.o(.text.TIM_GetCapture1), (4 bytes).
    Removing hal_tim.o(.ARM.exidx.text.TIM_GetCapture1), (8 bytes).
    Removing hal_tim.o(.text.TIM_GetCapture2), (4 bytes).
    Removing hal_tim.o(.ARM.exidx.text.TIM_GetCapture2), (8 bytes).
    Removing hal_tim.o(.text.TIM_GetCapture3), (4 bytes).
    Removing hal_tim.o(.ARM.exidx.text.TIM_GetCapture3), (8 bytes).
    Removing hal_tim.o(.text.TIM_GetCapture4), (4 bytes).
    Removing hal_tim.o(.ARM.exidx.text.TIM_GetCapture4), (8 bytes).
    Removing hal_tim.o(.text.TIM_GetCounter), (4 bytes).
    Removing hal_tim.o(.ARM.exidx.text.TIM_GetCounter), (8 bytes).
    Removing hal_tim.o(.text.TIM_GetPrescaler), (6 bytes).
    Removing hal_tim.o(.ARM.exidx.text.TIM_GetPrescaler), (8 bytes).
    Removing hal_tim.o(.text.TIM_GetFlagStatus), (10 bytes).
    Removing hal_tim.o(.ARM.exidx.text.TIM_GetFlagStatus), (8 bytes).
    Removing hal_tim.o(.text.TIM_ClearFlag), (8 bytes).
    Removing hal_tim.o(.ARM.exidx.text.TIM_ClearFlag), (8 bytes).
    Removing hal_tim.o(.ARM.exidx.text.TIM_GetITStatus), (8 bytes).
    Removing hal_tim.o(.ARM.exidx.text.TIM_ClearITPendingBit), (8 bytes).
    Removing hal_tim.o(.text.exTIM_SetIC1Plority), (18 bytes).
    Removing hal_tim.o(.ARM.exidx.text.exTIM_SetIC1Plority), (8 bytes).
    Removing hal_tim.o(.text.exTIM_SetIC2Plority), (18 bytes).
    Removing hal_tim.o(.ARM.exidx.text.exTIM_SetIC2Plority), (8 bytes).
    Removing hal_tim.o(.text.exTIM_SetIC3Plority), (20 bytes).
    Removing hal_tim.o(.ARM.exidx.text.exTIM_SetIC3Plority), (8 bytes).
    Removing hal_tim.o(.text.exTIM_SetIC4Plority), (20 bytes).
    Removing hal_tim.o(.ARM.exidx.text.exTIM_SetIC4Plority), (8 bytes).
    Removing hal_tim.o(.text.exTIM_SetCompare5), (6 bytes).
    Removing hal_tim.o(.ARM.exidx.text.exTIM_SetCompare5), (8 bytes).
    Removing hal_tim.o(.text.exTIM_GetCapture5), (4 bytes).
    Removing hal_tim.o(.ARM.exidx.text.exTIM_GetCapture5), (8 bytes).
    Removing hal_tim.o(.text.exTIM_OC5Init), (72 bytes).
    Removing hal_tim.o(.ARM.exidx.text.exTIM_OC5Init), (8 bytes).
    Removing hal_tim.o(.text.exTIM_OC5PreloadConfig), (12 bytes).
    Removing hal_tim.o(.ARM.exidx.text.exTIM_OC5PreloadConfig), (8 bytes).
    Removing hal_tim.o(.text.exTIM_OC5PolarityConfig), (16 bytes).
    Removing hal_tim.o(.ARM.exidx.text.exTIM_OC5PolarityConfig), (8 bytes).
    Removing hal_tim.o(.text.exTIM_OC5FastConfig), (12 bytes).
    Removing hal_tim.o(.ARM.exidx.text.exTIM_OC5FastConfig), (8 bytes).
    Removing hal_tim.o(.text.exTIM_ClearOC5Ref), (12 bytes).
    Removing hal_tim.o(.ARM.exidx.text.exTIM_ClearOC5Ref), (8 bytes).
    Removing hal_tim.o(.text.exTIM_DirectOutput), (20 bytes).
    Removing hal_tim.o(.ARM.exidx.text.exTIM_DirectOutput), (8 bytes).
    Removing hal_uart.o(.text), (0 bytes).
    Removing hal_uart.o(.text.UART_DeInit), (44 bytes).
    Removing hal_uart.o(.ARM.exidx.text.UART_DeInit), (8 bytes).
    Removing hal_uart.o(.ARM.exidx.text.UART_Init), (8 bytes).
    Removing hal_uart.o(.ARM.exidx.text.UART_StructInit), (8 bytes).
    Removing hal_uart.o(.ARM.exidx.text.UART_Cmd), (8 bytes).
    Removing hal_uart.o(.text.UART_ITConfig), (20 bytes).
    Removing hal_uart.o(.ARM.exidx.text.UART_ITConfig), (8 bytes).
    Removing hal_uart.o(.ARM.exidx.text.UART_DMACmd), (8 bytes).
    Removing hal_uart.o(.ARM.exidx.text.UART_SendData), (8 bytes).
    Removing hal_uart.o(.text.UART_ReceiveData), (6 bytes).
    Removing hal_uart.o(.ARM.exidx.text.UART_ReceiveData), (8 bytes).
    Removing hal_uart.o(.ARM.exidx.text.UART_GetFlagStatus), (8 bytes).
    Removing hal_uart.o(.text.UART_GetITStatus), (10 bytes).
    Removing hal_uart.o(.ARM.exidx.text.UART_GetITStatus), (8 bytes).
    Removing hal_uart.o(.text.UART_ClearITPendingBit), (4 bytes).
    Removing hal_uart.o(.ARM.exidx.text.UART_ClearITPendingBit), (8 bytes).
    Removing hal_uart.o(.text.UART_WakeUpConfig), (14 bytes).
    Removing hal_uart.o(.ARM.exidx.text.UART_WakeUpConfig), (8 bytes).
    Removing hal_uart.o(.text.UART_ReceiverWakeUpCmd), (16 bytes).
    Removing hal_uart.o(.ARM.exidx.text.UART_ReceiverWakeUpCmd), (8 bytes).
    Removing hal_uart.o(.text.UART_SetRXAddress), (12 bytes).
    Removing hal_uart.o(.ARM.exidx.text.UART_SetRXAddress), (8 bytes).
    Removing hal_uart.o(.text.UART_SetRXMASK), (12 bytes).
    Removing hal_uart.o(.ARM.exidx.text.UART_SetRXMASK), (8 bytes).
    Removing hal_uart.o(.text.UART_Enable9bit), (16 bytes).
    Removing hal_uart.o(.ARM.exidx.text.UART_Enable9bit), (8 bytes).
    Removing hal_uart.o(.text.UART_Set9bitLevel), (16 bytes).
    Removing hal_uart.o(.ARM.exidx.text.UART_Set9bitLevel), (8 bytes).
    Removing hal_uart.o(.text.UART_Set9bitPolarity), (14 bytes).
    Removing hal_uart.o(.ARM.exidx.text.UART_Set9bitPolarity), (8 bytes).
    Removing hal_uart.o(.text.UART_Set9bitAutomaticToggle), (16 bytes).
    Removing hal_uart.o(.ARM.exidx.text.UART_Set9bitAutomaticToggle), (8 bytes).
    Removing hal_uart.o(.text.UART_HalfDuplexCmd), (16 bytes).
    Removing hal_uart.o(.ARM.exidx.text.UART_HalfDuplexCmd), (8 bytes).
    Removing hal_uart.o(.text.UART_SetGuardTime), (16 bytes).
    Removing hal_uart.o(.ARM.exidx.text.UART_SetGuardTime), (8 bytes).
    Removing hal_uart.o(.text.UART_SmartCardCmd), (12 bytes).
    Removing hal_uart.o(.ARM.exidx.text.UART_SmartCardCmd), (8 bytes).
    Removing hal_uart.o(.text.UART_SmartCardNACKCmd), (14 bytes).
    Removing hal_uart.o(.ARM.exidx.text.UART_SmartCardNACKCmd), (8 bytes).
    Removing hal_uart.o(.text.UART_SendBreak), (10 bytes).
    Removing hal_uart.o(.ARM.exidx.text.UART_SendBreak), (8 bytes).
    Removing hal_uid.o(.text), (0 bytes).
    Removing hal_uid.o(.text.GetChipUID), (28 bytes).
    Removing hal_uid.o(.ARM.exidx.text.GetChipUID), (8 bytes).
    Removing hal_uid.o(.bss.device_id_data), (12 bytes).
    Removing hal_ver.o(.text), (0 bytes).
    Removing hal_ver.o(.text.Get_MM32LibVersion), (8 bytes).
    Removing hal_ver.o(.ARM.exidx.text.Get_MM32LibVersion), (8 bytes).
    Removing hal_ver.o(.text.Get_MM32LibReleaseDate), (8 bytes).
    Removing hal_ver.o(.ARM.exidx.text.Get_MM32LibReleaseDate), (8 bytes).
    Removing hal_ver.o(.text.Get_ChipsetREVID), (16 bytes).
    Removing hal_ver.o(.ARM.exidx.text.Get_ChipsetREVID), (8 bytes).
    Removing hal_ver.o(.text.Get_ChipsetDEVID), (12 bytes).
    Removing hal_ver.o(.ARM.exidx.text.Get_ChipsetDEVID), (8 bytes).
    Removing hal_ver.o(.text.Get_ChipsetUIDw0), (12 bytes).
    Removing hal_ver.o(.ARM.exidx.text.Get_ChipsetUIDw0), (8 bytes).
    Removing hal_ver.o(.text.Get_ChipsetUIDw1), (12 bytes).
    Removing hal_ver.o(.ARM.exidx.text.Get_ChipsetUIDw1), (8 bytes).
    Removing hal_ver.o(.text.Get_ChipsetUIDw2), (12 bytes).
    Removing hal_ver.o(.ARM.exidx.text.Get_ChipsetUIDw2), (8 bytes).
    Removing hal_wwdg.o(.text), (0 bytes).
    Removing hal_wwdg.o(.text.WWDG_DeInit), (12 bytes).
    Removing hal_wwdg.o(.ARM.exidx.text.WWDG_DeInit), (8 bytes).
    Removing hal_wwdg.o(.text.WWDG_SetPrescaler), (20 bytes).
    Removing hal_wwdg.o(.ARM.exidx.text.WWDG_SetPrescaler), (8 bytes).
    Removing hal_wwdg.o(.text.WWDG_SetWindowValue), (20 bytes).
    Removing hal_wwdg.o(.ARM.exidx.text.WWDG_SetWindowValue), (8 bytes).
    Removing hal_wwdg.o(.text.WWDG_EnableIT), (20 bytes).
    Removing hal_wwdg.o(.ARM.exidx.text.WWDG_EnableIT), (8 bytes).
    Removing hal_wwdg.o(.text.WWDG_SetCounter), (16 bytes).
    Removing hal_wwdg.o(.ARM.exidx.text.WWDG_SetCounter), (8 bytes).
    Removing hal_wwdg.o(.text.WWDG_GetCounter), (16 bytes).
    Removing hal_wwdg.o(.ARM.exidx.text.WWDG_GetCounter), (8 bytes).
    Removing hal_wwdg.o(.text.WWDG_Enable), (16 bytes).
    Removing hal_wwdg.o(.ARM.exidx.text.WWDG_Enable), (8 bytes).
    Removing hal_wwdg.o(.text.WWDG_GetFlagStatus), (16 bytes).
    Removing hal_wwdg.o(.ARM.exidx.text.WWDG_GetFlagStatus), (8 bytes).
    Removing hal_wwdg.o(.text.WWDG_ClearFlag), (16 bytes).
    Removing hal_wwdg.o(.ARM.exidx.text.WWDG_ClearFlag), (8 bytes).
    Removing system_mm32spin06xx_s.o(.text), (0 bytes).
    Removing system_mm32spin06xx_s.o(.ARM.exidx.text.SystemInit), (8 bytes).
    Removing system_mm32spin06xx_s.o(.text.AutoCalPllFactor), (108 bytes).
    Removing system_mm32spin06xx_s.o(.ARM.exidx.text.AutoCalPllFactor), (8 bytes).
    Removing system_mm32spin06xx_s.o(.rodata.AHBPrescTable), (16 bytes).

827 unused section(s) (total 16127 bytes) removed from the image.

==============================================================================

Image Symbol Table

    Local Symbols

    Symbol Name                              Value     Ov Type        Size  Object(Section)

    ../clib/angel/boardlib.s                 0x00000000   Number         0  boardinit1.o ABSOLUTE
    ../clib/angel/boardlib.s                 0x00000000   Number         0  boardinit2.o ABSOLUTE
    ../clib/angel/boardlib.s                 0x00000000   Number         0  boardinit3.o ABSOLUTE
    ../clib/angel/boardlib.s                 0x00000000   Number         0  boardshut.o ABSOLUTE
    ../clib/angel/handlers.s                 0x00000000   Number         0  __scatter_copy.o ABSOLUTE
    ../clib/angel/handlers.s                 0x00000000   Number         0  __scatter_zi.o ABSOLUTE
    ../clib/angel/kernel.s                   0x00000000   Number         0  __rtentry.o ABSOLUTE
    ../clib/angel/kernel.s                   0x00000000   Number         0  __rtentry2.o ABSOLUTE
    ../clib/angel/kernel.s                   0x00000000   Number         0  __rtentry4.o ABSOLUTE
    ../clib/angel/kernel.s                   0x00000000   Number         0  rtexit.o ABSOLUTE
    ../clib/angel/kernel.s                   0x00000000   Number         0  rtexit2.o ABSOLUTE
    ../clib/angel/rt.s                       0x00000000   Number         0  aeabi_idiv0.o ABSOLUTE
    ../clib/angel/rt.s                       0x00000000   Number         0  aeabi_idiv0_sigfpe.o ABSOLUTE
    ../clib/angel/rt.s                       0x00000000   Number         0  rt_div0.o ABSOLUTE
    ../clib/angel/rt.s                       0x00000000   Number         0  rt_locale.o ABSOLUTE
    ../clib/angel/rt.s                       0x00000000   Number         0  rt_locale_intlibspace.o ABSOLUTE
    ../clib/angel/rt.s                       0x00000000   Number         0  rt_raise.o ABSOLUTE
    ../clib/angel/scatterp.s                 0x00000000   Number         0  __scatter.o ABSOLUTE
    ../clib/angel/startup.s                  0x00000000   Number         0  __main.o ABSOLUTE
    ../clib/angel/sys.s                      0x00000000   Number         0  libspace.o ABSOLUTE
    ../clib/angel/sys.s                      0x00000000   Number         0  sys_stackheap_outer.o ABSOLUTE
    ../clib/angel/sys.s                      0x00000000   Number         0  tempstk.o ABSOLUTE
    ../clib/angel/sys.s                      0x00000000   Number         0  use_no_semi.o ABSOLUTE
    ../clib/angel/sys.s                      0x00000000   Number         0  indicate_semi.o ABSOLUTE
    ../clib/angel/sysapp.c                   0x00000000   Number         0  sys_exit.o ABSOLUTE
    ../clib/angel/sysapp.c                   0x00000000   Number         0  sys_exit_hlt.o ABSOLUTE
    ../clib/angel/sysapp.c                   0x00000000   Number         0  sys_wrch.o ABSOLUTE
    ../clib/angel/sysapp.c                   0x00000000   Number         0  sys_command.o ABSOLUTE
    ../clib/angel/sysapp.c                   0x00000000   Number         0  sys_wrch_hlt.o ABSOLUTE
    ../clib/angel/sysapp.c                   0x00000000   Number         0  sys_command_hlt.o ABSOLUTE
    ../clib/armsys.c                         0x00000000   Number         0  argv_veneer.o ABSOLUTE
    ../clib/armsys.c                         0x00000000   Number         0  _get_argv_nomalloc.o ABSOLUTE
    ../clib/armsys.c                         0x00000000   Number         0  no_argv.o ABSOLUTE
    ../clib/bigflt.c                         0x00000000   Number         0  bigflt0.o ABSOLUTE
    ../clib/btod.c                           0x00000000   Number         0  btod.o ABSOLUTE
    ../clib/btod_accurate.c                  0x00000000   Number         0  btod_accurate.o ABSOLUTE
    ../clib/btod_accurate.c                  0x00000000   Number         0  btod_accurate_common.o ABSOLUTE
    ../clib/division.c                       0x00000000   Number         0  lludiv10.o ABSOLUTE
    ../clib/division.c                       0x00000000   Number         0  rtudiv10.o ABSOLUTE
    ../clib/division.s                       0x00000000   Number         0  aeabi_sdivfast.o ABSOLUTE
    ../clib/division.s                       0x00000000   Number         0  aeabi_sdivfast_div0.o ABSOLUTE
    ../clib/heapalloc.c                      0x00000000   Number         0  hrguard.o ABSOLUTE
    ../clib/heapaux.c                        0x00000000   Number         0  heapauxi.o ABSOLUTE
    ../clib/libinit.s                        0x00000000   Number         0  libinit.o ABSOLUTE
    ../clib/libinit.s                        0x00000000   Number         0  libinit2.o ABSOLUTE
    ../clib/libinit.s                        0x00000000   Number         0  libshutdown.o ABSOLUTE
    ../clib/libinit.s                        0x00000000   Number         0  libshutdown2.o ABSOLUTE
    ../clib/locale.s                         0x00000000   Number         0  lc_numeric_c.o ABSOLUTE
    ../clib/longlong.c                       0x00000000   Number         0  llushr.o ABSOLUTE
    ../clib/memcpset.c                       0x00000000   Number         0  aeabi_memset4.o ABSOLUTE
    ../clib/memcpset.c                       0x00000000   Number         0  rt_memclr.o ABSOLUTE
    ../clib/memcpset.s                       0x00000000   Number         0  strcmpv6m.o ABSOLUTE
    ../clib/printf.c                         0x00000000   Number         0  __2sprintf.o ABSOLUTE
    ../clib/printf.c                         0x00000000   Number         0  noretval__2sprintf.o ABSOLUTE
    ../clib/printf.c                         0x00000000   Number         0  __printf.o ABSOLUTE
    ../clib/printf.c                         0x00000000   Number         0  __printf_flags.o ABSOLUTE
    ../clib/printf.c                         0x00000000   Number         0  __printf_ss.o ABSOLUTE
    ../clib/printf.c                         0x00000000   Number         0  __printf_flags_ss.o ABSOLUTE
    ../clib/printf.c                         0x00000000   Number         0  __printf_wp.o ABSOLUTE
    ../clib/printf.c                         0x00000000   Number         0  __printf_flags_wp.o ABSOLUTE
    ../clib/printf.c                         0x00000000   Number         0  __printf_ss_wp.o ABSOLUTE
    ../clib/printf.c                         0x00000000   Number         0  __printf_flags_ss_wp.o ABSOLUTE
    ../clib/printf.c                         0x00000000   Number         0  _printf_fp_dec.o ABSOLUTE
    ../clib/printf.c                         0x00000000   Number         0  _printf_fp_dec_accurate.o ABSOLUTE
    ../clib/printf.c                         0x00000000   Number         0  _printf_char_common.o ABSOLUTE
    ../clib/printf.c                         0x00000000   Number         0  _sputc.o ABSOLUTE
    ../clib/printf.c                         0x00000000   Number         0  _printf_fp_infnan.o ABSOLUTE
    ../clib/printf.c                         0x00000000   Number         0  __printf_nopercent.o ABSOLUTE
    ../clib/printf_percent.s                 0x00000000   Number         0  _printf_f.o ABSOLUTE
    ../clib/printf_percent.s                 0x00000000   Number         0  _printf_percent.o ABSOLUTE
    ../clib/printf_percent.s                 0x00000000   Number         0  _printf_percent_end.o ABSOLUTE
    ../clib/signal.c                         0x00000000   Number         0  defsig_fpe_outer.o ABSOLUTE
    ../clib/signal.c                         0x00000000   Number         0  defsig_fpe_formal.o ABSOLUTE
    ../clib/signal.c                         0x00000000   Number         0  defsig_exit.o ABSOLUTE
    ../clib/signal.c                         0x00000000   Number         0  defsig_fpe_inner.o ABSOLUTE
    ../clib/signal.c                         0x00000000   Number         0  __raise.o ABSOLUTE
    ../clib/signal.c                         0x00000000   Number         0  defsig_general.o ABSOLUTE
    ../clib/signal.c                         0x00000000   Number         0  defsig_rtmem_outer.o ABSOLUTE
    ../clib/signal.c                         0x00000000   Number         0  defsig_rtmem_formal.o ABSOLUTE
    ../clib/signal.c                         0x00000000   Number         0  defsig_abrt_inner.o ABSOLUTE
    ../clib/signal.c                         0x00000000   Number         0  defsig_rtred_inner.o ABSOLUTE
    ../clib/signal.c                         0x00000000   Number         0  defsig_rtmem_inner.o ABSOLUTE
    ../clib/signal.c                         0x00000000   Number         0  defsig_stak_inner.o ABSOLUTE
    ../clib/signal.c                         0x00000000   Number         0  defsig_pvfn_inner.o ABSOLUTE
    ../clib/signal.c                         0x00000000   Number         0  defsig_cppl_inner.o ABSOLUTE
    ../clib/signal.c                         0x00000000   Number         0  defsig_segv_inner.o ABSOLUTE
    ../clib/signal.c                         0x00000000   Number         0  defsig_other.o ABSOLUTE
    ../clib/signal.s                         0x00000000   Number         0  defsig.o ABSOLUTE
    ../clib/stdlib.c                         0x00000000   Number         0  exit.o ABSOLUTE
    ../fplib/cfplib/cmp.c                    0x00000000   Number         0  fcmp.o ABSOLUTE
    ../fplib/cfplib/cmpret.c                 0x00000000   Number         0  cmpret.o ABSOLUTE
    ../fplib/cfplib/d2f.c                    0x00000000   Number         0  d2f.o ABSOLUTE
    ../fplib/cfplib/ddiv.c                   0x00000000   Number         0  ddiv.o ABSOLUTE
    ../fplib/cfplib/dmul.c                   0x00000000   Number         0  dmul.o ABSOLUTE
    ../fplib/cfplib/f2d.c                    0x00000000   Number         0  f2d.o ABSOLUTE
    ../fplib/cfplib/fcmpin.c                 0x00000000   Number         0  fcmpin.o ABSOLUTE
    ../fplib/cfplib/ffix.c                   0x00000000   Number         0  dfixi.o ABSOLUTE
    ../fplib/cfplib/ffix.c                   0x00000000   Number         0  dfixui.o ABSOLUTE
    ../fplib/cfplib/fflt.c                   0x00000000   Number         0  dflti.o ABSOLUTE
    ../fplib/cfplib/fpinit.c                 0x00000000   Number         0  fpinit.o ABSOLUTE
    ../fplib/cfplib/ieee_status.c            0x00000000   Number         0  ieee_status.o ABSOLUTE
    ../fplib/cfplib/nan2.c                   0x00000000   Number         0  fnan2.o ABSOLUTE
    ../fplib/cfplib/retnan.c                 0x00000000   Number         0  retnan.o ABSOLUTE
    ../fplib/feqf6m.s                        0x00000000   Number         0  feqf.o ABSOLUTE
    ../fplib/fgeqf6m.s                       0x00000000   Number         0  fgef.o ABSOLUTE
    ../fplib/fleqf6m.s                       0x00000000   Number         0  flef.o ABSOLUTE
    ../fplib/printf1.s                       0x00000000   Number         0  printf1.o ABSOLUTE
    ../fplib/usenofp.s                       0x00000000   Number         0  usenofp.o ABSOLUTE
    ../mathlib/fpclassify.c                  0x00000000   Number         0  fpclassify.o ABSOLUTE
    RTE/Device/MM32SPIN05PF/startup_mm32spin06xx_s_keil.s 0x00000000   Number         0  startup_mm32spin06xx_s_keil.o ABSOLUTE
    autodetect.c                             0x00000000   Number         0  autodetect.o ABSOLUTE
    bldc.c                                   0x00000000   Number         0  bldc.o ABSOLUTE
    calculation.c                            0x00000000   Number         0  calculation.o ABSOLUTE
    dc.s                                     0x00000000   Number         0  dc.o ABSOLUTE
    delay.c                                  0x00000000   Number         0  delay.o ABSOLUTE
    hal_adc.c                                0x00000000   Number         0  hal_adc.o ABSOLUTE
    hal_comp.c                               0x00000000   Number         0  hal_comp.o ABSOLUTE
    hal_crc.c                                0x00000000   Number         0  hal_crc.o ABSOLUTE
    hal_dbg.c                                0x00000000   Number         0  hal_dbg.o ABSOLUTE
    hal_div.c                                0x00000000   Number         0  hal_div.o ABSOLUTE
    hal_dma.c                                0x00000000   Number         0  hal_dma.o ABSOLUTE
    hal_exti.c                               0x00000000   Number         0  hal_exti.o ABSOLUTE
    hal_flash.c                              0x00000000   Number         0  hal_flash.o ABSOLUTE
    hal_gpio.c                               0x00000000   Number         0  hal_gpio.o ABSOLUTE
    hal_i2c.c                                0x00000000   Number         0  hal_i2c.o ABSOLUTE
    hal_iwdg.c                               0x00000000   Number         0  hal_iwdg.o ABSOLUTE
    hal_misc.c                               0x00000000   Number         0  hal_misc.o ABSOLUTE
    hal_pwr.c                                0x00000000   Number         0  hal_pwr.o ABSOLUTE
    hal_rcc.c                                0x00000000   Number         0  hal_rcc.o ABSOLUTE
    hal_spi.c                                0x00000000   Number         0  hal_spi.o ABSOLUTE
    hal_tim.c                                0x00000000   Number         0  hal_tim.o ABSOLUTE
    hal_uart.c                               0x00000000   Number         0  hal_uart.o ABSOLUTE
    hal_uid.c                                0x00000000   Number         0  hal_uid.o ABSOLUTE
    hal_ver.c                                0x00000000   Number         0  hal_ver.o ABSOLUTE
    hal_wwdg.c                               0x00000000   Number         0  hal_wwdg.o ABSOLUTE
    hardware.c                               0x00000000   Number         0  hardware.o ABSOLUTE
    initialize.c                             0x00000000   Number         0  initialize.o ABSOLUTE
    interrupt.c                              0x00000000   Number         0  interrupt.o ABSOLUTE
    main.c                                   0x00000000   Number         0  main.o ABSOLUTE
    remoteUartBus.c                          0x00000000   Number         0  remoteuartbus.o ABSOLUTE
    system_mm32spin06xx_s.c                  0x00000000   Number         0  system_mm32spin06xx_s.o ABSOLUTE
    uart.c                                   0x00000000   Number         0  uart.o ABSOLUTE
    RESET                                    0x08000000   Section      192  startup_mm32spin06xx_s_keil.o(RESET)
    !!!main                                  0x080000c0   Section        8  __main.o(!!!main)
    !!!scatter                               0x080000c8   Section       60  __scatter.o(!!!scatter)
    !!handler_copy                           0x08000104   Section       26  __scatter_copy.o(!!handler_copy)
    !!handler_zi                             0x08000120   Section       28  __scatter_zi.o(!!handler_zi)
    .ARM.Collect$$_printf_percent$$00000000  0x0800013c   Section        2  _printf_percent.o(.ARM.Collect$$_printf_percent$$00000000)
    .ARM.Collect$$_printf_percent$$00000003  0x0800013e   Section       10  _printf_f.o(.ARM.Collect$$_printf_percent$$00000003)
    .ARM.Collect$$_printf_percent$$00000017  0x08000148   Section        4  _printf_percent_end.o(.ARM.Collect$$_printf_percent$$00000017)
    .ARM.Collect$$libinit$$00000000          0x0800014c   Section        2  libinit.o(.ARM.Collect$$libinit$$00000000)
    .ARM.Collect$$libinit$$00000002          0x0800014e   Section        0  libinit2.o(.ARM.Collect$$libinit$$00000002)
    .ARM.Collect$$libinit$$00000004          0x0800014e   Section        0  libinit2.o(.ARM.Collect$$libinit$$00000004)
    .ARM.Collect$$libinit$$00000006          0x0800014e   Section        0  libinit2.o(.ARM.Collect$$libinit$$00000006)
    .ARM.Collect$$libinit$$0000000C          0x0800014e   Section        0  libinit2.o(.ARM.Collect$$libinit$$0000000C)
    .ARM.Collect$$libinit$$0000000E          0x0800014e   Section        0  libinit2.o(.ARM.Collect$$libinit$$0000000E)
    .ARM.Collect$$libinit$$00000010          0x0800014e   Section        0  libinit2.o(.ARM.Collect$$libinit$$00000010)
    .ARM.Collect$$libinit$$00000011          0x0800014e   Section        6  libinit2.o(.ARM.Collect$$libinit$$00000011)
    .ARM.Collect$$libinit$$00000013          0x08000154   Section        0  libinit2.o(.ARM.Collect$$libinit$$00000013)
    .ARM.Collect$$libinit$$00000015          0x08000154   Section        0  libinit2.o(.ARM.Collect$$libinit$$00000015)
    .ARM.Collect$$libinit$$00000017          0x08000154   Section        0  libinit2.o(.ARM.Collect$$libinit$$00000017)
    .ARM.Collect$$libinit$$00000018          0x08000154   Section       10  libinit2.o(.ARM.Collect$$libinit$$00000018)
    .ARM.Collect$$libinit$$00000019          0x0800015e   Section        0  libinit2.o(.ARM.Collect$$libinit$$00000019)
    .ARM.Collect$$libinit$$0000001B          0x0800015e   Section        0  libinit2.o(.ARM.Collect$$libinit$$0000001B)
    .ARM.Collect$$libinit$$0000001D          0x0800015e   Section        0  libinit2.o(.ARM.Collect$$libinit$$0000001D)
    .ARM.Collect$$libinit$$0000001F          0x0800015e   Section        0  libinit2.o(.ARM.Collect$$libinit$$0000001F)
    .ARM.Collect$$libinit$$00000021          0x0800015e   Section        0  libinit2.o(.ARM.Collect$$libinit$$00000021)
    .ARM.Collect$$libinit$$00000023          0x0800015e   Section        0  libinit2.o(.ARM.Collect$$libinit$$00000023)
    .ARM.Collect$$libinit$$00000025          0x0800015e   Section        0  libinit2.o(.ARM.Collect$$libinit$$00000025)
    .ARM.Collect$$libinit$$00000027          0x0800015e   Section        0  libinit2.o(.ARM.Collect$$libinit$$00000027)
    .ARM.Collect$$libinit$$0000002E          0x0800015e   Section        0  libinit2.o(.ARM.Collect$$libinit$$0000002E)
    .ARM.Collect$$libinit$$00000030          0x0800015e   Section        0  libinit2.o(.ARM.Collect$$libinit$$00000030)
    .ARM.Collect$$libinit$$00000032          0x0800015e   Section        0  libinit2.o(.ARM.Collect$$libinit$$00000032)
    .ARM.Collect$$libinit$$00000034          0x0800015e   Section        0  libinit2.o(.ARM.Collect$$libinit$$00000034)
    .ARM.Collect$$libinit$$00000035          0x0800015e   Section        2  libinit2.o(.ARM.Collect$$libinit$$00000035)
    .ARM.Collect$$libshutdown$$00000000      0x08000160   Section        2  libshutdown.o(.ARM.Collect$$libshutdown$$00000000)
    .ARM.Collect$$libshutdown$$00000002      0x08000162   Section        0  libshutdown2.o(.ARM.Collect$$libshutdown$$00000002)
    .ARM.Collect$$libshutdown$$00000004      0x08000162   Section        0  libshutdown2.o(.ARM.Collect$$libshutdown$$00000004)
    .ARM.Collect$$libshutdown$$00000007      0x08000162   Section        0  libshutdown2.o(.ARM.Collect$$libshutdown$$00000007)
    .ARM.Collect$$libshutdown$$0000000A      0x08000162   Section        0  libshutdown2.o(.ARM.Collect$$libshutdown$$0000000A)
    .ARM.Collect$$libshutdown$$0000000C      0x08000162   Section        0  libshutdown2.o(.ARM.Collect$$libshutdown$$0000000C)
    .ARM.Collect$$libshutdown$$0000000F      0x08000162   Section        0  libshutdown2.o(.ARM.Collect$$libshutdown$$0000000F)
    .ARM.Collect$$libshutdown$$00000010      0x08000162   Section        2  libshutdown2.o(.ARM.Collect$$libshutdown$$00000010)
    .ARM.Collect$$rtentry$$00000000          0x08000164   Section        0  __rtentry.o(.ARM.Collect$$rtentry$$00000000)
    .ARM.Collect$$rtentry$$00000002          0x08000164   Section        0  __rtentry2.o(.ARM.Collect$$rtentry$$00000002)
    .ARM.Collect$$rtentry$$00000004          0x08000164   Section        6  __rtentry4.o(.ARM.Collect$$rtentry$$00000004)
    .ARM.Collect$$rtentry$$00000009          0x0800016a   Section        0  __rtentry2.o(.ARM.Collect$$rtentry$$00000009)
    .ARM.Collect$$rtentry$$0000000A          0x0800016a   Section        4  __rtentry2.o(.ARM.Collect$$rtentry$$0000000A)
    .ARM.Collect$$rtentry$$0000000C          0x0800016e   Section        0  __rtentry2.o(.ARM.Collect$$rtentry$$0000000C)
    .ARM.Collect$$rtentry$$0000000D          0x0800016e   Section        8  __rtentry2.o(.ARM.Collect$$rtentry$$0000000D)
    .ARM.Collect$$rtexit$$00000000           0x08000176   Section        2  rtexit.o(.ARM.Collect$$rtexit$$00000000)
    .ARM.Collect$$rtexit$$00000002           0x08000178   Section        0  rtexit2.o(.ARM.Collect$$rtexit$$00000002)
    .ARM.Collect$$rtexit$$00000003           0x08000178   Section        4  rtexit2.o(.ARM.Collect$$rtexit$$00000003)
    .ARM.Collect$$rtexit$$00000004           0x0800017c   Section        6  rtexit2.o(.ARM.Collect$$rtexit$$00000004)
    .text                                    0x08000184   Section      124  startup_mm32spin06xx_s_keil.o(.text)
    .text                                    0x08000200   Section        0  noretval__2sprintf.o(.text)
    .text                                    0x08000228   Section        0  __printf.o(.text)
    .text                                    0x08000294   Section        0  aeabi_memset4.o(.text)
    .text                                    0x080002a8   Section      504  aeabi_sdivfast.o(.text)
    .text                                    0x080004a0   Section        0  heapauxi.o(.text)
    .text                                    0x080004a8   Section        0  d2f.o(.text)
    .text                                    0x08000524   Section        0  ddiv.o(.text)
    .text                                    0x0800096c   Section        0  dfixi.o(.text)
    .text                                    0x080009d8   Section        0  dflti.o(.text)
    .text                                    0x08000a30   Section        0  dmul.o(.text)
    .text                                    0x08000c78   Section        0  f2d.o(.text)
    _fp_digits                               0x08000ccd   Thumb Code   412  _printf_fp_dec.o(.text)
    .text                                    0x08000ccc   Section        0  _printf_fp_dec.o(.text)
    _printf_input_char                       0x080010e1   Thumb Code    10  _printf_char_common.o(.text)
    .text                                    0x080010e0   Section        0  _printf_char_common.o(.text)
    .text                                    0x08001110   Section        0  _sputc.o(.text)
    .text                                    0x0800111a   Section        0  rt_memclr.o(.text)
    .text                                    0x0800115c   Section        8  rt_locale_intlibspace.o(.text)
    .text                                    0x08001164   Section        0  lludiv10.o(.text)
    .text                                    0x080011e0   Section        0  _printf_fp_infnan.o(.text)
    .text                                    0x08001268   Section        0  bigflt0.o(.text)
    .text                                    0x08001340   Section        0  btod.o(.text)
    btod_internal_mul                        0x08001381   Thumb Code   492  btod.o(.text)
    btod_internal_div                        0x0800156d   Thumb Code   520  btod.o(.text)
    .text                                    0x080018c0   Section        0  rtudiv10.o(.text)
    .text                                    0x080018e8   Section        0  fcmpin.o(.text)
    .text                                    0x0800194c   Section        8  libspace.o(.text)
    .text                                    0x08001954   Section       62  sys_stackheap_outer.o(.text)
    .text                                    0x08001992   Section        0  exit.o(.text)
    .text                                    0x080019a4   Section      176  strcmpv6m.o(.text)
    .text                                    0x08001a54   Section        0  cmpret.o(.text)
    .text                                    0x08001a84   Section        0  fnan2.o(.text)
    .text                                    0x08001a94   Section        0  retnan.o(.text)
    .text                                    0x08001af4   Section        0  sys_exit.o(.text)
    .text                                    0x08001b00   Section        2  use_no_semi.o(.text)
    .text                                    0x08001b02   Section        0  indicate_semi.o(.text)
    [Anonymous Symbol]                       0x08001b04   Section        0  interrupt.o(.text.ADC1_COMP_IRQHandler)
    __arm_cp.2_1                             0x08001c20   Number         4  interrupt.o(.text.ADC1_COMP_IRQHandler)
    __arm_cp.2_2                             0x08001c24   Number         4  interrupt.o(.text.ADC1_COMP_IRQHandler)
    __arm_cp.2_3                             0x08001c28   Number         4  interrupt.o(.text.ADC1_COMP_IRQHandler)
    __arm_cp.2_4                             0x08001c2c   Number         4  interrupt.o(.text.ADC1_COMP_IRQHandler)
    __arm_cp.2_5                             0x08001c30   Number         4  interrupt.o(.text.ADC1_COMP_IRQHandler)
    __arm_cp.2_6                             0x08001c34   Number         4  interrupt.o(.text.ADC1_COMP_IRQHandler)
    __arm_cp.2_7                             0x08001c38   Number         4  interrupt.o(.text.ADC1_COMP_IRQHandler)
    __arm_cp.2_8                             0x08001c3c   Number         4  interrupt.o(.text.ADC1_COMP_IRQHandler)
    __arm_cp.2_9                             0x08001c40   Number         4  interrupt.o(.text.ADC1_COMP_IRQHandler)
    __arm_cp.2_10                            0x08001c44   Number         4  interrupt.o(.text.ADC1_COMP_IRQHandler)
    __arm_cp.2_11                            0x08001c48   Number         4  interrupt.o(.text.ADC1_COMP_IRQHandler)
    __arm_cp.2_12                            0x08001c4c   Number         4  interrupt.o(.text.ADC1_COMP_IRQHandler)
    __arm_cp.2_13                            0x08001c50   Number         4  interrupt.o(.text.ADC1_COMP_IRQHandler)
    __arm_cp.2_14                            0x08001c54   Number         4  interrupt.o(.text.ADC1_COMP_IRQHandler)
    [Anonymous Symbol]                       0x08001c58   Section        0  initialize.o(.text.ADCALL_Init)
    [Anonymous Symbol]                       0x08001c94   Section        0  hal_adc.o(.text.ADC_AnalogWatchdogCmd)
    [Anonymous Symbol]                       0x08001ca6   Section        0  hal_adc.o(.text.ADC_AnalogWatchdogSingleChannelConfig)
    [Anonymous Symbol]                       0x08001cba   Section        0  hal_adc.o(.text.ADC_AnalogWatchdogThresholdsConfig)
    [Anonymous Symbol]                       0x08001cc2   Section        0  hal_adc.o(.text.ADC_ClearFlag)
    [Anonymous Symbol]                       0x08001cd0   Section        0  hal_adc.o(.text.ADC_ClearITPendingBit)
    [Anonymous Symbol]                       0x08001cde   Section        0  hal_adc.o(.text.ADC_Cmd)
    [Anonymous Symbol]                       0x08001cf0   Section        0  hal_adc.o(.text.ADC_DeInit)
    __arm_cp.0_0                             0x08001d04   Number         4  hal_adc.o(.text.ADC_DeInit)
    [Anonymous Symbol]                       0x08001d08   Section        0  hal_adc.o(.text.ADC_GetFlagStatus)
    [Anonymous Symbol]                       0x08001d18   Section        0  hal_adc.o(.text.ADC_GetITStatus)
    [Anonymous Symbol]                       0x08001d28   Section        0  hal_adc.o(.text.ADC_ITConfig)
    [Anonymous Symbol]                       0x08001d48   Section        0  hal_adc.o(.text.ADC_Init)
    __arm_cp.1_0                             0x08001d78   Number         4  hal_adc.o(.text.ADC_Init)
    __arm_cp.1_1                             0x08001d7c   Number         4  hal_adc.o(.text.ADC_Init)
    [Anonymous Symbol]                       0x08001d80   Section        0  hal_adc.o(.text.ADC_RegularChannelConfig)
    [Anonymous Symbol]                       0x08001dbc   Section        0  hal_adc.o(.text.ADC_SoftwareStartConvCmd)
    [Anonymous Symbol]                       0x08001dd0   Section        0  hal_adc.o(.text.ADC_TempSensorVrefintCmd)
    __arm_cp.9_0                             0x08001de8   Number         4  hal_adc.o(.text.ADC_TempSensorVrefintCmd)
    [Anonymous Symbol]                       0x08001dec   Section        0  initialize.o(.text.BLDC_init)
    __arm_cp.3_0                             0x08001e8c   Number         4  initialize.o(.text.BLDC_init)
    __arm_cp.3_1                             0x08001e90   Number         4  initialize.o(.text.BLDC_init)
    [Anonymous Symbol]                       0x08001e94   Section        0  delay.o(.text.DELAY_Init)
    __arm_cp.0_0                             0x08001ed0   Number         4  delay.o(.text.DELAY_Init)
    __arm_cp.0_1                             0x08001ed4   Number         4  delay.o(.text.DELAY_Init)
    __arm_cp.0_2                             0x08001ed8   Number         4  delay.o(.text.DELAY_Init)
    __arm_cp.0_3                             0x08001edc   Number         4  delay.o(.text.DELAY_Init)
    [Anonymous Symbol]                       0x08001ee0   Section        0  delay.o(.text.DELAY_Ms)
    [Anonymous Symbol]                       0x08001ef4   Section        0  interrupt.o(.text.DMA1_Channel2_3_IRQHandler)
    __arm_cp.1_0                             0x08001f18   Number         4  interrupt.o(.text.DMA1_Channel2_3_IRQHandler)
    [Anonymous Symbol]                       0x08001f1c   Section        0  hal_dma.o(.text.DMA_ClearITPendingBit)
    [Anonymous Symbol]                       0x08001f24   Section        0  hal_dma.o(.text.DMA_Cmd)
    [Anonymous Symbol]                       0x08001f30   Section        0  hal_dma.o(.text.DMA_DeInit)
    __arm_cp.0_0                             0x08001f5c   Number         4  hal_dma.o(.text.DMA_DeInit)
    [Anonymous Symbol]                       0x08001f60   Section        0  hal_dma.o(.text.DMA_GetITStatus)
    __arm_cp.8_0                             0x08001f6c   Number         4  hal_dma.o(.text.DMA_GetITStatus)
    [Anonymous Symbol]                       0x08001f70   Section        0  hal_dma.o(.text.DMA_ITConfig)
    [Anonymous Symbol]                       0x08001f84   Section        0  hal_dma.o(.text.DMA_Init)
    __arm_cp.1_0                             0x08001fcc   Number         4  hal_dma.o(.text.DMA_Init)
    [Anonymous Symbol]                       0x08001fd0   Section        0  initialize.o(.text.DMA_NVIC_Config)
    __arm_cp.9_0                             0x0800203c   Number         4  initialize.o(.text.DMA_NVIC_Config)
    [Anonymous Symbol]                       0x08002040   Section        0  hal_dma.o(.text.DMA_StructInit)
    [Anonymous Symbol]                       0x08002056   Section        0  hal_gpio.o(.text.GPIO_Init)
    [Anonymous Symbol]                       0x080020e6   Section        0  hal_gpio.o(.text.GPIO_PinAFConfig)
    [Anonymous Symbol]                       0x08002106   Section        0  hal_gpio.o(.text.GPIO_ReadInputDataBit)
    [Anonymous Symbol]                       0x08002110   Section        0  hal_gpio.o(.text.GPIO_StructInit)
    __arm_cp.3_0                             0x0800211c   Number         4  hal_gpio.o(.text.GPIO_StructInit)
    __arm_cp.3_1                             0x08002120   Number         4  hal_gpio.o(.text.GPIO_StructInit)
    [Anonymous Symbol]                       0x08002124   Section        0  hal_rcc.o(.text.RCC_AHBPeriphClockCmd)
    __arm_cp.18_0                            0x0800213c   Number         4  hal_rcc.o(.text.RCC_AHBPeriphClockCmd)
    [Anonymous Symbol]                       0x08002140   Section        0  hal_rcc.o(.text.RCC_APB1PeriphClockCmd)
    __arm_cp.20_0                            0x08002158   Number         4  hal_rcc.o(.text.RCC_APB1PeriphClockCmd)
    [Anonymous Symbol]                       0x0800215c   Section        0  hal_rcc.o(.text.RCC_APB2PeriphClockCmd)
    __arm_cp.19_0                            0x08002174   Number         4  hal_rcc.o(.text.RCC_APB2PeriphClockCmd)
    [Anonymous Symbol]                       0x08002178   Section        0  hal_rcc.o(.text.RCC_GetPCLK1Freq)
    [Anonymous Symbol]                       0x080021a4   Section        0  hal_rcc.o(.text.RCC_GetPCLK2Freq)
    __arm_cp.16_0                            0x080021d0   Number         4  hal_rcc.o(.text.RCC_GetPCLK2Freq)
    __arm_cp.16_1                            0x080021d4   Number         4  hal_rcc.o(.text.RCC_GetPCLK2Freq)
    __arm_cp.16_2                            0x080021d8   Number         4  hal_rcc.o(.text.RCC_GetPCLK2Freq)
    __arm_cp.16_3                            0x080021dc   Number         4  hal_rcc.o(.text.RCC_GetPCLK2Freq)
    [Anonymous Symbol]                       0x080021e0   Section        0  delay.o(.text.SysTick_Handler)
    __arm_cp.1_0                             0x080021f8   Number         4  delay.o(.text.SysTick_Handler)
    [Anonymous Symbol]                       0x080021fc   Section        0  system_mm32spin06xx_s.o(.text.SystemInit)
    __arm_cp.0_0                             0x08002348   Number         4  system_mm32spin06xx_s.o(.text.SystemInit)
    __arm_cp.0_1                             0x0800234c   Number         4  system_mm32spin06xx_s.o(.text.SystemInit)
    __arm_cp.0_2                             0x08002350   Number         4  system_mm32spin06xx_s.o(.text.SystemInit)
    __arm_cp.0_3                             0x08002354   Number         4  system_mm32spin06xx_s.o(.text.SystemInit)
    __arm_cp.0_4                             0x08002358   Number         4  system_mm32spin06xx_s.o(.text.SystemInit)
    __arm_cp.0_5                             0x0800235c   Number         4  system_mm32spin06xx_s.o(.text.SystemInit)
    __arm_cp.0_6                             0x08002360   Number         4  system_mm32spin06xx_s.o(.text.SystemInit)
    __arm_cp.0_7                             0x08002364   Number         4  system_mm32spin06xx_s.o(.text.SystemInit)
    __arm_cp.0_8                             0x08002368   Number         4  system_mm32spin06xx_s.o(.text.SystemInit)
    __arm_cp.0_9                             0x0800236c   Number         4  system_mm32spin06xx_s.o(.text.SystemInit)
    [Anonymous Symbol]                       0x08002370   Section        0  interrupt.o(.text.TIM1_BRK_UP_TRG_COM_IRQHandler)
    [Anonymous Symbol]                       0x0800237c   Section        0  initialize.o(.text.TIM1_init)
    __arm_cp.4_1                             0x08002428   Number         4  initialize.o(.text.TIM1_init)
    __arm_cp.4_2                             0x0800242c   Number         4  initialize.o(.text.TIM1_init)
    [Anonymous Symbol]                       0x08002430   Section        0  interrupt.o(.text.TIM2_IRQHandler)
    [Anonymous Symbol]                       0x0800247c   Section        0  interrupt.o(.text.TIM3_IRQHandler)
    __arm_cp.4_1                             0x080024c8   Number         4  interrupt.o(.text.TIM3_IRQHandler)
    __arm_cp.4_2                             0x080024cc   Number         4  interrupt.o(.text.TIM3_IRQHandler)
    __arm_cp.4_3                             0x080024d0   Number         4  interrupt.o(.text.TIM3_IRQHandler)
    __arm_cp.4_4                             0x080024d4   Number         4  interrupt.o(.text.TIM3_IRQHandler)
    __arm_cp.4_5                             0x080024d8   Number         4  interrupt.o(.text.TIM3_IRQHandler)
    [Anonymous Symbol]                       0x080024dc   Section        0  hal_tim.o(.text.TIM_BDTRConfig)
    [Anonymous Symbol]                       0x080024fa   Section        0  hal_tim.o(.text.TIM_BDTRStructInit)
    [Anonymous Symbol]                       0x0800250c   Section        0  hal_tim.o(.text.TIM_CCPreloadControl)
    [Anonymous Symbol]                       0x0800251c   Section        0  hal_tim.o(.text.TIM_CCxCmd)
    [Anonymous Symbol]                       0x0800252c   Section        0  hal_tim.o(.text.TIM_CCxNCmd)
    [Anonymous Symbol]                       0x08002540   Section        0  hal_tim.o(.text.TIM_ClearITPendingBit)
    [Anonymous Symbol]                       0x08002548   Section        0  hal_tim.o(.text.TIM_Cmd)
    [Anonymous Symbol]                       0x08002558   Section        0  hal_tim.o(.text.TIM_CtrlPWMOutputs)
    [Anonymous Symbol]                       0x0800256c   Section        0  hal_tim.o(.text.TIM_GenerateEvent)
    [Anonymous Symbol]                       0x08002570   Section        0  hal_tim.o(.text.TIM_GetITStatus)
    [Anonymous Symbol]                       0x08002584   Section        0  hal_tim.o(.text.TIM_ITConfig)
    [Anonymous Symbol]                       0x08002598   Section        0  hal_tim.o(.text.TIM_OC1Init)
    __arm_cp.2_0                             0x080025f0   Number         4  hal_tim.o(.text.TIM_OC1Init)
    [Anonymous Symbol]                       0x080025f4   Section        0  hal_tim.o(.text.TIM_OC2Init)
    [Anonymous Symbol]                       0x08002650   Section        0  hal_tim.o(.text.TIM_OC3Init)
    __arm_cp.4_0                             0x080026a8   Number         4  hal_tim.o(.text.TIM_OC3Init)
    [Anonymous Symbol]                       0x080026ac   Section        0  hal_tim.o(.text.TIM_OCStructInit)
    [Anonymous Symbol]                       0x080026bc   Section        0  hal_tim.o(.text.TIM_SelectOCxM)
    [Anonymous Symbol]                       0x08002714   Section        0  hal_tim.o(.text.TIM_TimeBaseInit)
    __arm_cp.1_0                             0x08002784   Number         4  hal_tim.o(.text.TIM_TimeBaseInit)
    __arm_cp.1_1                             0x08002788   Number         4  hal_tim.o(.text.TIM_TimeBaseInit)
    __arm_cp.1_2                             0x0800278c   Number         4  hal_tim.o(.text.TIM_TimeBaseInit)
    __arm_cp.1_3                             0x08002790   Number         4  hal_tim.o(.text.TIM_TimeBaseInit)
    __arm_cp.1_4                             0x08002794   Number         4  hal_tim.o(.text.TIM_TimeBaseInit)
    [Anonymous Symbol]                       0x08002798   Section        0  hal_tim.o(.text.TIM_TimeBaseStructInit)
    [Anonymous Symbol]                       0x080027a8   Section        0  initialize.o(.text.UARTX_Init)
    __arm_cp.7_1                             0x0800282c   Number         4  initialize.o(.text.UARTX_Init)
    __arm_cp.7_2                             0x08002830   Number         4  initialize.o(.text.UARTX_Init)
    [Anonymous Symbol]                       0x08002834   Section        0  hal_uart.o(.text.UART_Cmd)
    [Anonymous Symbol]                       0x08002840   Section        0  hal_uart.o(.text.UART_DMACmd)
    [Anonymous Symbol]                       0x0800284e   Section        0  hal_uart.o(.text.UART_GetFlagStatus)
    [Anonymous Symbol]                       0x08002858   Section        0  hal_uart.o(.text.UART_Init)
    __arm_cp.1_1                             0x080028c8   Number         4  hal_uart.o(.text.UART_Init)
    [Anonymous Symbol]                       0x080028cc   Section        0  hal_uart.o(.text.UART_SendData)
    [Anonymous Symbol]                       0x080028d4   Section        0  uart.o(.text.UART_SendString)
    [Anonymous Symbol]                       0x08002900   Section        0  uart.o(.text.UART_Send_Byte)
    [Anonymous Symbol]                       0x0800291c   Section        0  uart.o(.text.UART_Send_Group)
    __arm_cp.1_0                             0x08002948   Number         4  uart.o(.text.UART_Send_Group)
    [Anonymous Symbol]                       0x0800294c   Section        0  hal_uart.o(.text.UART_StructInit)
    [Anonymous Symbol]                       0x08002964   Section        0  hardware.o(.text.analogRead)
    __arm_cp.3_0                             0x080029f0   Number         4  hardware.o(.text.analogRead)
    [Anonymous Symbol]                       0x080029f4   Section        0  autodetect.o(.text.autoDetectInit)
    __arm_cp.5_1                             0x08002b90   Number         4  autodetect.o(.text.autoDetectInit)
    __arm_cp.5_2                             0x08002b94   Number         4  autodetect.o(.text.autoDetectInit)
    __arm_cp.5_3                             0x08002b98   Number         4  autodetect.o(.text.autoDetectInit)
    __arm_cp.5_4                             0x08002b9c   Number         4  autodetect.o(.text.autoDetectInit)
    __arm_cp.5_7                             0x08002ba0   Number         4  autodetect.o(.text.autoDetectInit)
    __arm_cp.5_9                             0x08002ba4   Number         4  autodetect.o(.text.autoDetectInit)
    __arm_cp.5_10                            0x08002ba8   Number         4  autodetect.o(.text.autoDetectInit)
    __arm_cp.5_11                            0x08002bac   Number         4  autodetect.o(.text.autoDetectInit)
    [Anonymous Symbol]                       0x08002bb0   Section        0  autodetect.o(.text.autoDetectSerialIt)
    __arm_cp.3_0                             0x08002d04   Number         4  autodetect.o(.text.autoDetectSerialIt)
    __arm_cp.3_1                             0x08002d08   Number         4  autodetect.o(.text.autoDetectSerialIt)
    __arm_cp.3_2                             0x08002d0c   Number         4  autodetect.o(.text.autoDetectSerialIt)
    __arm_cp.3_4                             0x08002d10   Number         4  autodetect.o(.text.autoDetectSerialIt)
    __arm_cp.3_5                             0x08002d14   Number         4  autodetect.o(.text.autoDetectSerialIt)
    __arm_cp.3_6                             0x08002d18   Number         4  autodetect.o(.text.autoDetectSerialIt)
    __arm_cp.3_7                             0x08002d1c   Number         4  autodetect.o(.text.autoDetectSerialIt)
    [Anonymous Symbol]                       0x08002d20   Section        0  calculation.o(.text.avgItotal)
    __arm_cp.3_0                             0x08002d54   Number         4  calculation.o(.text.avgItotal)
    __arm_cp.3_1                             0x08002d58   Number         4  calculation.o(.text.avgItotal)
    __arm_cp.3_2                             0x08002d5c   Number         4  calculation.o(.text.avgItotal)
    __arm_cp.3_3                             0x08002d60   Number         4  calculation.o(.text.avgItotal)
    __arm_cp.3_4                             0x08002d64   Number         4  calculation.o(.text.avgItotal)
    [Anonymous Symbol]                       0x08002d68   Section        0  calculation.o(.text.avgvbat)
    __arm_cp.2_0                             0x08002d9c   Number         4  calculation.o(.text.avgvbat)
    __arm_cp.2_1                             0x08002da0   Number         4  calculation.o(.text.avgvbat)
    __arm_cp.2_2                             0x08002da4   Number         4  calculation.o(.text.avgvbat)
    __arm_cp.2_3                             0x08002da8   Number         4  calculation.o(.text.avgvbat)
    __arm_cp.2_4                             0x08002dac   Number         4  calculation.o(.text.avgvbat)
    [Anonymous Symbol]                       0x08002db0   Section        0  autodetect.o(.text.blinkLEDupdate)
    __arm_cp.6_0                             0x08002df0   Number         4  autodetect.o(.text.blinkLEDupdate)
    __arm_cp.6_2                             0x08002df4   Number         4  autodetect.o(.text.blinkLEDupdate)
    __arm_cp.6_3                             0x08002df8   Number         4  autodetect.o(.text.blinkLEDupdate)
    __arm_cp.6_4                             0x08002dfc   Number         4  autodetect.o(.text.blinkLEDupdate)
    [Anonymous Symbol]                       0x08002e00   Section        0  bldc.o(.text.commutate)
    __arm_cp.1_0                             0x08003098   Number         4  bldc.o(.text.commutate)
    __arm_cp.1_1                             0x0800309c   Number         4  bldc.o(.text.commutate)
    [Anonymous Symbol]                       0x080030a0   Section        0  autodetect.o(.text.detectSelfHold)
    __arm_cp.2_0                             0x0800316c   Number         4  autodetect.o(.text.detectSelfHold)
    __arm_cp.2_2                             0x08003170   Number         4  autodetect.o(.text.detectSelfHold)
    __arm_cp.2_3                             0x08003174   Number         4  autodetect.o(.text.detectSelfHold)
    __arm_cp.2_4                             0x08003178   Number         4  autodetect.o(.text.detectSelfHold)
    __arm_cp.2_5                             0x0800317c   Number         4  autodetect.o(.text.detectSelfHold)
    __arm_cp.2_6                             0x08003180   Number         4  autodetect.o(.text.detectSelfHold)
    [Anonymous Symbol]                       0x08003184   Section        0  hardware.o(.text.digitalRead)
    [Anonymous Symbol]                       0x080031b8   Section        0  initialize.o(.text.exNVIC_Configure)
    [Anonymous Symbol]                       0x080031d4   Section        0  hal_misc.o(.text.exNVIC_Init)
    __arm_cp.1_0                             0x08003218   Number         4  hal_misc.o(.text.exNVIC_Init)
    __arm_cp.1_1                             0x0800321c   Number         4  hal_misc.o(.text.exNVIC_Init)
    __arm_cp.1_2                             0x08003220   Number         4  hal_misc.o(.text.exNVIC_Init)
    [Anonymous Symbol]                       0x08003224   Section        0  hal_rcc.o(.text.exRCC_APB2PeriphReset)
    __arm_cp.32_0                            0x08003234   Number         4  hal_rcc.o(.text.exRCC_APB2PeriphReset)
    [Anonymous Symbol]                       0x08003238   Section        0  bldc.o(.text.hallpos)
    __arm_cp.0_1                             0x0800329c   Number         4  bldc.o(.text.hallpos)
    [Anonymous Symbol]                       0x080032a0   Section        0  main.o(.text.main)
    __arm_cp.0_0                             0x08003398   Number         4  main.o(.text.main)
    __arm_cp.0_1                             0x0800339c   Number         4  main.o(.text.main)
    __arm_cp.0_2                             0x080033a0   Number         4  main.o(.text.main)
    __arm_cp.0_3                             0x080033a4   Number         4  main.o(.text.main)
    __arm_cp.0_4                             0x080033a8   Number         4  main.o(.text.main)
    __arm_cp.0_5                             0x080033ac   Number         4  main.o(.text.main)
    __arm_cp.0_6                             0x080033b0   Number         4  main.o(.text.main)
    __arm_cp.0_8                             0x080033bc   Number         4  main.o(.text.main)
    [Anonymous Symbol]                       0x080033f4   Section        0  hardware.o(.text.pinMode)
    __arm_cp.0_0                             0x08003428   Number         4  hardware.o(.text.pinMode)
    __arm_cp.0_1                             0x0800342c   Number         4  hardware.o(.text.pinMode)
    __arm_cp.0_2                             0x08003430   Number         4  hardware.o(.text.pinMode)
    __arm_cp.0_3                             0x08003434   Number         4  hardware.o(.text.pinMode)
    [Anonymous Symbol]                       0x08003438   Section        0  autodetect.o(.text.printvoltage)
    __arm_cp.7_0                             0x080034e8   Number         4  autodetect.o(.text.printvoltage)
    __arm_cp.7_1                             0x080034ec   Number         4  autodetect.o(.text.printvoltage)
    __arm_cp.7_2                             0x080034f0   Number         4  autodetect.o(.text.printvoltage)
    __arm_cp.7_3                             0x080034f4   Number         4  autodetect.o(.text.printvoltage)
    __arm_cp.7_4                             0x080034f8   Number         4  autodetect.o(.text.printvoltage)
    __arm_cp.7_5                             0x080034fc   Number         4  autodetect.o(.text.printvoltage)
    __arm_cp.7_6                             0x08003500   Number         4  autodetect.o(.text.printvoltage)
    __arm_cp.7_7                             0x08003504   Number         4  autodetect.o(.text.printvoltage)
    __arm_cp.7_8                             0x08003508   Number         4  autodetect.o(.text.printvoltage)
    [Anonymous Symbol]                       0x08003528   Section        0  autodetect.o(.text.selfhold)
    [Anonymous Symbol]                       0x08003568   Section        0  autodetect.o(.text.simhallupdate)
    __arm_cp.4_0                             0x08003874   Number         4  autodetect.o(.text.simhallupdate)
    __arm_cp.4_1                             0x08003878   Number         4  autodetect.o(.text.simhallupdate)
    __arm_cp.4_2                             0x0800387c   Number         4  autodetect.o(.text.simhallupdate)
    __arm_cp.4_3                             0x08003880   Number         4  autodetect.o(.text.simhallupdate)
    __arm_cp.4_4                             0x08003884   Number         4  autodetect.o(.text.simhallupdate)
    __arm_cp.4_5                             0x08003888   Number         4  autodetect.o(.text.simhallupdate)
    __arm_cp.4_6                             0x0800388c   Number         4  autodetect.o(.text.simhallupdate)
    __arm_cp.4_10                            0x080038a8   Number         4  autodetect.o(.text.simhallupdate)
    [Anonymous Symbol]                       0x080038ac   Section        0  calculation.o(.text.updateMotorRPM)
    __arm_cp.5_0                             0x080038bc   Number         4  calculation.o(.text.updateMotorRPM)
    [Anonymous Symbol]                       0x080038c0   Section        0  initialize.o(.text.vref_Init)
    __arm_cp.12_0                            0x08003908   Number         4  initialize.o(.text.vref_Init)
    .text_divfast                            0x0800390c   Section      502  aeabi_sdivfast.o(.text_divfast)
    i.__ARM_common_ll_muluu                  0x08003b02   Section        0  btod.o(i.__ARM_common_ll_muluu)
    i.__ARM_fpclassify                       0x08003b34   Section        0  fpclassify.o(i.__ARM_fpclassify)
    i._fgeq                                  0x08003b60   Section        0  fcmp.o(i._fgeq)
    i._fleq                                  0x08003b76   Section        0  fcmp.o(i._fleq)
    locale$$code                             0x08003b90   Section       44  lc_numeric_c.o(locale$$code)
    x$fpl$fgeqf                              0x08003bbc   Section       84  fgef.o(x$fpl$fgeqf)
    x$fpl$fleqf                              0x08003c10   Section       84  flef.o(x$fpl$fleqf)
    x$fpl$printf1                            0x08003c64   Section       16  printf1.o(x$fpl$printf1)
    ddiv_reciptbl                            0x08003c74   Data         128  ddiv.o(.constdata)
    .constdata                               0x08003c74   Section      128  ddiv.o(.constdata)
    x$fpl$usenofp                            0x08003c74   Section        0  usenofp.o(x$fpl$usenofp)
    tenpwrs_x                                0x08003cf4   Data          60  bigflt0.o(.constdata)
    .constdata                               0x08003cf4   Section      148  bigflt0.o(.constdata)
    tenpwrs_i                                0x08003d30   Data          64  bigflt0.o(.constdata)
    locale$$data                             0x08004180   Section       28  lc_numeric_c.o(locale$$data)
    __lcnum_c_name                           0x08004184   Data           2  lc_numeric_c.o(locale$$data)
    __lcnum_c_start                          0x0800418c   Data           0  lc_numeric_c.o(locale$$data)
    __lcnum_c_point                          0x08004198   Data           0  lc_numeric_c.o(locale$$data)
    __lcnum_c_thousands                      0x0800419a   Data           0  lc_numeric_c.o(locale$$data)
    __lcnum_c_grouping                       0x0800419b   Data           0  lc_numeric_c.o(locale$$data)
    __lcnum_c_end                            0x0800419c   Data           0  lc_numeric_c.o(locale$$data)
    .bss                                     0x200000b0   Section       96  libspace.o(.bss)
    Heap_Mem                                 0x20000368   Data         512  startup_mm32spin06xx_s_keil.o(HEAP)
    HEAP                                     0x20000368   Section      512  startup_mm32spin06xx_s_keil.o(HEAP)
    Stack_Mem                                0x20000568   Data        1024  startup_mm32spin06xx_s_keil.o(STACK)
    STACK                                    0x20000568   Section     1024  startup_mm32spin06xx_s_keil.o(STACK)
    __initial_sp                             0x20000968   Data           0  startup_mm32spin06xx_s_keil.o(STACK)

    Global Symbols

    Symbol Name                              Value     Ov Type        Size  Object(Section)

    BuildAttributes$$THM_ISAv3M$S$PE$A:L22$X:L11$S22$IEEE1$IW$~IW$USESV6$~STKCKD$USESV7$~SHL$OTIME$ROPI$IEEEJ$EBA8$UX$STANDARDLIB$REQ8$PRES8$EABIv2 0x00000000   Number         0  anon$$obj.o ABSOLUTE
    __ARM_exceptions_init                     - Undefined Weak Reference
    __alloca_initialize                       - Undefined Weak Reference
    __arm_preinit_                            - Undefined Weak Reference
    __arm_relocate_pie_                       - Undefined Weak Reference
    __cpp_initialize__aeabi_                  - Undefined Weak Reference
    __cxa_finalize                            - Undefined Weak Reference
    __sigvec_lookup                           - Undefined Weak Reference
    _atexit_init                              - Undefined Weak Reference
    _call_atexit_fns                          - Undefined Weak Reference
    _clock_init                               - Undefined Weak Reference
    _fp_trap_init                             - Undefined Weak Reference
    _fp_trap_shutdown                         - Undefined Weak Reference
    _get_lc_collate                           - Undefined Weak Reference
    _get_lc_ctype                             - Undefined Weak Reference
    _get_lc_monetary                          - Undefined Weak Reference
    _get_lc_time                              - Undefined Weak Reference
    _getenv_init                              - Undefined Weak Reference
    _handle_redirection                       - Undefined Weak Reference
    _init_alloc                               - Undefined Weak Reference
    _init_user_alloc                          - Undefined Weak Reference
    _initio                                   - Undefined Weak Reference
    _printf_post_padding                      - Undefined Weak Reference
    _printf_pre_padding                       - Undefined Weak Reference
    _rand_init                                - Undefined Weak Reference
    _signal_finish                            - Undefined Weak Reference
    _signal_init                              - Undefined Weak Reference
    _terminate_alloc                          - Undefined Weak Reference
    _terminate_user_alloc                     - Undefined Weak Reference
    _terminateio                              - Undefined Weak Reference
    __Vectors_Size                           0x000000c0   Number         0  startup_mm32spin06xx_s_keil.o ABSOLUTE
    __Vectors                                0x08000000   Data           4  startup_mm32spin06xx_s_keil.o(RESET)
    __Vectors_End                            0x080000c0   Data           0  startup_mm32spin06xx_s_keil.o(RESET)
    __main                                   0x080000c1   Thumb Code     8  __main.o(!!!main)
    __scatterload                            0x080000c9   Thumb Code     0  __scatter.o(!!!scatter)
    __scatterload_rt2                        0x080000c9   Thumb Code    52  __scatter.o(!!!scatter)
    __scatterload_rt2_thumb_only             0x080000c9   Thumb Code     0  __scatter.o(!!!scatter)
    __scatterload_null                       0x080000d9   Thumb Code     0  __scatter.o(!!!scatter)
    __scatterload_copy                       0x08000105   Thumb Code    26  __scatter_copy.o(!!handler_copy)
    __scatterload_zeroinit                   0x08000121   Thumb Code    28  __scatter_zi.o(!!handler_zi)
    _printf_percent                          0x0800013d   Thumb Code     0  _printf_percent.o(.ARM.Collect$$_printf_percent$$00000000)
    _printf_f                                0x0800013f   Thumb Code     0  _printf_f.o(.ARM.Collect$$_printf_percent$$00000003)
    _printf_percent_end                      0x08000149   Thumb Code     0  _printf_percent_end.o(.ARM.Collect$$_printf_percent$$00000017)
    __rt_lib_init                            0x0800014d   Thumb Code     0  libinit.o(.ARM.Collect$$libinit$$00000000)
    __rt_lib_init_fp_1                       0x0800014f   Thumb Code     0  libinit2.o(.ARM.Collect$$libinit$$00000002)
    __rt_lib_init_heap_1                     0x0800014f   Thumb Code     0  libinit2.o(.ARM.Collect$$libinit$$0000000C)
    __rt_lib_init_lc_common                  0x0800014f   Thumb Code     0  libinit2.o(.ARM.Collect$$libinit$$00000011)
    __rt_lib_init_preinit_1                  0x0800014f   Thumb Code     0  libinit2.o(.ARM.Collect$$libinit$$00000006)
    __rt_lib_init_rand_1                     0x0800014f   Thumb Code     0  libinit2.o(.ARM.Collect$$libinit$$00000010)
    __rt_lib_init_relocate_pie_1             0x0800014f   Thumb Code     0  libinit2.o(.ARM.Collect$$libinit$$00000004)
    __rt_lib_init_user_alloc_1               0x0800014f   Thumb Code     0  libinit2.o(.ARM.Collect$$libinit$$0000000E)
    __rt_lib_init_lc_collate_1               0x08000155   Thumb Code     0  libinit2.o(.ARM.Collect$$libinit$$00000013)
    __rt_lib_init_lc_ctype_1                 0x08000155   Thumb Code     0  libinit2.o(.ARM.Collect$$libinit$$00000015)
    __rt_lib_init_lc_monetary_1              0x08000155   Thumb Code     0  libinit2.o(.ARM.Collect$$libinit$$00000017)
    __rt_lib_init_lc_numeric_2               0x08000155   Thumb Code     0  libinit2.o(.ARM.Collect$$libinit$$00000018)
    __rt_lib_init_alloca_1                   0x0800015f   Thumb Code     0  libinit2.o(.ARM.Collect$$libinit$$00000030)
    __rt_lib_init_argv_1                     0x0800015f   Thumb Code     0  libinit2.o(.ARM.Collect$$libinit$$0000002E)
    __rt_lib_init_atexit_1                   0x0800015f   Thumb Code     0  libinit2.o(.ARM.Collect$$libinit$$0000001D)
    __rt_lib_init_clock_1                    0x0800015f   Thumb Code     0  libinit2.o(.ARM.Collect$$libinit$$00000023)
    __rt_lib_init_cpp_1                      0x0800015f   Thumb Code     0  libinit2.o(.ARM.Collect$$libinit$$00000034)
    __rt_lib_init_exceptions_1               0x0800015f   Thumb Code     0  libinit2.o(.ARM.Collect$$libinit$$00000032)
    __rt_lib_init_fp_trap_1                  0x0800015f   Thumb Code     0  libinit2.o(.ARM.Collect$$libinit$$00000021)
    __rt_lib_init_getenv_1                   0x0800015f   Thumb Code     0  libinit2.o(.ARM.Collect$$libinit$$00000025)
    __rt_lib_init_lc_numeric_1               0x0800015f   Thumb Code     0  libinit2.o(.ARM.Collect$$libinit$$00000019)
    __rt_lib_init_lc_time_1                  0x0800015f   Thumb Code     0  libinit2.o(.ARM.Collect$$libinit$$0000001B)
    __rt_lib_init_return                     0x0800015f   Thumb Code     0  libinit2.o(.ARM.Collect$$libinit$$00000035)
    __rt_lib_init_signal_1                   0x0800015f   Thumb Code     0  libinit2.o(.ARM.Collect$$libinit$$0000001F)
    __rt_lib_init_stdio_1                    0x0800015f   Thumb Code     0  libinit2.o(.ARM.Collect$$libinit$$00000027)
    __rt_lib_shutdown                        0x08000161   Thumb Code     0  libshutdown.o(.ARM.Collect$$libshutdown$$00000000)
    __rt_lib_shutdown_cpp_1                  0x08000163   Thumb Code     0  libshutdown2.o(.ARM.Collect$$libshutdown$$00000002)
    __rt_lib_shutdown_fp_trap_1              0x08000163   Thumb Code     0  libshutdown2.o(.ARM.Collect$$libshutdown$$00000007)
    __rt_lib_shutdown_heap_1                 0x08000163   Thumb Code     0  libshutdown2.o(.ARM.Collect$$libshutdown$$0000000F)
    __rt_lib_shutdown_return                 0x08000163   Thumb Code     0  libshutdown2.o(.ARM.Collect$$libshutdown$$00000010)
    __rt_lib_shutdown_signal_1               0x08000163   Thumb Code     0  libshutdown2.o(.ARM.Collect$$libshutdown$$0000000A)
    __rt_lib_shutdown_stdio_1                0x08000163   Thumb Code     0  libshutdown2.o(.ARM.Collect$$libshutdown$$00000004)
    __rt_lib_shutdown_user_alloc_1           0x08000163   Thumb Code     0  libshutdown2.o(.ARM.Collect$$libshutdown$$0000000C)
    __rt_entry                               0x08000165   Thumb Code     0  __rtentry.o(.ARM.Collect$$rtentry$$00000000)
    __rt_entry_presh_1                       0x08000165   Thumb Code     0  __rtentry2.o(.ARM.Collect$$rtentry$$00000002)
    __rt_entry_sh                            0x08000165   Thumb Code     0  __rtentry4.o(.ARM.Collect$$rtentry$$00000004)
    __rt_entry_li                            0x0800016b   Thumb Code     0  __rtentry2.o(.ARM.Collect$$rtentry$$0000000A)
    __rt_entry_postsh_1                      0x0800016b   Thumb Code     0  __rtentry2.o(.ARM.Collect$$rtentry$$00000009)
    __rt_entry_main                          0x0800016f   Thumb Code     0  __rtentry2.o(.ARM.Collect$$rtentry$$0000000D)
    __rt_entry_postli_1                      0x0800016f   Thumb Code     0  __rtentry2.o(.ARM.Collect$$rtentry$$0000000C)
    __rt_exit                                0x08000177   Thumb Code     0  rtexit.o(.ARM.Collect$$rtexit$$00000000)
    __rt_exit_ls                             0x08000179   Thumb Code     0  rtexit2.o(.ARM.Collect$$rtexit$$00000003)
    __rt_exit_prels_1                        0x08000179   Thumb Code     0  rtexit2.o(.ARM.Collect$$rtexit$$00000002)
    __rt_exit_exit                           0x0800017d   Thumb Code     0  rtexit2.o(.ARM.Collect$$rtexit$$00000004)
    Reset_Handler                            0x08000185   Thumb Code    44  startup_mm32spin06xx_s_keil.o(.text)
    NMI_Handler                              0x080001b1   Thumb Code     2  startup_mm32spin06xx_s_keil.o(.text)
    HardFault_Handler                        0x080001b3   Thumb Code     2  startup_mm32spin06xx_s_keil.o(.text)
    SVC_Handler                              0x080001b5   Thumb Code     2  startup_mm32spin06xx_s_keil.o(.text)
    PendSV_Handler                           0x080001b7   Thumb Code     2  startup_mm32spin06xx_s_keil.o(.text)
    CAN_IRQHandler                           0x080001bb   Thumb Code     0  startup_mm32spin06xx_s_keil.o(.text)
    DMA1_Channel1_IRQHandler                 0x080001bb   Thumb Code     0  startup_mm32spin06xx_s_keil.o(.text)
    DMA1_Channel4_5_IRQHandler               0x080001bb   Thumb Code     0  startup_mm32spin06xx_s_keil.o(.text)
    EXTI0_1_IRQHandler                       0x080001bb   Thumb Code     0  startup_mm32spin06xx_s_keil.o(.text)
    EXTI2_3_IRQHandler                       0x080001bb   Thumb Code     0  startup_mm32spin06xx_s_keil.o(.text)
    EXTI4_15_IRQHandler                      0x080001bb   Thumb Code     0  startup_mm32spin06xx_s_keil.o(.text)
    FLASH_IRQHandler                         0x080001bb   Thumb Code     0  startup_mm32spin06xx_s_keil.o(.text)
    HWDIV_IRQHandler                         0x080001bb   Thumb Code     0  startup_mm32spin06xx_s_keil.o(.text)
    I2C1_IRQHandler                          0x080001bb   Thumb Code     0  startup_mm32spin06xx_s_keil.o(.text)
    PVD_IRQHandler                           0x080001bb   Thumb Code     0  startup_mm32spin06xx_s_keil.o(.text)
    RCC_CRS_IRQHandler                       0x080001bb   Thumb Code     0  startup_mm32spin06xx_s_keil.o(.text)
    RTC_BKP_IRQHandler                       0x080001bb   Thumb Code     0  startup_mm32spin06xx_s_keil.o(.text)
    SPI1_IRQHandler                          0x080001bb   Thumb Code     0  startup_mm32spin06xx_s_keil.o(.text)
    SPI2_IRQHandler                          0x080001bb   Thumb Code     0  startup_mm32spin06xx_s_keil.o(.text)
    TIM14_IRQHandler                         0x080001bb   Thumb Code     0  startup_mm32spin06xx_s_keil.o(.text)
    TIM16_IRQHandler                         0x080001bb   Thumb Code     0  startup_mm32spin06xx_s_keil.o(.text)
    TIM17_IRQHandler                         0x080001bb   Thumb Code     0  startup_mm32spin06xx_s_keil.o(.text)
    TIM1_CC_IRQHandler                       0x080001bb   Thumb Code     0  startup_mm32spin06xx_s_keil.o(.text)
    UART1_IRQHandler                         0x080001bb   Thumb Code     0  startup_mm32spin06xx_s_keil.o(.text)
    UART2_IRQHandler                         0x080001bb   Thumb Code     0  startup_mm32spin06xx_s_keil.o(.text)
    WWDG_IRQHandler                          0x080001bb   Thumb Code     0  startup_mm32spin06xx_s_keil.o(.text)
    __user_initial_stackheap                 0x080001bd   Thumb Code     0  startup_mm32spin06xx_s_keil.o(.text)
    __2sprintf                               0x08000201   Thumb Code    36  noretval__2sprintf.o(.text)
    __printf                                 0x08000229   Thumb Code   108  __printf.o(.text)
    __aeabi_memset4                          0x08000295   Thumb Code    18  aeabi_memset4.o(.text)
    __aeabi_memset8                          0x08000295   Thumb Code     0  aeabi_memset4.o(.text)
    __aeabi_uidivmod                         0x080002a9   Thumb Code    28  aeabi_sdivfast.o(.text)
    __aeabi_idivmod                          0x080002c5   Thumb Code   472  aeabi_sdivfast.o(.text)
    __use_two_region_memory                  0x080004a1   Thumb Code     2  heapauxi.o(.text)
    __rt_heap_escrow$2region                 0x080004a3   Thumb Code     2  heapauxi.o(.text)
    __rt_heap_expand$2region                 0x080004a5   Thumb Code     2  heapauxi.o(.text)
    __aeabi_d2f                              0x080004a9   Thumb Code     0  d2f.o(.text)
    _d2f                                     0x080004a9   Thumb Code   120  d2f.o(.text)
    __aeabi_ddiv                             0x08000525   Thumb Code     0  ddiv.o(.text)
    _ddiv                                    0x08000525   Thumb Code  1072  ddiv.o(.text)
    _drdiv                                   0x08000955   Thumb Code    20  ddiv.o(.text)
    __aeabi_d2iz                             0x0800096d   Thumb Code     0  dfixi.o(.text)
    _dfix                                    0x0800096d   Thumb Code    98  dfixi.o(.text)
    __aeabi_i2d_normalise                    0x080009d9   Thumb Code    66  dflti.o(.text)
    __aeabi_i2d                              0x08000a1b   Thumb Code    16  dflti.o(.text)
    _dflt                                    0x08000a1b   Thumb Code     0  dflti.o(.text)
    __aeabi_ui2d                             0x08000a2b   Thumb Code     6  dflti.o(.text)
    _dfltu                                   0x08000a2b   Thumb Code     0  dflti.o(.text)
    __aeabi_dmul                             0x08000a31   Thumb Code     0  dmul.o(.text)
    _dmul                                    0x08000a31   Thumb Code   558  dmul.o(.text)
    __aeabi_f2d                              0x08000c79   Thumb Code     0  f2d.o(.text)
    _f2d                                     0x08000c79   Thumb Code    80  f2d.o(.text)
    _printf_fp_dec_real                      0x08000e69   Thumb Code   620  _printf_fp_dec.o(.text)
    _printf_char_common                      0x080010eb   Thumb Code    32  _printf_char_common.o(.text)
    _sputc                                   0x08001111   Thumb Code    10  _sputc.o(.text)
    _memset_w                                0x0800111b   Thumb Code    26  rt_memclr.o(.text)
    _memset                                  0x08001135   Thumb Code    30  rt_memclr.o(.text)
    __aeabi_memclr                           0x08001153   Thumb Code     4  rt_memclr.o(.text)
    __rt_memclr                              0x08001153   Thumb Code     0  rt_memclr.o(.text)
    __aeabi_memclr4                          0x08001157   Thumb Code     0  rt_memclr.o(.text)
    __aeabi_memclr8                          0x08001157   Thumb Code     0  rt_memclr.o(.text)
    __rt_memclr_w                            0x08001157   Thumb Code     4  rt_memclr.o(.text)
    __rt_locale                              0x0800115d   Thumb Code     8  rt_locale_intlibspace.o(.text)
    _ll_udiv10                               0x08001165   Thumb Code   122  lludiv10.o(.text)
    _printf_fp_infnan                        0x080011e1   Thumb Code   120  _printf_fp_infnan.o(.text)
    _btod_etento                             0x08001269   Thumb Code   210  bigflt0.o(.text)
    _btod_d2e                                0x08001341   Thumb Code    64  btod.o(.text)
    _btod_emul                               0x08001775   Thumb Code    28  btod.o(.text)
    _btod_emuld                              0x08001791   Thumb Code   144  btod.o(.text)
    _btod_ediv                               0x08001821   Thumb Code    26  btod.o(.text)
    _btod_edivd                              0x0800183b   Thumb Code   124  btod.o(.text)
    __rt_udiv10                              0x080018c1   Thumb Code    40  rtudiv10.o(.text)
    __fpl_fcmp_InfNaN                        0x080018e9   Thumb Code    96  fcmpin.o(.text)
    __user_libspace                          0x0800194d   Thumb Code     8  libspace.o(.text)
    __user_perproc_libspace                  0x0800194d   Thumb Code     0  libspace.o(.text)
    __user_perthread_libspace                0x0800194d   Thumb Code     0  libspace.o(.text)
    __user_setup_stackheap                   0x08001955   Thumb Code    62  sys_stackheap_outer.o(.text)
    exit                                     0x08001993   Thumb Code    16  exit.o(.text)
    strcmp                                   0x080019a5   Thumb Code   176  strcmpv6m.o(.text)
    __fpl_cmpreturn                          0x08001a55   Thumb Code    46  cmpret.o(.text)
    __fpl_fcheck_NaN2                        0x08001a85   Thumb Code    10  fnan2.o(.text)
    __fpl_return_NaN                         0x08001a95   Thumb Code    94  retnan.o(.text)
    _sys_exit                                0x08001af5   Thumb Code     8  sys_exit.o(.text)
    __I$use$semihosting                      0x08001b01   Thumb Code     0  use_no_semi.o(.text)
    __use_no_semihosting_swi                 0x08001b01   Thumb Code     2  use_no_semi.o(.text)
    __semihosting_library_function           0x08001b03   Thumb Code     0  indicate_semi.o(.text)
    ADC1_COMP_IRQHandler                     0x08001b05   Thumb Code   284  interrupt.o(.text.ADC1_COMP_IRQHandler)
    ADCALL_Init                              0x08001c59   Thumb Code    60  initialize.o(.text.ADCALL_Init)
    ADC_AnalogWatchdogCmd                    0x08001c95   Thumb Code    18  hal_adc.o(.text.ADC_AnalogWatchdogCmd)
    ADC_AnalogWatchdogSingleChannelConfig    0x08001ca7   Thumb Code    20  hal_adc.o(.text.ADC_AnalogWatchdogSingleChannelConfig)
    ADC_AnalogWatchdogThresholdsConfig       0x08001cbb   Thumb Code     8  hal_adc.o(.text.ADC_AnalogWatchdogThresholdsConfig)
    ADC_ClearFlag                            0x08001cc3   Thumb Code    14  hal_adc.o(.text.ADC_ClearFlag)
    ADC_ClearITPendingBit                    0x08001cd1   Thumb Code    14  hal_adc.o(.text.ADC_ClearITPendingBit)
    ADC_Cmd                                  0x08001cdf   Thumb Code    16  hal_adc.o(.text.ADC_Cmd)
    ADC_DeInit                               0x08001cf1   Thumb Code    20  hal_adc.o(.text.ADC_DeInit)
    ADC_GetFlagStatus                        0x08001d09   Thumb Code    16  hal_adc.o(.text.ADC_GetFlagStatus)
    ADC_GetITStatus                          0x08001d19   Thumb Code    16  hal_adc.o(.text.ADC_GetITStatus)
    ADC_ITConfig                             0x08001d29   Thumb Code    30  hal_adc.o(.text.ADC_ITConfig)
    ADC_Init                                 0x08001d49   Thumb Code    48  hal_adc.o(.text.ADC_Init)
    ADC_RegularChannelConfig                 0x08001d81   Thumb Code    60  hal_adc.o(.text.ADC_RegularChannelConfig)
    ADC_SoftwareStartConvCmd                 0x08001dbd   Thumb Code    20  hal_adc.o(.text.ADC_SoftwareStartConvCmd)
    ADC_TempSensorVrefintCmd                 0x08001dd1   Thumb Code    24  hal_adc.o(.text.ADC_TempSensorVrefintCmd)
    BLDC_init                                0x08001ded   Thumb Code   160  initialize.o(.text.BLDC_init)
    DELAY_Init                               0x08001e95   Thumb Code    60  delay.o(.text.DELAY_Init)
    DELAY_Ms                                 0x08001ee1   Thumb Code    20  delay.o(.text.DELAY_Ms)
    DMA1_Channel2_3_IRQHandler               0x08001ef5   Thumb Code    36  interrupt.o(.text.DMA1_Channel2_3_IRQHandler)
    DMA_ClearITPendingBit                    0x08001f1d   Thumb Code     8  hal_dma.o(.text.DMA_ClearITPendingBit)
    DMA_Cmd                                  0x08001f25   Thumb Code    12  hal_dma.o(.text.DMA_Cmd)
    DMA_DeInit                               0x08001f31   Thumb Code    44  hal_dma.o(.text.DMA_DeInit)
    DMA_GetITStatus                          0x08001f61   Thumb Code    12  hal_dma.o(.text.DMA_GetITStatus)
    DMA_ITConfig                             0x08001f71   Thumb Code    20  hal_dma.o(.text.DMA_ITConfig)
    DMA_Init                                 0x08001f85   Thumb Code    72  hal_dma.o(.text.DMA_Init)
    DMA_NVIC_Config                          0x08001fd1   Thumb Code   108  initialize.o(.text.DMA_NVIC_Config)
    DMA_StructInit                           0x08002041   Thumb Code    22  hal_dma.o(.text.DMA_StructInit)
    GPIO_Init                                0x08002057   Thumb Code   144  hal_gpio.o(.text.GPIO_Init)
    GPIO_PinAFConfig                         0x080020e7   Thumb Code    32  hal_gpio.o(.text.GPIO_PinAFConfig)
    GPIO_ReadInputDataBit                    0x08002107   Thumb Code    10  hal_gpio.o(.text.GPIO_ReadInputDataBit)
    GPIO_StructInit                          0x08002111   Thumb Code    12  hal_gpio.o(.text.GPIO_StructInit)
    RCC_AHBPeriphClockCmd                    0x08002125   Thumb Code    24  hal_rcc.o(.text.RCC_AHBPeriphClockCmd)
    RCC_APB1PeriphClockCmd                   0x08002141   Thumb Code    24  hal_rcc.o(.text.RCC_APB1PeriphClockCmd)
    RCC_APB2PeriphClockCmd                   0x0800215d   Thumb Code    24  hal_rcc.o(.text.RCC_APB2PeriphClockCmd)
    RCC_GetPCLK1Freq                         0x08002179   Thumb Code    44  hal_rcc.o(.text.RCC_GetPCLK1Freq)
    RCC_GetPCLK2Freq                         0x080021a5   Thumb Code    44  hal_rcc.o(.text.RCC_GetPCLK2Freq)
    SysTick_Handler                          0x080021e1   Thumb Code    24  delay.o(.text.SysTick_Handler)
    SystemInit                               0x080021fd   Thumb Code   332  system_mm32spin06xx_s.o(.text.SystemInit)
    TIM1_BRK_UP_TRG_COM_IRQHandler           0x08002371   Thumb Code    12  interrupt.o(.text.TIM1_BRK_UP_TRG_COM_IRQHandler)
    TIM1_init                                0x0800237d   Thumb Code   172  initialize.o(.text.TIM1_init)
    TIM2_IRQHandler                          0x08002431   Thumb Code    76  interrupt.o(.text.TIM2_IRQHandler)
    TIM3_IRQHandler                          0x0800247d   Thumb Code    76  interrupt.o(.text.TIM3_IRQHandler)
    TIM_BDTRConfig                           0x080024dd   Thumb Code    30  hal_tim.o(.text.TIM_BDTRConfig)
    TIM_BDTRStructInit                       0x080024fb   Thumb Code    18  hal_tim.o(.text.TIM_BDTRStructInit)
    TIM_CCPreloadControl                     0x0800250d   Thumb Code    16  hal_tim.o(.text.TIM_CCPreloadControl)
    TIM_CCxCmd                               0x0800251d   Thumb Code    16  hal_tim.o(.text.TIM_CCxCmd)
    TIM_CCxNCmd                              0x0800252d   Thumb Code    20  hal_tim.o(.text.TIM_CCxNCmd)
    TIM_ClearITPendingBit                    0x08002541   Thumb Code     8  hal_tim.o(.text.TIM_ClearITPendingBit)
    TIM_Cmd                                  0x08002549   Thumb Code    16  hal_tim.o(.text.TIM_Cmd)
    TIM_CtrlPWMOutputs                       0x08002559   Thumb Code    20  hal_tim.o(.text.TIM_CtrlPWMOutputs)
    TIM_GenerateEvent                        0x0800256d   Thumb Code     4  hal_tim.o(.text.TIM_GenerateEvent)
    TIM_GetITStatus                          0x08002571   Thumb Code    20  hal_tim.o(.text.TIM_GetITStatus)
    TIM_ITConfig                             0x08002585   Thumb Code    20  hal_tim.o(.text.TIM_ITConfig)
    TIM_OC1Init                              0x08002599   Thumb Code    88  hal_tim.o(.text.TIM_OC1Init)
    TIM_OC2Init                              0x080025f5   Thumb Code    92  hal_tim.o(.text.TIM_OC2Init)
    TIM_OC3Init                              0x08002651   Thumb Code    88  hal_tim.o(.text.TIM_OC3Init)
    TIM_OCStructInit                         0x080026ad   Thumb Code    14  hal_tim.o(.text.TIM_OCStructInit)
    TIM_SelectOCxM                           0x080026bd   Thumb Code    88  hal_tim.o(.text.TIM_SelectOCxM)
    TIM_TimeBaseInit                         0x08002715   Thumb Code   112  hal_tim.o(.text.TIM_TimeBaseInit)
    TIM_TimeBaseStructInit                   0x08002799   Thumb Code    16  hal_tim.o(.text.TIM_TimeBaseStructInit)
    UARTX_Init                               0x080027a9   Thumb Code   132  initialize.o(.text.UARTX_Init)
    UART_Cmd                                 0x08002835   Thumb Code    12  hal_uart.o(.text.UART_Cmd)
    UART_DMACmd                              0x08002841   Thumb Code    14  hal_uart.o(.text.UART_DMACmd)
    UART_GetFlagStatus                       0x0800284f   Thumb Code    10  hal_uart.o(.text.UART_GetFlagStatus)
    UART_Init                                0x08002859   Thumb Code   112  hal_uart.o(.text.UART_Init)
    UART_SendData                            0x080028cd   Thumb Code     6  hal_uart.o(.text.UART_SendData)
    UART_SendString                          0x080028d5   Thumb Code    44  uart.o(.text.UART_SendString)
    UART_Send_Byte                           0x08002901   Thumb Code    28  uart.o(.text.UART_Send_Byte)
    UART_Send_Group                          0x0800291d   Thumb Code    44  uart.o(.text.UART_Send_Group)
    UART_StructInit                          0x0800294d   Thumb Code    24  hal_uart.o(.text.UART_StructInit)
    analogRead                               0x08002965   Thumb Code   140  hardware.o(.text.analogRead)
    autoDetectInit                           0x080029f5   Thumb Code   412  autodetect.o(.text.autoDetectInit)
    autoDetectSerialIt                       0x08002bb1   Thumb Code   340  autodetect.o(.text.autoDetectSerialIt)
    avgItotal                                0x08002d21   Thumb Code    52  calculation.o(.text.avgItotal)
    avgvbat                                  0x08002d69   Thumb Code    52  calculation.o(.text.avgvbat)
    blinkLEDupdate                           0x08002db1   Thumb Code    64  autodetect.o(.text.blinkLEDupdate)
    commutate                                0x08002e01   Thumb Code   664  bldc.o(.text.commutate)
    detectSelfHold                           0x080030a1   Thumb Code   204  autodetect.o(.text.detectSelfHold)
    digitalRead                              0x08003185   Thumb Code    52  hardware.o(.text.digitalRead)
    exNVIC_Configure                         0x080031b9   Thumb Code    26  initialize.o(.text.exNVIC_Configure)
    exNVIC_Init                              0x080031d5   Thumb Code    68  hal_misc.o(.text.exNVIC_Init)
    exRCC_APB2PeriphReset                    0x08003225   Thumb Code    16  hal_rcc.o(.text.exRCC_APB2PeriphReset)
    hallpos                                  0x08003239   Thumb Code   100  bldc.o(.text.hallpos)
    main                                     0x080032a1   Thumb Code   248  main.o(.text.main)
    pinMode                                  0x080033f5   Thumb Code    52  hardware.o(.text.pinMode)
    printvoltage                             0x08003439   Thumb Code   176  autodetect.o(.text.printvoltage)
    selfhold                                 0x08003529   Thumb Code    64  autodetect.o(.text.selfhold)
    simhallupdate                            0x08003569   Thumb Code   780  autodetect.o(.text.simhallupdate)
    updateMotorRPM                           0x080038ad   Thumb Code    16  calculation.o(.text.updateMotorRPM)
    vref_Init                                0x080038c1   Thumb Code    72  initialize.o(.text.vref_Init)
    __aeabi_uidiv                            0x0800390d   Thumb Code    68  aeabi_sdivfast.o(.text_divfast)
    __aeabi_idiv                             0x08003951   Thumb Code   434  aeabi_sdivfast.o(.text_divfast)
    __ARM_common_ll_muluu                    0x08003b03   Thumb Code    48  btod.o(i.__ARM_common_ll_muluu)
    __ARM_fpclassify                         0x08003b35   Thumb Code    40  fpclassify.o(i.__ARM_fpclassify)
    __aeabi_fcmpge                           0x08003b61   Thumb Code     0  fcmp.o(i._fgeq)
    _fgeq                                    0x08003b61   Thumb Code    22  fcmp.o(i._fgeq)
    __aeabi_fcmple                           0x08003b77   Thumb Code     0  fcmp.o(i._fleq)
    _fleq                                    0x08003b77   Thumb Code    26  fcmp.o(i._fleq)
    _get_lc_numeric                          0x08003b91   Thumb Code    44  lc_numeric_c.o(locale$$code)
    _fcmpge                                  0x08003bbd   Thumb Code    78  fgef.o(x$fpl$fgeqf)
    __aeabi_cfcmple                          0x08003c11   Thumb Code     0  flef.o(x$fpl$fleqf)
    _fcmple                                  0x08003c11   Thumb Code    78  flef.o(x$fpl$fleqf)
    _printf_fp_dec                           0x08003c65   Thumb Code    16  printf1.o(x$fpl$printf1)
    __I$use$fp                               0x08003c74   Number         0  usenofp.o(x$fpl$usenofp)
    adcs                                     0x08003d88   Data         120  hardware.o(.rodata.adcs)
    banner                                   0x08003e00   Data         457  autodetect.o(.rodata.banner)
    hall_to_pos                              0x08003fc9   Data           8  bldc.o(.rodata.hall_to_pos)
    pins                                     0x08003fd4   Data         396  hardware.o(.rodata.pins)
    Region$$Table$$Base                      0x08004160   Number         0  anon$$obj.o(Region$$Table)
    Region$$Table$$Limit                     0x08004180   Number         0  anon$$obj.o(Region$$Table)
    PXX                                      0x20000000   Data         132  autodetect.o(.data.PXX)
    SystemCoreClock                          0x20000084   Data           4  system_mm32spin06xx_s.o(.data.SystemCoreClock)
    dir                                      0x20000088   Data           1  main.o(.data.dir)
    hallposprev                              0x20000089   Data           1  main.o(.data.hallposprev)
    pinstorage                               0x2000008a   Data          16  autodetect.o(.data.pinstorage)
    step                                     0x2000009a   Data           1  main.o(.data.step)
    tbPresc                                  0x2000009b   Data          16  hal_rcc.o(.data.tbPresc)
    __libspace_start                         0x200000b0   Data          96  libspace.o(.bss)
    GPIO_InitStruct                          0x20000110   Data           4  main.o(.bss.GPIO_InitStruct)
    __temporary_stack_top$libspace           0x20000110   Data           0  libspace.o(.bss)
    aavgarr                                  0x20000114   Data         256  calculation.o(.bss.aavgarr)
    adatasum                                 0x20000214   Data           4  calculation.o(.bss.adatasum)
    adcleft                                  0x20000218   Data          10  autodetect.o(.bss.adcleft)
    aindex                                   0x20000222   Data           1  calculation.o(.bss.aindex)
    blinkstate                               0x20000223   Data           1  autodetect.o(.bss.blinkstate)
    fitotal                                  0x20000224   Data           4  main.o(.bss.fitotal)
    fvbat                                    0x20000228   Data           4  main.o(.bss.fvbat)
    hallA                                    0x2000022c   Data          33  autodetect.o(.bss.hallA)
    hallB                                    0x20000250   Data          33  autodetect.o(.bss.hallB)
    hallC                                    0x20000274   Data          33  autodetect.o(.bss.hallC)
    iOdom                                    0x20000298   Data           4  main.o(.bss.iOdom)
    init                                     0x2000029c   Data           1  autodetect.o(.bss.init)
    itotal                                   0x200002a0   Data           4  main.o(.bss.itotal)
    itotaloffset                             0x200002a4   Data           4  interrupt.o(.bss.itotaloffset)
    lastblink                                0x200002a8   Data           4  autodetect.o(.bss.lastblink)
    lastcommutate                            0x200002ac   Data           4  bldc.o(.bss.lastcommutate)
    masterslave                              0x200002b0   Data           1  main.o(.bss.masterslave)
    millis                                   0x200002b4   Data           4  main.o(.bss.millis)
    mode                                     0x200002b8   Data           1  autodetect.o(.bss.mode)
    poweron                                  0x200002b9   Data           1  interrupt.o(.bss.poweron)
    realspeed                                0x200002bc   Data           4  main.o(.bss.realspeed)
    sRxBuffer                                0x200002c0   Data          10  main.o(.bss.sRxBuffer)
    sTimingDelay                             0x200002cc   Data           4  delay.o(.bss.sTimingDelay)
    selpin                                   0x200002d0   Data           1  autodetect.o(.bss.selpin)
    showalladc                               0x200002d1   Data           1  autodetect.o(.bss.showalladc)
    tmp                                      0x200002d4   Data           4  autodetect.o(.bss.tmp)
    vavgarr                                  0x200002d8   Data         128  calculation.o(.bss.vavgarr)
    vbat                                     0x20000358   Data           4  main.o(.bss.vbat)
    vcc                                      0x2000035c   Data           4  main.o(.bss.vcc)
    vdatasum                                 0x20000360   Data           4  calculation.o(.bss.vdatasum)
    vindex                                   0x20000364   Data           1  calculation.o(.bss.vindex)



==============================================================================

Memory Map of the image

  Image Entry point : 0x080000c1

  Load Region LR_IROM1 (Base: 0x08000000, Size: 0x00004250, Max: 0x00008000, ABSOLUTE)

    Execution Region ER_IROM1 (Exec base: 0x08000000, Load base: 0x08000000, Size: 0x0000419c, Max: 0x00008000, ABSOLUTE)

    Exec Addr    Load Addr    Size         Type   Attr      Idx    E Section Name        Object

    0x08000000   0x08000000   0x000000c0   Data   RO         1163    RESET               startup_mm32spin06xx_s_keil.o
    0x080000c0   0x080000c0   0x00000008   Code   RO         1226  * !!!main             c_p.l(__main.o)
    0x080000c8   0x080000c8   0x0000003c   Code   RO         1493    !!!scatter          c_p.l(__scatter.o)
    0x08000104   0x08000104   0x0000001a   Code   RO         1495    !!handler_copy      c_p.l(__scatter_copy.o)
    0x0800011e   0x0800011e   0x00000002   PAD
    0x08000120   0x08000120   0x0000001c   Code   RO         1497    !!handler_zi        c_p.l(__scatter_zi.o)
    0x0800013c   0x0800013c   0x00000002   Code   RO         1213    .ARM.Collect$$_printf_percent$$00000000  c_p.l(_printf_percent.o)
    0x0800013e   0x0800013e   0x0000000a   Code   RO         1212    .ARM.Collect$$_printf_percent$$00000003  c_p.l(_printf_f.o)
    0x08000148   0x08000148   0x00000004   Code   RO         1270    .ARM.Collect$$_printf_percent$$00000017  c_p.l(_printf_percent_end.o)
    0x0800014c   0x0800014c   0x00000002   Code   RO         1349    .ARM.Collect$$libinit$$00000000  c_p.l(libinit.o)
    0x0800014e   0x0800014e   0x00000000   Code   RO         1351    .ARM.Collect$$libinit$$00000002  c_p.l(libinit2.o)
    0x0800014e   0x0800014e   0x00000000   Code   RO         1353    .ARM.Collect$$libinit$$00000004  c_p.l(libinit2.o)
    0x0800014e   0x0800014e   0x00000000   Code   RO         1355    .ARM.Collect$$libinit$$00000006  c_p.l(libinit2.o)
    0x0800014e   0x0800014e   0x00000000   Code   RO         1358    .ARM.Collect$$libinit$$0000000C  c_p.l(libinit2.o)
    0x0800014e   0x0800014e   0x00000000   Code   RO         1360    .ARM.Collect$$libinit$$0000000E  c_p.l(libinit2.o)
    0x0800014e   0x0800014e   0x00000000   Code   RO         1362    .ARM.Collect$$libinit$$00000010  c_p.l(libinit2.o)
    0x0800014e   0x0800014e   0x00000006   Code   RO         1363    .ARM.Collect$$libinit$$00000011  c_p.l(libinit2.o)
    0x08000154   0x08000154   0x00000000   Code   RO         1365    .ARM.Collect$$libinit$$00000013  c_p.l(libinit2.o)
    0x08000154   0x08000154   0x00000000   Code   RO         1367    .ARM.Collect$$libinit$$00000015  c_p.l(libinit2.o)
    0x08000154   0x08000154   0x00000000   Code   RO         1369    .ARM.Collect$$libinit$$00000017  c_p.l(libinit2.o)
    0x08000154   0x08000154   0x0000000a   Code   RO         1370    .ARM.Collect$$libinit$$00000018  c_p.l(libinit2.o)
    0x0800015e   0x0800015e   0x00000000   Code   RO         1371    .ARM.Collect$$libinit$$00000019  c_p.l(libinit2.o)
    0x0800015e   0x0800015e   0x00000000   Code   RO         1373    .ARM.Collect$$libinit$$0000001B  c_p.l(libinit2.o)
    0x0800015e   0x0800015e   0x00000000   Code   RO         1375    .ARM.Collect$$libinit$$0000001D  c_p.l(libinit2.o)
    0x0800015e   0x0800015e   0x00000000   Code   RO         1377    .ARM.Collect$$libinit$$0000001F  c_p.l(libinit2.o)
    0x0800015e   0x0800015e   0x00000000   Code   RO         1379    .ARM.Collect$$libinit$$00000021  c_p.l(libinit2.o)
    0x0800015e   0x0800015e   0x00000000   Code   RO         1381    .ARM.Collect$$libinit$$00000023  c_p.l(libinit2.o)
    0x0800015e   0x0800015e   0x00000000   Code   RO         1383    .ARM.Collect$$libinit$$00000025  c_p.l(libinit2.o)
    0x0800015e   0x0800015e   0x00000000   Code   RO         1385    .ARM.Collect$$libinit$$00000027  c_p.l(libinit2.o)
    0x0800015e   0x0800015e   0x00000000   Code   RO         1389    .ARM.Collect$$libinit$$0000002E  c_p.l(libinit2.o)
    0x0800015e   0x0800015e   0x00000000   Code   RO         1391    .ARM.Collect$$libinit$$00000030  c_p.l(libinit2.o)
    0x0800015e   0x0800015e   0x00000000   Code   RO         1393    .ARM.Collect$$libinit$$00000032  c_p.l(libinit2.o)
    0x0800015e   0x0800015e   0x00000000   Code   RO         1395    .ARM.Collect$$libinit$$00000034  c_p.l(libinit2.o)
    0x0800015e   0x0800015e   0x00000002   Code   RO         1396    .ARM.Collect$$libinit$$00000035  c_p.l(libinit2.o)
    0x08000160   0x08000160   0x00000002   Code   RO         1458    .ARM.Collect$$libshutdown$$00000000  c_p.l(libshutdown.o)
    0x08000162   0x08000162   0x00000000   Code   RO         1476    .ARM.Collect$$libshutdown$$00000002  c_p.l(libshutdown2.o)
    0x08000162   0x08000162   0x00000000   Code   RO         1478    .ARM.Collect$$libshutdown$$00000004  c_p.l(libshutdown2.o)
    0x08000162   0x08000162   0x00000000   Code   RO         1481    .ARM.Collect$$libshutdown$$00000007  c_p.l(libshutdown2.o)
    0x08000162   0x08000162   0x00000000   Code   RO         1484    .ARM.Collect$$libshutdown$$0000000A  c_p.l(libshutdown2.o)
    0x08000162   0x08000162   0x00000000   Code   RO         1486    .ARM.Collect$$libshutdown$$0000000C  c_p.l(libshutdown2.o)
    0x08000162   0x08000162   0x00000000   Code   RO         1489    .ARM.Collect$$libshutdown$$0000000F  c_p.l(libshutdown2.o)
    0x08000162   0x08000162   0x00000002   Code   RO         1490    .ARM.Collect$$libshutdown$$00000010  c_p.l(libshutdown2.o)
    0x08000164   0x08000164   0x00000000   Code   RO         1257    .ARM.Collect$$rtentry$$00000000  c_p.l(__rtentry.o)
    0x08000164   0x08000164   0x00000000   Code   RO         1281    .ARM.Collect$$rtentry$$00000002  c_p.l(__rtentry2.o)
    0x08000164   0x08000164   0x00000006   Code   RO         1293    .ARM.Collect$$rtentry$$00000004  c_p.l(__rtentry4.o)
    0x0800016a   0x0800016a   0x00000000   Code   RO         1283    .ARM.Collect$$rtentry$$00000009  c_p.l(__rtentry2.o)
    0x0800016a   0x0800016a   0x00000004   Code   RO         1284    .ARM.Collect$$rtentry$$0000000A  c_p.l(__rtentry2.o)
    0x0800016e   0x0800016e   0x00000000   Code   RO         1286    .ARM.Collect$$rtentry$$0000000C  c_p.l(__rtentry2.o)
    0x0800016e   0x0800016e   0x00000008   Code   RO         1287    .ARM.Collect$$rtentry$$0000000D  c_p.l(__rtentry2.o)
    0x08000176   0x08000176   0x00000002   Code   RO         1402    .ARM.Collect$$rtexit$$00000000  c_p.l(rtexit.o)
    0x08000178   0x08000178   0x00000000   Code   RO         1423    .ARM.Collect$$rtexit$$00000002  c_p.l(rtexit2.o)
    0x08000178   0x08000178   0x00000004   Code   RO         1424    .ARM.Collect$$rtexit$$00000003  c_p.l(rtexit2.o)
    0x0800017c   0x0800017c   0x00000006   Code   RO         1425    .ARM.Collect$$rtexit$$00000004  c_p.l(rtexit2.o)
    0x08000182   0x08000182   0x00000002   PAD
    0x08000184   0x08000184   0x0000007c   Code   RO         1164    .text               startup_mm32spin06xx_s_keil.o
    0x08000200   0x08000200   0x00000028   Code   RO         1188    .text               c_p.l(noretval__2sprintf.o)
    0x08000228   0x08000228   0x0000006c   Code   RO         1190    .text               c_p.l(__printf.o)
    0x08000294   0x08000294   0x00000012   Code   RO         1214    .text               c_p.l(aeabi_memset4.o)
    0x080002a6   0x080002a6   0x00000002   PAD
    0x080002a8   0x080002a8   0x000001f8   Code   RO         1216    .text               c_p.l(aeabi_sdivfast.o)
    0x080004a0   0x080004a0   0x00000006   Code   RO         1224    .text               c_p.l(heapauxi.o)
    0x080004a6   0x080004a6   0x00000002   PAD
    0x080004a8   0x080004a8   0x0000007c   Code   RO         1228    .text               fz_ps.l(d2f.o)
    0x08000524   0x08000524   0x00000448   Code   RO         1230    .text               fz_ps.l(ddiv.o)
    0x0800096c   0x0800096c   0x0000006c   Code   RO         1233    .text               fz_ps.l(dfixi.o)
    0x080009d8   0x080009d8   0x00000058   Code   RO         1237    .text               fz_ps.l(dflti.o)
    0x08000a30   0x08000a30   0x00000248   Code   RO         1239    .text               fz_ps.l(dmul.o)
    0x08000c78   0x08000c78   0x00000054   Code   RO         1241    .text               fz_ps.l(f2d.o)
    0x08000ccc   0x08000ccc   0x00000414   Code   RO         1262    .text               c_p.l(_printf_fp_dec.o)
    0x080010e0   0x080010e0   0x00000030   Code   RO         1266    .text               c_p.l(_printf_char_common.o)
    0x08001110   0x08001110   0x0000000a   Code   RO         1268    .text               c_p.l(_sputc.o)
    0x0800111a   0x0800111a   0x00000040   Code   RO         1271    .text               c_p.l(rt_memclr.o)
    0x0800115a   0x0800115a   0x00000002   PAD
    0x0800115c   0x0800115c   0x00000008   Code   RO         1300    .text               c_p.l(rt_locale_intlibspace.o)
    0x08001164   0x08001164   0x0000007a   Code   RO         1302    .text               c_p.l(lludiv10.o)
    0x080011de   0x080011de   0x00000002   PAD
    0x080011e0   0x080011e0   0x00000088   Code   RO         1304    .text               c_p.l(_printf_fp_infnan.o)
    0x08001268   0x08001268   0x000000d8   Code   RO         1308    .text               c_p.l(bigflt0.o)
    0x08001340   0x08001340   0x00000580   Code   RO         1311    .text               c_p.l(btod.o)
    0x080018c0   0x080018c0   0x00000028   Code   RO         1320    .text               c_p.l(rtudiv10.o)
    0x080018e8   0x080018e8   0x00000064   Code   RO         1322    .text               fz_ps.l(fcmpin.o)
    0x0800194c   0x0800194c   0x00000008   Code   RO         1328    .text               c_p.l(libspace.o)
    0x08001954   0x08001954   0x0000003e   Code   RO         1331    .text               c_p.l(sys_stackheap_outer.o)
    0x08001992   0x08001992   0x00000010   Code   RO         1336    .text               c_p.l(exit.o)
    0x080019a2   0x080019a2   0x00000002   PAD
    0x080019a4   0x080019a4   0x000000b0   Code   RO         1342    .text               c_p.l(strcmpv6m.o)
    0x08001a54   0x08001a54   0x0000002e   Code   RO         1397    .text               fz_ps.l(cmpret.o)
    0x08001a82   0x08001a82   0x00000002   PAD
    0x08001a84   0x08001a84   0x00000010   Code   RO         1399    .text               fz_ps.l(fnan2.o)
    0x08001a94   0x08001a94   0x0000005e   Code   RO         1416    .text               fz_ps.l(retnan.o)
    0x08001af2   0x08001af2   0x00000002   PAD
    0x08001af4   0x08001af4   0x0000000c   Code   RO         1418    .text               c_p.l(sys_exit.o)
    0x08001b00   0x08001b00   0x00000002   Code   RO         1445    .text               c_p.l(use_no_semi.o)
    0x08001b02   0x08001b02   0x00000000   Code   RO         1447    .text               c_p.l(indicate_semi.o)
    0x08001b02   0x08001b02   0x00000002   PAD
    0x08001b04   0x08001b04   0x00000154   Code   RO          109    .text.ADC1_COMP_IRQHandler  interrupt.o
    0x08001c58   0x08001c58   0x0000003c   Code   RO           95    .text.ADCALL_Init   initialize.o
    0x08001c94   0x08001c94   0x00000012   Code   RO          289    .text.ADC_AnalogWatchdogCmd  hal_adc.o
    0x08001ca6   0x08001ca6   0x00000014   Code   RO          293    .text.ADC_AnalogWatchdogSingleChannelConfig  hal_adc.o
    0x08001cba   0x08001cba   0x00000008   Code   RO          291    .text.ADC_AnalogWatchdogThresholdsConfig  hal_adc.o
    0x08001cc2   0x08001cc2   0x0000000e   Code   RO          303    .text.ADC_ClearFlag  hal_adc.o
    0x08001cd0   0x08001cd0   0x0000000e   Code   RO          307    .text.ADC_ClearITPendingBit  hal_adc.o
    0x08001cde   0x08001cde   0x00000010   Code   RO          265    .text.ADC_Cmd       hal_adc.o
    0x08001cee   0x08001cee   0x00000002   PAD
    0x08001cf0   0x08001cf0   0x00000018   Code   RO          259    .text.ADC_DeInit    hal_adc.o
    0x08001d08   0x08001d08   0x00000010   Code   RO          301    .text.ADC_GetFlagStatus  hal_adc.o
    0x08001d18   0x08001d18   0x00000010   Code   RO          305    .text.ADC_GetITStatus  hal_adc.o
    0x08001d28   0x08001d28   0x0000001e   Code   RO          269    .text.ADC_ITConfig  hal_adc.o
    0x08001d46   0x08001d46   0x00000002   PAD
    0x08001d48   0x08001d48   0x00000038   Code   RO          261    .text.ADC_Init      hal_adc.o
    0x08001d80   0x08001d80   0x0000003c   Code   RO          275    .text.ADC_RegularChannelConfig  hal_adc.o
    0x08001dbc   0x08001dbc   0x00000014   Code   RO          271    .text.ADC_SoftwareStartConvCmd  hal_adc.o
    0x08001dd0   0x08001dd0   0x0000001c   Code   RO          277    .text.ADC_TempSensorVrefintCmd  hal_adc.o
    0x08001dec   0x08001dec   0x000000a8   Code   RO           75    .text.BLDC_init     initialize.o
    0x08001e94   0x08001e94   0x0000004c   Code   RO           35    .text.DELAY_Init    delay.o
    0x08001ee0   0x08001ee0   0x00000014   Code   RO           39    .text.DELAY_Ms      delay.o
    0x08001ef4   0x08001ef4   0x00000028   Code   RO          107    .text.DMA1_Channel2_3_IRQHandler  interrupt.o
    0x08001f1c   0x08001f1c   0x00000008   Code   RO          408    .text.DMA_ClearITPendingBit  hal_dma.o
    0x08001f24   0x08001f24   0x0000000c   Code   RO          396    .text.DMA_Cmd       hal_dma.o
    0x08001f30   0x08001f30   0x00000030   Code   RO          390    .text.DMA_DeInit    hal_dma.o
    0x08001f60   0x08001f60   0x00000010   Code   RO          406    .text.DMA_GetITStatus  hal_dma.o
    0x08001f70   0x08001f70   0x00000014   Code   RO          398    .text.DMA_ITConfig  hal_dma.o
    0x08001f84   0x08001f84   0x0000004c   Code   RO          392    .text.DMA_Init      hal_dma.o
    0x08001fd0   0x08001fd0   0x00000070   Code   RO           87    .text.DMA_NVIC_Config  initialize.o
    0x08002040   0x08002040   0x00000016   Code   RO          394    .text.DMA_StructInit  hal_dma.o
    0x08002056   0x08002056   0x00000090   Code   RO          534    .text.GPIO_Init     hal_gpio.o
    0x080020e6   0x080020e6   0x00000020   Code   RO          558    .text.GPIO_PinAFConfig  hal_gpio.o
    0x08002106   0x08002106   0x0000000a   Code   RO          538    .text.GPIO_ReadInputDataBit  hal_gpio.o
    0x08002110   0x08002110   0x00000014   Code   RO          536    .text.GPIO_StructInit  hal_gpio.o
    0x08002124   0x08002124   0x0000001c   Code   RO          744    .text.RCC_AHBPeriphClockCmd  hal_rcc.o
    0x08002140   0x08002140   0x0000001c   Code   RO          748    .text.RCC_APB1PeriphClockCmd  hal_rcc.o
    0x0800215c   0x0800215c   0x0000001c   Code   RO          746    .text.RCC_APB2PeriphClockCmd  hal_rcc.o
    0x08002178   0x08002178   0x0000002c   Code   RO          738    .text.RCC_GetPCLK1Freq  hal_rcc.o
    0x080021a4   0x080021a4   0x0000003c   Code   RO          740    .text.RCC_GetPCLK2Freq  hal_rcc.o
    0x080021e0   0x080021e0   0x0000001c   Code   RO           37    .text.SysTick_Handler  delay.o
    0x080021fc   0x080021fc   0x00000174   Code   RO         1171    .text.SystemInit    system_mm32spin06xx_s.o
    0x08002370   0x08002370   0x0000000c   Code   RO          105    .text.TIM1_BRK_UP_TRG_COM_IRQHandler  interrupt.o
    0x0800237c   0x0800237c   0x000000b4   Code   RO           77    .text.TIM1_init     initialize.o
    0x08002430   0x08002430   0x0000004c   Code   RO          111    .text.TIM2_IRQHandler  interrupt.o
    0x0800247c   0x0800247c   0x00000060   Code   RO          113    .text.TIM3_IRQHandler  interrupt.o
    0x080024dc   0x080024dc   0x0000001e   Code   RO          867    .text.TIM_BDTRConfig  hal_tim.o
    0x080024fa   0x080024fa   0x00000012   Code   RO          875    .text.TIM_BDTRStructInit  hal_tim.o
    0x0800250c   0x0800250c   0x00000010   Code   RO          923    .text.TIM_CCPreloadControl  hal_tim.o
    0x0800251c   0x0800251c   0x00000010   Code   RO          963    .text.TIM_CCxCmd    hal_tim.o
    0x0800252c   0x0800252c   0x00000014   Code   RO          965    .text.TIM_CCxNCmd   hal_tim.o
    0x08002540   0x08002540   0x00000008   Code   RO         1015    .text.TIM_ClearITPendingBit  hal_tim.o
    0x08002548   0x08002548   0x00000010   Code   RO          877    .text.TIM_Cmd       hal_tim.o
    0x08002558   0x08002558   0x00000014   Code   RO          879    .text.TIM_CtrlPWMOutputs  hal_tim.o
    0x0800256c   0x0800256c   0x00000004   Code   RO          883    .text.TIM_GenerateEvent  hal_tim.o
    0x08002570   0x08002570   0x00000014   Code   RO         1013    .text.TIM_GetITStatus  hal_tim.o
    0x08002584   0x08002584   0x00000014   Code   RO          881    .text.TIM_ITConfig  hal_tim.o
    0x08002598   0x08002598   0x0000005c   Code   RO          847    .text.TIM_OC1Init   hal_tim.o
    0x080025f4   0x080025f4   0x0000005c   Code   RO          849    .text.TIM_OC2Init   hal_tim.o
    0x08002650   0x08002650   0x0000005c   Code   RO          851    .text.TIM_OC3Init   hal_tim.o
    0x080026ac   0x080026ac   0x0000000e   Code   RO          871    .text.TIM_OCStructInit  hal_tim.o
    0x080026ba   0x080026ba   0x00000002   PAD
    0x080026bc   0x080026bc   0x00000058   Code   RO          967    .text.TIM_SelectOCxM  hal_tim.o
    0x08002714   0x08002714   0x00000084   Code   RO          845    .text.TIM_TimeBaseInit  hal_tim.o
    0x08002798   0x08002798   0x00000010   Code   RO          869    .text.TIM_TimeBaseStructInit  hal_tim.o
    0x080027a8   0x080027a8   0x0000008c   Code   RO           83    .text.UARTX_Init    initialize.o
    0x08002834   0x08002834   0x0000000c   Code   RO         1055    .text.UART_Cmd      hal_uart.o
    0x08002840   0x08002840   0x0000000e   Code   RO         1059    .text.UART_DMACmd   hal_uart.o
    0x0800284e   0x0800284e   0x0000000a   Code   RO         1065    .text.UART_GetFlagStatus  hal_uart.o
    0x08002858   0x08002858   0x00000074   Code   RO         1051    .text.UART_Init     hal_uart.o
    0x080028cc   0x080028cc   0x00000006   Code   RO         1061    .text.UART_SendData  hal_uart.o
    0x080028d2   0x080028d2   0x00000002   PAD
    0x080028d4   0x080028d4   0x0000002c   Code   RO          133    .text.UART_SendString  uart.o
    0x08002900   0x08002900   0x0000001c   Code   RO          129    .text.UART_Send_Byte  uart.o
    0x0800291c   0x0800291c   0x00000030   Code   RO          131    .text.UART_Send_Group  uart.o
    0x0800294c   0x0800294c   0x00000018   Code   RO         1053    .text.UART_StructInit  hal_uart.o
    0x08002964   0x08002964   0x00000090   Code   RO          247    .text.analogRead    hardware.o
    0x080029f4   0x080029f4   0x000001bc   Code   RO          210    .text.autoDetectInit  autodetect.o
    0x08002bb0   0x08002bb0   0x00000170   Code   RO          206    .text.autoDetectSerialIt  autodetect.o
    0x08002d20   0x08002d20   0x00000048   Code   RO          172    .text.avgItotal     calculation.o
    0x08002d68   0x08002d68   0x00000048   Code   RO          170    .text.avgvbat       calculation.o
    0x08002db0   0x08002db0   0x00000050   Code   RO          212    .text.blinkLEDupdate  autodetect.o
    0x08002e00   0x08002e00   0x000002a0   Code   RO           52    .text.commutate     bldc.o
    0x080030a0   0x080030a0   0x000000e4   Code   RO          204    .text.detectSelfHold  autodetect.o
    0x08003184   0x08003184   0x00000034   Code   RO          243    .text.digitalRead   hardware.o
    0x080031b8   0x080031b8   0x0000001a   Code   RO           81    .text.exNVIC_Configure  initialize.o
    0x080031d2   0x080031d2   0x00000002   PAD
    0x080031d4   0x080031d4   0x00000050   Code   RO          668    .text.exNVIC_Init   hal_misc.o
    0x08003224   0x08003224   0x00000014   Code   RO          772    .text.exRCC_APB2PeriphReset  hal_rcc.o
    0x08003238   0x08003238   0x00000068   Code   RO           50    .text.hallpos       bldc.o
    0x080032a0   0x080032a0   0x00000154   Code   RO            2    .text.main          main.o
    0x080033f4   0x080033f4   0x00000044   Code   RO          241    .text.pinMode       hardware.o
    0x08003438   0x08003438   0x000000f0   Code   RO          214    .text.printvoltage  autodetect.o
    0x08003528   0x08003528   0x00000040   Code   RO          200    .text.selfhold      autodetect.o
    0x08003568   0x08003568   0x00000344   Code   RO          208    .text.simhallupdate  autodetect.o
    0x080038ac   0x080038ac   0x00000014   Code   RO          176    .text.updateMotorRPM  calculation.o
    0x080038c0   0x080038c0   0x0000004c   Code   RO           93    .text.vref_Init     initialize.o
    0x0800390c   0x0800390c   0x000001f6   Code   RO         1217    .text_divfast       c_p.l(aeabi_sdivfast.o)
    0x08003b02   0x08003b02   0x00000030   Code   RO         1313    i.__ARM_common_ll_muluu  c_p.l(btod.o)
    0x08003b32   0x08003b32   0x00000002   PAD
    0x08003b34   0x08003b34   0x0000002c   Code   RO         1326    i.__ARM_fpclassify  m_ps.l(fpclassify.o)
    0x08003b60   0x08003b60   0x00000016   Code   RO         1244    i._fgeq             fz_ps.l(fcmp.o)
    0x08003b76   0x08003b76   0x0000001a   Code   RO         1246    i._fleq             fz_ps.l(fcmp.o)
    0x08003b90   0x08003b90   0x0000002c   Code   RO         1318    locale$$code        c_p.l(lc_numeric_c.o)
    0x08003bbc   0x08003bbc   0x00000054   Code   RO         1275    x$fpl$fgeqf         fz_ps.l(fgef.o)
    0x08003c10   0x08003c10   0x00000054   Code   RO         1277    x$fpl$fleqf         fz_ps.l(flef.o)
    0x08003c64   0x08003c64   0x00000010   Code   RO         1255    x$fpl$printf1       fz_ps.l(printf1.o)
    0x08003c74   0x08003c74   0x00000000   Code   RO         1279    x$fpl$usenofp       fz_ps.l(usenofp.o)
    0x08003c74   0x08003c74   0x00000080   Data   RO         1231    .constdata          fz_ps.l(ddiv.o)
    0x08003cf4   0x08003cf4   0x00000094   Data   RO         1309    .constdata          c_p.l(bigflt0.o)
    0x08003d88   0x08003d88   0x00000078   Data   RO          250    .rodata.adcs        hardware.o
    0x08003e00   0x08003e00   0x000001c9   Data   RO          223    .rodata.banner      autodetect.o
    0x08003fc9   0x08003fc9   0x00000008   Data   RO           58    .rodata.hall_to_pos  bldc.o
    0x08003fd1   0x08003fd1   0x00000003   PAD
    0x08003fd4   0x08003fd4   0x0000018c   Data   RO          249    .rodata.pins        hardware.o
    0x08004160   0x08004160   0x00000020   Data   RO         1492    Region$$Table       anon$$obj.o
    0x08004180   0x08004180   0x0000001c   Data   RO         1317    locale$$data        c_p.l(lc_numeric_c.o)


    Execution Region RW_IRAM1 (Exec base: 0x20000000, Load base: 0x080041a0, Size: 0x00000968, Max: 0x00001000, ABSOLUTE)

    Exec Addr    Load Addr    Size         Type   Attr      Idx    E Section Name        Object

    0x20000000   0x080041a0   0x00000084   Data   RW          224    .data.PXX           autodetect.o
    0x20000084   0x08004224   0x00000004   Data   RW         1175    .data.SystemCoreClock  system_mm32spin06xx_s.o
    0x20000088   0x08004228   0x00000001   Data   RW            6    .data.dir           main.o
    0x20000089   0x08004229   0x00000001   Data   RW            9    .data.hallposprev   main.o
    0x2000008a   0x0800422a   0x00000010   Data   RW          222    .data.pinstorage    autodetect.o
    0x2000009a   0x0800423a   0x00000001   Data   RW            4    .data.step          main.o
    0x2000009b   0x0800423b   0x00000010   Data   RW          778    .data.tbPresc       hal_rcc.o
    0x200000ab   0x0800424b   0x00000005   PAD
    0x200000b0        -       0x00000060   Zero   RW         1329    .bss                c_p.l(libspace.o)
    0x20000110        -       0x00000004   Zero   RW           25    .bss.GPIO_InitStruct  main.o
    0x20000114        -       0x00000100   Zero   RW          191    .bss.aavgarr        calculation.o
    0x20000214        -       0x00000004   Zero   RW          190    .bss.adatasum       calculation.o
    0x20000218        -       0x0000000a   Zero   RW          229    .bss.adcleft        autodetect.o
    0x20000222        -       0x00000001   Zero   RW          189    .bss.aindex         calculation.o
    0x20000223        -       0x00000001   Zero   RW          220    .bss.blinkstate     autodetect.o
    0x20000224        -       0x00000004   Zero   RW           23    .bss.fitotal        main.o
    0x20000228        -       0x00000004   Zero   RW           22    .bss.fvbat          main.o
    0x2000022c        -       0x00000021   Zero   RW          226    .bss.hallA          autodetect.o
    0x2000024d   0x0800424b   0x00000003   PAD
    0x20000250        -       0x00000021   Zero   RW          227    .bss.hallB          autodetect.o
    0x20000271   0x0800424b   0x00000003   PAD
    0x20000274        -       0x00000021   Zero   RW          228    .bss.hallC          autodetect.o
    0x20000295   0x0800424b   0x00000003   PAD
    0x20000298        -       0x00000004   Zero   RW           17    .bss.iOdom          main.o
    0x2000029c        -       0x00000001   Zero   RW          217    .bss.init           autodetect.o
    0x2000029d   0x0800424b   0x00000003   PAD
    0x200002a0        -       0x00000004   Zero   RW           21    .bss.itotal         main.o
    0x200002a4        -       0x00000004   Zero   RW          115    .bss.itotaloffset   interrupt.o
    0x200002a8        -       0x00000004   Zero   RW          230    .bss.lastblink      autodetect.o
    0x200002ac        -       0x00000004   Zero   RW           59    .bss.lastcommutate  bldc.o
    0x200002b0        -       0x00000001   Zero   RW           14    .bss.masterslave    main.o
    0x200002b1   0x0800424b   0x00000003   PAD
    0x200002b4        -       0x00000004   Zero   RW           15    .bss.millis         main.o
    0x200002b8        -       0x00000001   Zero   RW          216    .bss.mode           autodetect.o
    0x200002b9        -       0x00000001   Zero   RW          116    .bss.poweron        interrupt.o
    0x200002ba   0x0800424b   0x00000002   PAD
    0x200002bc        -       0x00000004   Zero   RW           12    .bss.realspeed      main.o
    0x200002c0        -       0x0000000a   Zero   RW            8    .bss.sRxBuffer      main.o
    0x200002ca   0x0800424b   0x00000002   PAD
    0x200002cc        -       0x00000004   Zero   RW           41    .bss.sTimingDelay   delay.o
    0x200002d0        -       0x00000001   Zero   RW          219    .bss.selpin         autodetect.o
    0x200002d1        -       0x00000001   Zero   RW          221    .bss.showalladc     autodetect.o
    0x200002d2   0x0800424b   0x00000002   PAD
    0x200002d4        -       0x00000004   Zero   RW          225    .bss.tmp            autodetect.o
    0x200002d8        -       0x00000080   Zero   RW          188    .bss.vavgarr        calculation.o
    0x20000358        -       0x00000004   Zero   RW           20    .bss.vbat           main.o
    0x2000035c        -       0x00000004   Zero   RW           26    .bss.vcc            main.o
    0x20000360        -       0x00000004   Zero   RW          187    .bss.vdatasum       calculation.o
    0x20000364        -       0x00000001   Zero   RW          186    .bss.vindex         calculation.o
    0x20000365   0x0800424b   0x00000003   PAD
    0x20000368        -       0x00000200   Zero   RW         1162    HEAP                startup_mm32spin06xx_s_keil.o
    0x20000568        -       0x00000400   Zero   RW         1161    STACK               startup_mm32spin06xx_s_keil.o


==============================================================================

Image component sizes


      Code (inc. data)   RO Data    RW Data    ZI Data      Debug   Object Name

      2260        252        457        148        122       8446   autodetect.o
       776         24          8          0          4       3647   bldc.o
       164         44          0          0        394       2410   calculation.o
       124         20          0          0          4       3162   delay.o
       340         16          0          0          0       9090   hal_adc.o
       202         12          0          0          0       4598   hal_dma.o
       206          8          0          0          0       5350   hal_gpio.o
        80         12          0          0          0       2876   hal_misc.o
       208         32          0         16          0      11473   hal_rcc.o
       714         32          0          0          0      27751   hal_tim.o
       182          4          0          0          0       6291   hal_uart.o
       264         68        516          0          0       3776   hardware.o
       762         32          0          0          0      16381   initialize.o
       564         80          0          0          5       4572   interrupt.o
       340         98          0          3         47       3619   main.o
       124         58        192          0       1536        740   startup_mm32spin06xx_s_keil.o
       372         40          0          4          0       3445   system_mm32spin06xx_s.o
       120          4          0          0          0       1803   uart.o

    ----------------------------------------------------------------------
      7812        836       1208        172       2140     119430   Object Totals
         0          0         32          0          0          0   (incl. Generated)
        10          0          3          1         28          0   (incl. Padding)

    ----------------------------------------------------------------------

      Code (inc. data)   RO Data    RW Data    ZI Data      Debug   Library Member Name

         8          0          0          0          0         68   __main.o
       108          0          0          0          0         76   __printf.o
         0          0          0          0          0          0   __rtentry.o
        12          0          0          0          0          0   __rtentry2.o
         6          0          0          0          0          0   __rtentry4.o
        60          8          0          0          0          0   __scatter.o
        26          0          0          0          0          0   __scatter_copy.o
        28          0          0          0          0          0   __scatter_zi.o
        48          6          0          0          0         88   _printf_char_common.o
        10          0          0          0          0          0   _printf_f.o
      1044         12          0          0          0        116   _printf_fp_dec.o
       136         16          0          0          0         76   _printf_fp_infnan.o
         2          0          0          0          0          0   _printf_percent.o
         4          0          0          0          0          0   _printf_percent_end.o
        10          0          0          0          0         60   _sputc.o
        18          0          0          0          0         68   aeabi_memset4.o
      1006          4          0          0          0        184   aeabi_sdivfast.o
       216          6        148          0          0         80   bigflt0.o
      1456         30          0          0          0        336   btod.o
        16          0          0          0          0         68   exit.o
         6          0          0          0          0        136   heapauxi.o
         0          0          0          0          0          0   indicate_semi.o
        44         10         28          0          0         76   lc_numeric_c.o
         2          0          0          0          0          0   libinit.o
        18          0          0          0          0          0   libinit2.o
         2          0          0          0          0          0   libshutdown.o
         2          0          0          0          0          0   libshutdown2.o
         8          4          0          0         96         68   libspace.o
       122          0          0          0          0         72   lludiv10.o
        40          4          0          0          0         84   noretval__2sprintf.o
         8          4          0          0          0         68   rt_locale_intlibspace.o
        64          0          0          0          0        108   rt_memclr.o
         2          0          0          0          0          0   rtexit.o
        10          0          0          0          0          0   rtexit2.o
        40          0          0          0          0         60   rtudiv10.o
       176          4          0          0          0         80   strcmpv6m.o
        12          4          0          0          0         60   sys_exit.o
        62          0          0          0          0         80   sys_stackheap_outer.o
         2          0          0          0          0         68   use_no_semi.o
        46          0          0          0          0         60   cmpret.o
       124          4          0          0          0         72   d2f.o
      1096         26        128          0          0        112   ddiv.o
       108         10          0          0          0         72   dfixi.o
        88          0          0          0          0         92   dflti.o
       584         26          0          0          0         84   dmul.o
        84          4          0          0          0         60   f2d.o
        48          0          0          0          0        136   fcmp.o
       100          4          0          0          0         68   fcmpin.o
        84          4          0          0          0         76   fgef.o
        84          4          0          0          0         76   flef.o
        16          6          0          0          0         68   fnan2.o
        16          4          0          0          0         76   printf1.o
        94          0          0          0          0         68   retnan.o
         0          0          0          0          0          0   usenofp.o
        44          4          0          0          0         60   fpclassify.o

    ----------------------------------------------------------------------
      7472        208        304          0         96       3360   Library Totals
        22          0          0          0          0          0   (incl. Padding)

    ----------------------------------------------------------------------

      Code (inc. data)   RO Data    RW Data    ZI Data      Debug   Library Name

      4834        112        176          0         96       2180   c_p.l
      2572         92        128          0          0       1120   fz_ps.l
        44          4          0          0          0         60   m_ps.l

    ----------------------------------------------------------------------
      7472        208        304          0         96       3360   Library Totals

    ----------------------------------------------------------------------

==============================================================================


      Code (inc. data)   RO Data    RW Data    ZI Data      Debug   

     15284       1044       1512        172       2236     120818   Grand Totals
     15284       1044       1512        172       2236     120818   ELF Image Totals
     15284       1044       1512        172          0          0   ROM Totals

==============================================================================

    Total RO  Size (Code + RO Data)                16796 (  16.40kB)
    Total RW  Size (RW Data + ZI Data)              2408 (   2.35kB)
    Total ROM Size (Code + RO Data + RW Data)      16968 (  16.57kB)

==============================================================================

